(lp1
(lp2
(S'verify'
S'at'
S' easel'
tp3
aa(lp4
(S'travel'
S''
S''
tp5
aa(lp6
(S'travel'
S''
S''
tp7
aa(lp8
(S'travel'
S'steps'
S' 2'
tp9
aa(lp10
(S'turn'
S''
S''
tp11
aa(lp12
(S'travel'
S''
S''
tp13
aa(lp14
(S'verify'
p15
S'front'
S' hatrack'
tp16
a(g15
S'left'
S' concrete hallway'
tp17
aa(lp18
(S'travel'
S'steps'
S' 1'
tp19
aa(lp20
(S'verify'
S'front'
S' gravel hallway'
tp21
aa(lp22
(S'travel'
S''
S''
tp23
aa(lp24
(S'verify'
S'front'
S' blue hallway'
tp25
aa(lp26
(S'travel'
S''
S''
tp27
aa(lp28
(S'travel'
S''
S''
tp29
aa(lp30
(S'verify'
p31
S'front'
S' lamp'
tp32
a(g31
S'right'
S' concrete hallway'
tp33
aa(lp34
(S'travel'
S''
S''
tp35
aa(lp36
(S'verify'
p37
S'front'
S' sofa'
tp38
a(g37
S'front'
S' hatrack'
tp39
aa(lp40
(S'turn'
S''
S''
tp41
aa(lp42
(S'travel'
S'steps'
S' 1'
tp43
aa(lp44
(S'turn'
S'left'
S''
tp45
aa(lp46
(S'travel'
S''
S''
tp47
aa(lp48
(S'turn'
S''
S''
tp49
aa(lp50
(S'turn'
S''
S''
tp51
aa(lp52
(S'turn'
S''
S''
tp53
aa(lp54
(S'verify'
S'front'
S' easel'
tp55
aa(lp56
(S'verify'
p57
S'front'
S' hatrack'
tp58
a(g57
S'back'
S' lamp'
tp59
aa(lp60
(S'verify'
S'front'
S' fish wall'
tp61
aa(lp62
(S'travel'
S'steps'
S' 2'
tp63
aa(lp64
(S'turn'
S'right'
S''
tp65
aa(lp66
(S'verify'
S'front'
S' lamp'
tp67
aa(lp68
(S'turn'
S''
S''
tp69
aa(lp70
(S'travel'
S''
S''
tp71
aa(lp72
(S'travel'
S''
S''
tp73
aa(lp74
(S'verify'
S'at'
S' easel'
tp75
aa(lp76
(S'travel'
S''
S''
tp77
aa(lp78
(S'travel'
S''
S''
tp79
aa(lp80
(S'turn'
S''
S''
tp81
aa(lp82
(S'turn'
S''
S''
tp83
aa(lp84
(S'travel'
S'steps'
S' 1'
tp85
aa(lp86
(S'travel'
S''
S''
tp87
aa(lp88
(S'verify'
p89
S'at'
S' easel'
tp90
a(g89
S'left'
S' gravel hallway'
tp91
a(g89
S'right'
S' gravel hallway'
p92
tp93
aa(lp94
(S'travel'
S'steps'
S' 7'
p95
tp96
aa(lp97
(S'verify'
p98
S'front'
S' hatrack'
tp99
a(g98
S'left'
S' concrete hallway'
tp100
aa(lp101
(S'travel'
S''
S''
tp102
aa(lp103
(S'verify'
S'front'
S' blue hallway'
tp104
aa(lp105
(S'travel'
S''
S''
tp106
aa(lp107
(S'turn'
S''
S''
tp108
aa(lp109
(S'travel'
S'steps'
S' 1'
tp110
aa(lp111
(S'travel'
S'steps'
S' 1'
tp112
aa(lp113
(S'verify'
S'front'
S' concrete hallway'
tp114
aa(lp115
(S'turn'
S''
S''
tp116
aa(lp117
(S'travel'
S'steps'
S' 1'
tp118
aa(lp119
(S'verify'
S'at'
S' sofa'
tp120
aa(lp121
(S'verify'
p122
S'front'
S' wood hallway'
tp123
a(g122
S'front'
S' lamp'
tp124
aa(lp125
(S'travel'
S'steps'
S' 2'
tp126
aa(lp127
(S'travel'
S''
S''
tp128
aa(lp129
(S'travel'
S'steps'
S' 1'
tp130
aa(lp131
(S'verify'
S'right'
S' wood hallway'
p132
tp133
aa(lp134
(S'verify'
p135
S'front'
S' gravel hallway'
tp136
a(g135
S'front'
S' easel'
tp137
aa(lp138
(S'turn'
S''
S''
tp139
aa(lp140
(S'null'
p141
S''
S''
tp142
aa(lp143
(S'turn'
S''
S''
tp144
aa(lp145
(S'travel'
S''
S''
tp146
aa(lp147
(S'verify'
S'front'
S' easel'
tp148
aa(lp149
(S'travel'
S'steps'
S' 1'
tp150
aa(lp151
(S'travel'
S''
S''
tp152
aa(lp153
(S'verify'
S'at'
S' chair'
tp154
aa(lp155
(S'turn'
S''
S''
tp156
aa(lp157
(g141
S''
S''
tp158
aa(lp159
(S'travel'
S''
S''
tp160
aa(lp161
(S'travel'
S''
S''
tp162
aa(lp163
(S'travel'
S''
S''
tp164
aa(lp165
(S'turn'
S''
S''
tp166
aa(lp167
(S'turn'
S''
S''
tp168
aa(lp169
(S'turn'
S'left'
S''
tp170
aa(lp171
(S'verify'
p172
S'front'
S' chair'
tp173
a(g172
S'front'
S' wood hallway'
tp174
aa(lp175
(S'turn'
S'left'
S''
tp176
aa(lp177
(S'travel'
S'steps'
S' 1'
tp178
aa(lp179
(S'turn'
S''
S''
tp180
aa(lp181
(S'travel'
S''
S''
tp182
aa(lp183
(S'verify'
S'side'
S' yellow hallway'
tp184
aa(lp185
(S'travel'
S''
S''
tp186
aa(lp187
(S'travel'
S'steps'
S' 2'
tp188
aa(lp189
(S'turn'
S''
S''
tp190
aa(lp191
(S'turn'
S'left'
S''
tp192
aa(lp193
(S'travel'
S''
S''
tp194
aa(lp195
(S'travel'
S'steps'
S' 2'
tp196
aa(lp197
(S'turn'
S'right'
S''
tp198
aa(lp199
(S'turn'
S''
S''
tp200
aa(lp201
(S'turn'
S''
S''
tp202
aa(lp203
(S'travel'
S'steps'
S' 1'
tp204
aa(lp205
(S'travel'
S'steps'
S' 1'
tp206
aa(lp207
(S'turn'
S'right'
S''
tp208
aa(lp209
(S'travel'
S''
S''
tp210
aa(lp211
(S'turn'
S''
S''
tp212
aa(lp213
(S'travel'
S'steps'
S' 1'
tp214
aa(lp215
(S'turn'
S''
S''
tp216
aa(lp217
(S'turn'
S''
S''
tp218
aa(lp219
(S'travel'
S''
S''
tp220
aa(lp221
(S'travel'
S''
S''
tp222
aa(lp223
(S'verify'
p224
S'front'
S' gravel hallway'
tp225
a(g224
S'side'
S' yellow hallway'
tp226
aa(lp227
(S'verify'
S'at'
S' hatrack'
tp228
aa(lp229
(S'turn'
S''
S''
tp230
aa(lp231
(S'travel'
S''
S''
tp232
aa(lp233
(S'travel'
S'steps'
S' 1'
tp234
aa(lp235
(S'turn'
S''
S''
tp236
aa(lp237
(S'travel'
S''
S''
tp238
aa(lp239
(S'travel'
S''
S''
tp240
aa(lp241
(S'travel'
S''
S''
tp242
aa(lp243
(S'travel'
S'steps'
S' 1'
tp244
aa(lp245
(S'turn'
S''
S''
tp246
aa(lp247
(S'turn'
S'right'
S''
tp248
aa(lp249
(S'verify'
p250
S'right'
S' brick hallway'
p251
tp252
a(g250
S'left'
S' brick hallway'
p253
tp254
a(g250
S'left'
S' lamp'
p255
tp256
a(g250
S'left'
S' easel'
p257
tp258
aa(lp259
(S'travel'
S''
S''
tp260
aa(lp261
(S'travel'
S'steps'
S' 2'
tp262
aa(lp263
(S'verify'
S'front'
S' gravel hallway'
tp264
aa(lp265
(g141
S''
S''
tp266
aa(lp267
(S'travel'
S'steps'
S' 2'
tp268
aa(lp269
(S'verify'
p270
S'at'
S' easel'
tp271
a(g270
S'side'
S' brick hallway'
tp272
aa(lp273
(S'verify'
S'front'
S' chair'
tp274
aa(lp275
(S'turn'
S'left'
S''
tp276
aa(lp277
(S'travel'
S'steps'
S' 3'
tp278
aa(lp279
(S'travel'
S'steps'
S' 1'
tp280
aa(lp281
(S'turn'
S'right'
S''
tp282
aa(lp283
(S'turn'
S''
S''
tp284
aa(lp285
(S'travel'
S''
S''
tp286
aa(lp287
(S'travel'
S''
S''
tp288
aa(lp289
(S'turn'
S''
S''
tp290
aa(lp291
(S'turn'
S''
S''
tp292
aa(lp293
(S'travel'
S'steps'
S' 1'
tp294
aa(lp295
(S'turn'
S'right'
S''
tp296
aa(lp297
(S'turn'
S''
S''
tp298
aa(lp299
(S'turn'
S''
S''
tp300
aa(lp301
(S'verify'
S'front'
S' grass hallway'
tp302
aa(lp303
(S'verify'
S'front'
S' blue hallway'
tp304
aa(lp305
(S'turn'
S'left'
S''
tp306
aa(lp307
(S'travel'
S''
S''
tp308
aa(lp309
(S'turn'
S'left'
S''
tp310
aa(lp311
(S'verify'
S'side'
S' blue hallway'
tp312
aa(lp313
(S'verify'
p314
S'front'
S' blue hallway'
tp315
a(g314
S'front'
S' chair'
tp316
aa(lp317
(S'turn'
S''
S''
tp318
aa(lp319
(S'travel'
S''
S''
tp320
aa(lp321
(S'turn'
S''
S''
tp322
aa(lp323
(S'travel'
S''
S''
tp324
aa(lp325
(S'travel'
S''
S''
tp326
aa(lp327
(S'turn'
S'right'
S''
tp328
aa(lp329
(S'travel'
S''
S''
tp330
aa(lp331
(S'verify'
S'side'
S' brick hallway'
p332
tp333
aa(lp334
(S'travel'
S''
S''
tp335
aa(lp336
(S'turn'
S''
S''
tp337
aa(lp338
(S'turn'
S'right'
S''
tp339
aa(lp340
(S'turn'
S'right'
S''
tp341
aa(lp342
(S'verify'
S'front'
S' flower hallway'
tp343
aa(lp344
(S'travel'
S''
S''
tp345
aa(lp346
(g141
S''
S''
tp347
aa(lp348
(S'travel'
S'steps'
S' 1'
tp349
aa(lp350
(S'verify'
p351
S'right'
S' sofa'
tp352
a(g351
S'right'
S' concrete hallway'
tp353
aa(lp354
(S'verify'
S'front'
S' flower hallway'
tp355
aa(lp356
(S'travel'
S''
S''
tp357
aa(lp358
(S'verify'
S'front'
S' easel'
tp359
aa(lp360
(S'travel'
S''
S''
tp361
aa(lp362
(S'verify'
S'front'
S' brick hallway'
tp363
aa(lp364
(S'turn'
S''
S''
tp365
aa(lp366
(S'travel'
S''
S''
tp367
aa(lp368
(S'verify'
S'front'
S' yellow hallway'
tp369
aa(lp370
(S'verify'
S'front'
S' gravel hallway'
tp371
aa(lp372
(S'travel'
S''
S''
tp373
aa(lp374
(S'turn'
S'right'
S''
tp375
aa(lp376
(g141
S''
S''
tp377
aa(lp378
(S'verify'
S'right'
S' sofa'
tp379
aa(lp380
(S'travel'
S'steps'
S' 2'
tp381
aa(lp382
(S'verify'
S'front'
S' lamp'
tp383
aa(lp384
(S'travel'
S''
S''
tp385
aa(lp386
(S'verify'
S'front'
S' yellow hallway'
tp387
aa(lp388
(S'travel'
S''
S''
tp389
aa(lp390
(S'travel'
S''
S''
tp391
aa(lp392
(S'travel'
S'steps'
S' 3'
tp393
aa(lp394
(S'travel'
S''
S''
tp395
aa(lp396
(S'turn'
S'right'
S''
tp397
aa(lp398
(S'travel'
S''
S''
tp399
aa(lp400
(S'verify'
S'front'
S' gravel hallway'
tp401
aa(lp402
(S'travel'
S''
S''
tp403
aa(lp404
(S'turn'
S''
S''
tp405
aa(lp406
(S'travel'
S''
S''
tp407
aa(lp408
(S'verify'
S'back'
S' sofa'
p409
tp410
aa(lp411
(S'travel'
S''
S''
tp412
aa(lp413
(S'travel'
S''
S''
tp414
aa(lp415
(S'travel'
S'steps'
S' 2'
tp416
aa(lp417
(S'verify'
S'at'
S' hatrack'
p418
tp419
aa(lp420
(S'verify'
S'at'
S' hatrack'
tp421
aa(lp422
(S'verify'
S'front'
S' chair'
tp423
aa(lp424
(S'turn'
S'left'
S''
tp425
aa(lp426
(S'travel'
S'steps'
S' 4'
tp427
aa(lp428
(g141
S''
S''
tp429
aa(lp430
(S'turn'
S''
S''
tp431
aa(lp432
(S'travel'
S''
S''
tp433
aa(lp434
(S'travel'
S''
S''
tp435
aa(lp436
(S'turn'
S'right'
S''
tp437
aa(lp438
(S'turn'
S'right'
S''
tp439
aa(lp440
(S'turn'
S''
S''
tp441
aa(lp442
(S'turn'
S'right'
S''
tp443
aa(lp444
(S'turn'
S''
S''
tp445
aa(lp446
(S'verify'
p447
S'front'
S' blue hallway'
tp448
a(g447
S'side'
S' wood hallway'
p449
tp450
aa(lp451
(S'verify'
S'at'
S' hatrack'
tp452
aa(lp453
(S'turn'
S''
S''
tp454
aa(lp455
(S'travel'
S''
S''
tp456
aa(lp457
(S'turn'
S''
S''
tp458
aa(lp459
(S'turn'
S''
S''
tp460
aa(lp461
(S'turn'
S''
S''
tp462
aa(lp463
(S'verify'
S'front'
S' yellow hallway'
p464
tp465
aa(lp466
(S'verify'
S'left'
S' chair'
tp467
aa(lp468
(S'verify'
S'front'
S' wood hallway'
tp469
aa(lp470
(S'verify'
S'front'
S' flower hallway'
tp471
aa(lp472
(S'turn'
S''
S''
tp473
aa(lp474
(S'travel'
S'steps'
S' 1'
tp475
aa(lp476
(S'verify'
p477
S'front'
S' blue hallway'
tp478
a(g477
S'front'
S' barstool'
tp479
a(g477
S'front'
S' sofa'
tp480
aa(lp481
(S'verify'
S'front'
S' brick hallway'
tp482
aa(lp483
(S'travel'
S''
S''
tp484
aa(lp485
(S'travel'
S''
S''
tp486
aa(lp487
(S'travel'
S'steps'
S' 1'
tp488
aa(lp489
(S'verify'
S'side'
S' blue hallway'
tp490
aa(lp491
(S'turn'
S''
S''
tp492
aa(lp493
(S'turn'
S''
S''
tp494
aa(lp495
(S'turn'
S'right'
S''
tp496
aa(lp497
(S'travel'
S'steps'
S' 1'
tp498
aa(lp499
(S'verify'
S'front'
S' yellow hallway'
tp500
aa(lp501
(S'travel'
S'steps'
S' 2'
tp502
aa(lp503
(S'travel'
S''
S''
tp504
aa(lp505
(S'travel'
S''
S''
tp506
aa(lp507
(S'turn'
S'right'
S''
tp508
aa(lp509
(S'turn'
S''
S''
tp510
aa(lp511
(S'turn'
S'left'
S''
tp512
aa(lp513
(S'turn'
S'right'
S''
tp514
aa(lp515
(S'travel'
S''
S''
tp516
aa(lp517
(S'verify'
S'side'
S' yellow hallway'
tp518
aa(lp519
(S'travel'
S''
S''
tp520
aa(lp521
(S'travel'
S''
S''
tp522
aa(lp523
(S'verify'
S'left'
S' gravel hallway'
tp524
aa(lp525
(S'travel'
S'steps'
S' 1'
tp526
aa(lp527
(S'travel'
S''
S''
tp528
aa(lp529
(S'turn'
S'left'
S''
tp530
aa(lp531
(S'travel'
S''
S''
tp532
aa(lp533
(S'turn'
S''
S''
tp534
aa(lp535
(S'turn'
S''
S''
tp536
aa(lp537
(S'turn'
S''
S''
tp538
aa(lp539
(S'verify'
S'front'
S' flower hallway'
tp540
aa(lp541
(S'travel'
S''
S''
tp542
aa(lp543
(S'turn'
S''
S''
tp544
aa(lp545
(S'turn'
S''
S''
tp546
aa(lp547
(S'verify'
S'at'
S' chair'
p548
tp549
aa(lp550
(S'travel'
S''
S''
tp551
aa(lp552
(S'turn'
S''
S''
tp553
aa(lp554
(S'travel'
S''
S''
tp555
aa(lp556
(S'verify'
S'at'
S' easel'
tp557
aa(lp558
(S'turn'
S''
S''
tp559
aa(lp560
(S'verify'
p561
S'left'
p562
S' concrete hallway'
p563
tp564
a(g561
S'left'
S' chair'
p565
tp566
aa(lp567
(S'travel'
S''
S''
tp568
aa(lp569
(S'turn'
S'right'
S''
tp570
aa(lp571
(S'verify'
p572
S'front'
S' butterfly wall'
tp573
a(g572
S'back'
S' butterfly wall'
tp574
aa(lp575
(S'verify'
S'front'
S' wood hallway'
tp576
aa(lp577
(S'turn'
S'right'
S''
tp578
aa(lp579
(g141
S''
S''
tp580
aa(lp581
(S'turn'
S''
S''
tp582
aa(lp583
(S'verify'
S'left'
S' tower wall'
tp584
aa(lp585
(S'travel'
S''
S''
tp586
aa(lp587
(S'travel'
S''
S''
tp588
aa(lp589
(S'travel'
S''
S''
tp590
aa(lp591
(S'travel'
S''
S''
tp592
aa(lp593
(S'travel'
S''
S''
tp594
aa(lp595
(S'turn'
S''
S''
tp596
aa(lp597
(S'turn'
S'right'
S''
tp598
aa(lp599
(S'turn'
S''
S''
tp600
aa(lp601
(S'verify'
S'front'
S' lamp'
tp602
aa(lp603
(S'turn'
S''
S''
tp604
aa(lp605
(S'travel'
S'steps'
S' 1'
tp606
aa(lp607
(S'turn'
S''
S''
tp608
aa(lp609
(S'travel'
S''
S''
tp610
aa(lp611
(S'verify'
S'front'
S' hatrack'
tp612
aa(lp613
(S'travel'
S''
S''
tp614
aa(lp615
(S'turn'
S'right'
S''
tp616
aa(lp617
(S'travel'
S''
S''
tp618
aa(lp619
(S'turn'
S''
S''
tp620
aa(lp621
(S'turn'
S''
S''
tp622
aa(lp623
(S'travel'
S''
S''
tp624
aa(lp625
(S'turn'
S''
S''
tp626
aa(lp627
(S'travel'
S'steps'
S' 2'
tp628
aa(lp629
(S'travel'
S'steps'
S' 1'
tp630
aa(lp631
(S'turn'
S''
S''
tp632
aa(lp633
(S'verify'
p634
S'front'
S' blue hallway'
tp635
a(g634
S'front'
S' chair'
tp636
aa(lp637
(S'travel'
S''
S''
tp638
aa(lp639
(S'travel'
S''
S''
tp640
aa(lp641
(S'turn'
S'right'
S''
tp642
aa(lp643
(S'travel'
S''
S''
tp644
aa(lp645
(S'travel'
S''
S''
tp646
aa(lp647
(S'travel'
S''
S''
tp648
aa(lp649
(S'turn'
S'right'
S''
tp650
aa(lp651
(S'turn'
S'left'
S''
tp652
aa(lp653
(S'verify'
S'at'
S' sofa'
tp654
aa(lp655
(S'verify'
p656
S'front'
S' lamp'
tp657
a(g656
S'front'
S' hatrack'
tp658
aa(lp659
(S'travel'
S'steps'
S' 1'
tp660
aa(lp661
(S'turn'
S''
S''
tp662
aa(lp663
(S'travel'
S''
S''
tp664
aa(lp665
(S'verify'
p666
S'back'
S' butterfly wall'
tp667
a(g666
S'left'
S' butterfly wall'
tp668
aa(lp669
(S'turn'
S''
S''
tp670
aa(lp671
(S'turn'
S''
S''
tp672
aa(lp673
(S'travel'
S''
S''
tp674
aa(lp675
(g141
S''
S''
tp676
aa(lp677
(S'travel'
S''
S''
tp678
aa(lp679
(S'turn'
S''
S''
tp680
aa(lp681
(S'verify'
S'side'
S' flower hallway'
tp682
aa(lp683
(S'verify'
S'side'
S' flower hallway'
tp684
aa(lp685
(S'travel'
S'steps'
S' 2'
tp686
aa(lp687
(S'verify'
p688
S'left'
S' sofa'
tp689
a(g688
S'right'
S' barstool'
tp690
aa(lp691
(S'verify'
S'at'
S' hatrack'
tp692
aa(lp693
(S'verify'
S'left'
S' gravel hallway'
p694
tp695
aa(lp696
(S'verify'
S'at'
S' lamp'
tp697
aa(lp698
(S'turn'
S'right'
S''
tp699
aa(lp700
(S'travel'
S''
S''
tp701
aa(lp702
(S'verify'
p703
S'front'
S' hatrack'
tp704
a(g703
S'front'
S' lamp'
tp705
aa(lp706
(S'travel'
S'steps'
S' 3'
tp707
aa(lp708
(S'verify'
S'front'
S' chair'
tp709
aa(lp710
(S'verify'
S'at'
S' barstool'
tp711
aa(lp712
(S'verify'
S'front'
S' blue hallway'
tp713
aa(lp714
(S'travel'
S''
S''
tp715
aa(lp716
(S'verify'
p717
S'left'
S' wall'
tp718
a(g717
S'right'
S' wall'
tp719
a(g717
S'front'
S' wall'
tp720
a(g717
S'back'
S' fish wall'
tp721
a(g717
S'back'
S' yellow hallway'
tp722
aa(lp723
(S'turn'
S''
S''
tp724
aa(lp725
(S'verify'
S'front'
S' easel'
tp726
aa(lp727
(S'travel'
S'steps'
S' 1'
tp728
aa(lp729
(S'verify'
S'left'
S' sofa'
tp730
aa(lp731
(S'travel'
S''
S''
tp732
aa(lp733
(g141
S''
S''
tp734
aa(lp735
(S'turn'
S''
S''
tp736
aa(lp737
(S'travel'
S''
S''
tp738
aa(lp739
(S'travel'
S''
S''
tp740
aa(lp741
(S'verify'
S'right'
S' blue hallway'
tp742
aa(lp743
(S'turn'
S'right'
S''
tp744
aa(lp745
(S'verify'
S'front'
S' blue hallway'
tp746
aa(lp747
(S'travel'
S''
S''
tp748
aa(lp749
(S'turn'
S'left'
S''
tp750
aa(lp751
(S'verify'
p752
S'left'
S' concrete hallway'
tp753
a(g752
S'left'
S' sofa'
p754
tp755
aa(lp756
(S'verify'
S'front'
S' chair'
tp757
aa(lp758
(S'travel'
S''
S''
tp759
aa(lp760
(S'verify'
S'at'
S' hatrack'
tp761
aa(lp762
(S'travel'
S''
S''
tp763
aa(lp764
(S'verify'
p765
S'front'
S' sofa'
tp766
a(g765
S'front'
S' hatrack'
tp767
aa(lp768
(S'turn'
S''
S''
tp769
aa(lp770
(S'turn'
S'right'
S''
tp771
aa(lp772
(S'verify'
S'front'
S' brick hallway'
tp773
aa(lp774
(S'turn'
S''
S''
tp775
aa(lp776
(S'verify'
p777
S'back'
S' butterfly wall'
p778
tp779
a(g777
S'left'
S' butterfly wall'
p780
tp781
aa(lp782
(S'verify'
S'front'
S' blue hallway'
tp783
aa(lp784
(S'travel'
S'steps'
S' 2'
tp785
aa(lp786
(S'turn'
S''
S''
tp787
aa(lp788
(S'travel'
S''
S''
tp789
aa(lp790
(S'travel'
S''
S''
tp791
aa(lp792
(S'turn'
S'left'
S''
tp793
aa(lp794
(S'travel'
S''
S''
tp795
aa(lp796
(S'travel'
S''
S''
tp797
aa(lp798
(S'travel'
S''
S''
tp799
aa(lp800
(S'travel'
S''
S''
tp801
aa(lp802
(S'verify'
S'front'
S' blue hallway'
tp803
aa(lp804
(S'verify'
S'front'
S' gravel hallway'
tp805
aa(lp806
(S'travel'
S''
S''
tp807
aa(lp808
(S'travel'
S''
S''
tp809
aa(lp810
(S'travel'
S''
S''
tp811
aa(lp812
(S'verify'
S'front'
S' blue hallway'
tp813
aa(lp814
(S'turn'
S'right'
S''
tp815
aa(lp816
(S'turn'
S''
S''
tp817
aa(lp818
(S'travel'
S''
S''
tp819
aa(lp820
(S'travel'
S''
S''
tp821
aa(lp822
(S'verify'
p823
S'front'
S' easel'
tp824
a(g823
S'front'
S' gravel hallway'
tp825
aa(lp826
(S'travel'
S''
S''
tp827
aa(lp828
(S'travel'
S'steps'
S' 2'
tp829
aa(lp830
(S'travel'
S''
S''
tp831
aa(lp832
(S'turn'
S'left'
S''
tp833
aa(lp834
(S'turn'
S''
S''
tp835
aa(lp836
(S'travel'
S'steps'
S' 1'
tp837
aa(lp838
(S'turn'
S''
S''
tp839
aa(lp840
(S'travel'
S'steps'
S' 1'
tp841
aa(lp842
(S'verify'
S'front'
S' blue hallway'
tp843
aa(lp844
(S'verify'
S'front'
S' lamp'
tp845
aa(lp846
(S'turn'
S'left'
S''
tp847
aa(lp848
(S'turn'
S'left'
S''
tp849
aa(lp850
(S'verify'
S'front'
S' easel'
tp851
aa(lp852
(S'travel'
S'steps'
S' 1'
tp853
aa(lp854
(S'turn'
S'left'
S''
tp855
aa(lp856
(S'turn'
S'right'
S''
tp857
aa(lp858
(S'turn'
S''
S''
tp859
aa(lp860
(S'turn'
S''
S''
tp861
aa(lp862
(S'turn'
S'right'
S''
tp863
aa(lp864
(S'turn'
S'right'
S''
tp865
aa(lp866
(S'turn'
S''
S''
tp867
aa(lp868
(g141
S''
S''
tp869
aa(lp870
(g141
S''
S''
tp871
aa(lp872
(S'turn'
S''
S''
tp873
aa(lp874
(S'turn'
S'right'
S''
tp875
aa(lp876
(S'travel'
S''
S''
tp877
aa(lp878
(S'travel'
S''
S''
tp879
aa(lp880
(S'turn'
S'right'
S''
tp881
aa(lp882
(S'turn'
S'right'
S''
tp883
aa(lp884
(S'turn'
S''
S''
tp885
aa(lp886
(S'travel'
S''
S''
tp887
aa(lp888
(S'travel'
S''
S''
tp889
aa(lp890
(S'travel'
S'steps'
S' 1'
tp891
aa(lp892
(S'travel'
S''
S''
tp893
aa(lp894
(S'travel'
S''
S''
tp895
aa(lp896
(S'turn'
S''
S''
tp897
aa(lp898
(S'turn'
S'right'
S''
tp899
aa(lp900
(S'turn'
S''
S''
tp901
aa(lp902
(S'travel'
S'steps'
S' 1'
tp903
aa(lp904
(S'turn'
S'right'
S''
tp905
aa(lp906
(S'travel'
S'steps'
S' 1'
tp907
aa(lp908
(S'turn'
S'right'
S''
tp909
aa(lp910
(S'turn'
S''
S''
tp911
aa(lp912
(S'turn'
S'right'
S''
tp913
aa(lp914
(S'turn'
S'left'
S''
tp915
aa(lp916
(S'turn'
S'left'
S''
tp917
aa(lp918
(S'verify'
p919
S'front'
S' flower hallway'
tp920
a(g919
S'side'
S' brick hallway'
tp921
aa(lp922
(S'travel'
S'steps'
S' 2'
tp923
aa(lp924
(S'verify'
p925
S'front'
S' blue hallway'
tp926
a(g925
S'front'
S' chair'
tp927
aa(lp928
(S'verify'
S'front'
S' blue hallway'
tp929
aa(lp930
(S'turn'
S''
S''
tp931
aa(lp932
(S'travel'
S'steps'
S' 3'
tp933
aa(lp934
(S'travel'
S''
S''
tp935
aa(lp936
(S'turn'
S'left'
S''
tp937
aa(lp938
(S'verify'
p939
S'back'
S' wall'
p940
tp941
a(g939
S'at'
S' 3-intersection'
tp942
aa(lp943
(S'travel'
S''
S''
tp944
aa(lp945
(S'verify'
S'front'
S' gravel hallway'
tp946
aa(lp947
(S'travel'
S''
S''
tp948
aa(lp949
(S'travel'
S'steps'
S' 1'
tp950
aa(lp951
(S'travel'
S''
S''
tp952
aa(lp953
(S'travel'
S''
S''
tp954
aa(lp955
(S'verify'
S'front'
S' hallway'
p956
tp957
aa(lp958
(S'turn'
S''
S''
tp959
aa(lp960
(S'verify'
p961
S'back'
S' lamp'
p962
tp963
a(g961
S'left'
S' hatrack'
tp964
aa(lp965
(S'turn'
S''
S''
tp966
aa(lp967
(S'travel'
S''
S''
tp968
aa(lp969
(S'turn'
S''
S''
tp970
aa(lp971
(S'travel'
S'steps'
S' 3'
tp972
aa(lp973
(S'verify'
S'front'
S' concrete hallway'
tp974
aa(lp975
(S'travel'
S''
S''
tp976
aa(lp977
(S'verify'
S'front'
S' brick hallway'
tp978
aa(lp979
(S'travel'
S'steps'
S' 1'
tp980
aa(lp981
(S'verify'
S'front'
S' hatrack'
tp982
aa(lp983
(S'travel'
S''
S''
tp984
aa(lp985
(S'turn'
S''
S''
tp986
aa(lp987
(S'turn'
S'left'
S''
tp988
aa(lp989
(S'turn'
S'left'
S''
tp990
aa(lp991
(S'turn'
S'left'
S''
tp992
aa(lp993
(S'turn'
S''
S''
tp994
aa(lp995
(S'turn'
S''
S''
tp996
aa(lp997
(S'travel'
S''
S''
tp998
aa(lp999
(S'verify'
p1000
S'front'
S' chair'
tp1001
a(g1000
S'front'
S' hatrack'
tp1002
aa(lp1003
(S'travel'
S''
S''
tp1004
aa(lp1005
(S'travel'
S''
S''
tp1006
aa(lp1007
(S'verify'
S'front'
p1008
S' flower hallway'
p1009
tp1010
aa(lp1011
(S'verify'
S'at'
S' hatrack'
tp1012
aa(lp1013
(S'travel'
S''
S''
tp1014
aa(lp1015
(S'travel'
S''
S''
tp1016
aa(lp1017
(S'verify'
p1018
S'front'
S' flower hallway'
tp1019
a(g1018
S'front'
S' lamp'
tp1020
aa(lp1021
(S'verify'
S'front'
S' yellow hallway'
tp1022
aa(lp1023
(S'travel'
S'steps'
S' 4'
tp1024
aa(lp1025
(S'turn'
S''
S''
tp1026
aa(lp1027
(S'turn'
S'left'
S''
tp1028
aa(lp1029
(S'travel'
S''
S''
tp1030
aa(lp1031
(S'verify'
S'at'
S' easel'
tp1032
aa(lp1033
(S'verify'
S'front'
S' gravel hallway'
tp1034
aa(lp1035
(S'travel'
S''
S''
tp1036
aa(lp1037
(g141
S''
S''
tp1038
aa(lp1039
(S'turn'
S'left'
S''
tp1040
aa(lp1041
(S'verify'
S'front'
S' sofa'
tp1042
aa(lp1043
(S'verify'
S'front'
S' easel'
tp1044
aa(lp1045
(S'turn'
S''
S''
tp1046
aa(lp1047
(S'travel'
S''
S''
tp1048
aa(lp1049
(S'travel'
S''
S''
tp1050
aa(lp1051
(S'verify'
S'at'
S' hatrack'
tp1052
aa(lp1053
(S'verify'
S'right'
S' wall'
tp1054
aa(lp1055
(S'travel'
S''
S''
tp1056
aa(lp1057
(S'verify'
S'right'
S' sofa'
tp1058
aa(lp1059
(S'travel'
S''
S''
tp1060
aa(lp1061
(S'turn'
S'left'
S''
tp1062
aa(lp1063
(S'travel'
S''
S''
tp1064
aa(lp1065
(S'verify'
S'front'
S' brick hallway'
tp1066
aa(lp1067
(S'verify'
p1068
S'right'
S' lamp'
p1069
tp1070
a(g1068
S'back'
S' hatrack'
p1071
tp1072
aa(lp1073
(S'travel'
S''
S''
tp1074
aa(lp1075
(S'travel'
S'steps'
S' 3'
tp1076
aa(lp1077
(S'turn'
S''
S''
tp1078
aa(lp1079
(S'turn'
S''
S''
tp1080
aa(lp1081
(S'turn'
S''
S''
tp1082
aa(lp1083
(S'travel'
S''
S''
tp1084
aa(lp1085
(S'travel'
S''
S''
tp1086
aa(lp1087
(S'verify'
p1088
S'at'
S' easel'
tp1089
a(g1088
S'front'
S' wood hallway'
tp1090
a(g1088
S'side'
S' hallway'
p1091
tp1092
aa(lp1093
(S'turn'
S''
S''
tp1094
aa(lp1095
(S'travel'
S'steps'
S' 1'
tp1096
aa(lp1097
(S'travel'
S'steps'
S' 1'
tp1098
aa(lp1099
(S'travel'
S''
S''
tp1100
aa(lp1101
(S'travel'
S'steps'
S' 1'
tp1102
aa(lp1103
(S'turn'
S''
S''
tp1104
aa(lp1105
(S'travel'
S''
S''
tp1106
aa(lp1107
(S'travel'
S''
S''
tp1108
aa(lp1109
(S'verify'
S'front'
S' lamp'
tp1110
aa(lp1111
(S'travel'
S''
S''
tp1112
aa(lp1113
(S'travel'
S''
S''
tp1114
aa(lp1115
(S'turn'
S'right'
S''
tp1116
aa(lp1117
(S'turn'
S''
S''
tp1118
aa(lp1119
(S'travel'
S''
S''
tp1120
aa(lp1121
(S'travel'
S''
S''
tp1122
aa(lp1123
(S'turn'
S''
S''
tp1124
aa(lp1125
(S'travel'
S'steps'
S' 4'
p1126
tp1127
aa(lp1128
(S'travel'
S'steps'
S' 1'
tp1129
aa(lp1130
(S'verify'
S'at'
S' easel'
tp1131
aa(lp1132
(S'travel'
S''
S''
tp1133
aa(lp1134
(S'travel'
S''
S''
tp1135
aa(lp1136
(S'travel'
S''
S''
tp1137
aa(lp1138
(S'turn'
S'left'
S''
tp1139
aa(lp1140
(S'verify'
p1141
S'at'
S' easel'
tp1142
a(g1141
S'left'
S' tower wall'
p1143
tp1144
a(g1141
S'right'
S' butterfly wall'
p1145
tp1146
aa(lp1147
(S'verify'
S'front'
S' hatrack'
tp1148
aa(lp1149
(S'travel'
S''
S''
tp1150
aa(lp1151
(S'turn'
S''
S''
tp1152
aa(lp1153
(S'travel'
S''
S''
tp1154
aa(lp1155
(S'travel'
S''
S''
tp1156
aa(lp1157
(S'travel'
S''
S''
tp1158
aa(lp1159
(S'verify'
S'front'
S' blue hallway'
tp1160
aa(lp1161
(S'travel'
S''
S''
tp1162
aa(lp1163
(S'verify'
p1164
S'front'
S' blue hallway'
tp1165
a(g1164
S'front'
S' barstool'
tp1166
a(g1164
S'front'
S' chair'
tp1167
aa(lp1168
(S'verify'
S'left'
S' yellow hallway'
p1169
tp1170
aa(lp1171
(S'verify'
S'front'
S' grass hallway'
p1172
tp1173
aa(lp1174
(S'verify'
p1175
S'front'
S' hatrack'
tp1176
a(g1175
S'front'
S' lamp'
tp1177
aa(lp1178
(S'travel'
S''
S''
tp1179
aa(lp1180
(S'travel'
S''
S''
tp1181
aa(lp1182
(S'verify'
p1183
S'front'
S' barstool'
tp1184
a(g1183
S'front'
S' chair'
tp1185
aa(lp1186
(S'turn'
S''
S''
tp1187
aa(lp1188
(S'turn'
S''
S''
tp1189
aa(lp1190
(S'travel'
S''
S''
tp1191
aa(lp1192
(S'turn'
S''
S''
tp1193
aa(lp1194
(S'verify'
S'front'
S' grass hallway'
tp1195
aa(lp1196
(S'turn'
S''
S''
tp1197
aa(lp1198
(S'turn'
S'left'
S''
tp1199
aa(lp1200
(S'travel'
S''
S''
tp1201
aa(lp1202
(S'verify'
S'side'
S' gravel hallway'
tp1203
aa(lp1204
(S'turn'
S''
S''
tp1205
aa(lp1206
(S'turn'
S''
S''
tp1207
aa(lp1208
(S'travel'
S''
S''
tp1209
aa(lp1210
(S'turn'
S''
S''
tp1211
aa(lp1212
(S'travel'
S''
S''
tp1213
aa(lp1214
(S'turn'
S''
S''
tp1215
aa(lp1216
(S'travel'
S''
S''
tp1217
aa(lp1218
(S'turn'
S''
S''
tp1219
aa(lp1220
(S'travel'
S''
S''
tp1221
aa(lp1222
(S'verify'
p1223
S'front'
S' wall'
tp1224
a(g1223
S'right'
S' wall'
tp1225
aa(lp1226
(S'travel'
S''
S''
tp1227
aa(lp1228
(S'travel'
S''
S''
tp1229
aa(lp1230
(S'travel'
S'steps'
S' 2'
tp1231
aa(lp1232
(S'turn'
S''
S''
tp1233
aa(lp1234
(S'turn'
S''
S''
tp1235
aa(lp1236
(g141
S''
S''
tp1237
aa(lp1238
(S'verify'
p1239
S'right'
S' concrete hallway'
tp1240
a(g1239
S'right'
S' sofa'
tp1241
aa(lp1242
(S'travel'
S''
S''
tp1243
aa(lp1244
(S'turn'
S'right'
S''
tp1245
aa(lp1246
(S'travel'
S''
S''
tp1247
aa(lp1248
(S'verify'
S'front'
S' chair'
tp1249
aa(lp1250
(S'turn'
S''
S''
tp1251
aa(lp1252
(S'travel'
S'steps'
S' 2'
tp1253
aa(lp1254
(S'verify'
p1255
S'front'
S' wall'
tp1256
a(g1255
S'left'
S' wall'
tp1257
aa(lp1258
(S'travel'
S''
S''
tp1259
aa(lp1260
(S'turn'
S''
S''
tp1261
aa(lp1262
(S'travel'
S''
S''
tp1263
aa(lp1264
(S'turn'
S''
S''
tp1265
aa(lp1266
(S'travel'
S'steps'
S' 1'
tp1267
aa(lp1268
(S'turn'
S''
S''
tp1269
aa(lp1270
(S'turn'
S''
S''
tp1271
aa(lp1272
(S'verify'
p1273
S'front'
S' blue hallway'
tp1274
a(g1273
S'front'
S' barstool'
tp1275
a(g1273
S'front'
S' sofa'
tp1276
aa(lp1277
(g141
S''
S''
tp1278
aa(lp1279
(S'travel'
S'steps'
S' 4'
tp1280
aa(lp1281
(S'travel'
S''
S''
tp1282
aa(lp1283
(S'verify'
S'right'
S' grass hallway'
tp1284
aa(lp1285
(S'travel'
S''
S''
tp1286
aa(lp1287
(S'turn'
S''
S''
tp1288
aa(lp1289
(S'travel'
S'steps'
S' 2'
tp1290
aa(lp1291
(S'verify'
S'at'
S' easel'
tp1292
aa(lp1293
(S'verify'
S'front'
S' chair'
tp1294
aa(lp1295
(S'verify'
S'at'
S' easel'
tp1296
aa(lp1297
(S'turn'
S'left'
S''
tp1298
aa(lp1299
(g141
S''
S''
tp1300
aa(lp1301
(S'verify'
S'front'
S' sofa'
tp1302
aa(lp1303
(S'verify'
S'left'
S' sofa'
tp1304
aa(lp1305
(S'turn'
S''
S''
tp1306
aa(lp1307
(S'turn'
S''
S''
tp1308
aa(lp1309
(S'travel'
S''
S''
tp1310
aa(lp1311
(S'travel'
S''
S''
tp1312
aa(lp1313
(S'travel'
S''
S''
tp1314
aa(lp1315
(S'verify'
S'front'
S' flower hallway'
tp1316
aa(lp1317
(S'travel'
S''
S''
tp1318
aa(lp1319
(S'turn'
S''
S''
tp1320
aa(lp1321
(S'turn'
S'right'
S''
tp1322
aa(lp1323
(S'travel'
S'steps'
S' 1'
tp1324
aa(lp1325
(S'travel'
S'steps'
S' 1'
tp1326
aa(lp1327
(S'verify'
p1328
S'front'
S' chair'
tp1329
a(g1328
S'front'
S' hatrack'
tp1330
aa(lp1331
(S'turn'
S''
S''
tp1332
aa(lp1333
(S'travel'
S'steps'
S' 2'
tp1334
aa(lp1335
(S'turn'
S'right'
S''
tp1336
aa(lp1337
(S'travel'
S''
S''
tp1338
aa(lp1339
(g141
S''
S''
tp1340
aa(lp1341
(S'verify'
S'front'
S' blue hallway'
tp1342
aa(lp1343
(S'verify'
p1344
S'front'
S' yellow hallway'
tp1345
a(g1344
S'front'
S' fish wall'
tp1346
aa(lp1347
(S'travel'
S'steps'
S' 1'
tp1348
aa(lp1349
(S'turn'
S''
S''
tp1350
aa(lp1351
(S'turn'
S''
S''
tp1352
aa(lp1353
(S'verify'
p1354
S'front'
S' brick hallway'
tp1355
a(g1354
S'left'
S' concrete hallway'
tp1356
aa(lp1357
(S'verify'
S'at'
S' easel'
tp1358
aa(lp1359
(S'verify'
S'side'
S' brick hallway'
tp1360
aa(lp1361
(S'turn'
S''
S''
tp1362
aa(lp1363
(S'turn'
S'right'
S''
tp1364
aa(lp1365
(S'travel'
S''
S''
tp1366
aa(lp1367
(S'turn'
S'right'
S''
tp1368
aa(lp1369
(S'turn'
S'left'
S''
tp1370
aa(lp1371
(S'travel'
S''
S''
tp1372
aa(lp1373
(S'verify'
S'front'
S' grass hallway'
tp1374
aa(lp1375
(S'verify'
S'at'
S' sofa'
tp1376
aa(lp1377
(S'verify'
S'left'
S' hallway'
p1378
tp1379
aa(lp1380
(S'verify'
S'front'
S' flower hallway'
tp1381
aa(lp1382
(S'turn'
S'right'
S''
tp1383
aa(lp1384
(S'turn'
S''
S''
tp1385
aa(lp1386
(S'verify'
S'front'
S' chair'
tp1387
aa(lp1388
(S'travel'
S''
S''
tp1389
aa(lp1390
(S'travel'
S''
S''
tp1391
aa(lp1392
(S'travel'
S''
S''
tp1393
aa(lp1394
(S'travel'
S''
S''
tp1395
aa(lp1396
(S'travel'
S''
S''
tp1397
aa(lp1398
(S'travel'
S'steps'
S' 1'
tp1399
aa(lp1400
(S'travel'
S''
S''
tp1401
aa(lp1402
(S'turn'
S'left'
S''
tp1403
aa(lp1404
(S'turn'
S'left'
S''
tp1405
aa(lp1406
(S'verify'
S'front'
S' brick hallway'
tp1407
aa(lp1408
(S'travel'
S'steps'
S' 1'
tp1409
aa(lp1410
(S'travel'
S''
S''
tp1411
aa(lp1412
(S'verify'
S'front'
S' chair'
tp1413
aa(lp1414
(S'turn'
S''
S''
tp1415
aa(lp1416
(S'turn'
S'left'
S''
tp1417
aa(lp1418
(S'verify'
S'left'
S' hatrack'
tp1419
aa(lp1420
(S'turn'
S''
S''
tp1421
aa(lp1422
(S'verify'
S'front'
S' chair'
tp1423
aa(lp1424
(g141
S''
S''
tp1425
aa(lp1426
(S'verify'
S'front'
S' flower hallway'
tp1427
aa(lp1428
(S'travel'
S''
S''
tp1429
aa(lp1430
(S'turn'
S''
S''
tp1431
aa(lp1432
(S'verify'
S'front'
S' easel'
tp1433
aa(lp1434
(S'verify'
p1435
S'right'
S' tower wall'
tp1436
a(g1435
S'left'
S' butterfly wall'
tp1437
aa(lp1438
(S'travel'
S'steps'
S' 3'
tp1439
aa(lp1440
(S'verify'
S'at'
S' easel'
tp1441
aa(lp1442
(S'travel'
S''
S''
tp1443
aa(lp1444
(S'verify'
p1445
S'right'
S' concrete hallway'
tp1446
a(g1445
S'left'
S' wall'
tp1447
aa(lp1448
(S'travel'
S''
S''
tp1449
aa(lp1450
(S'travel'
S''
S''
tp1451
aa(lp1452
(S'travel'
S'steps'
S' 2'
tp1453
aa(lp1454
(S'travel'
S''
S''
tp1455
aa(lp1456
(S'turn'
S'right'
S''
tp1457
aa(lp1458
(S'verify'
p1459
S'side'
S' concrete hallway'
tp1460
a(g1459
S'right'
S' sofa'
tp1461
aa(lp1462
(S'travel'
S'steps'
S' 1'
tp1463
aa(lp1464
(S'travel'
S''
S''
tp1465
aa(lp1466
(S'turn'
S'left'
S''
tp1467
aa(lp1468
(S'turn'
S''
S''
tp1469
aa(lp1470
(S'travel'
S''
S''
tp1471
aa(lp1472
(S'travel'
S''
S''
tp1473
aa(lp1474
(S'travel'
S''
S''
tp1475
aa(lp1476
(S'turn'
S''
S''
tp1477
aa(lp1478
(S'turn'
S'right'
S''
tp1479
aa(lp1480
(S'turn'
S'left'
S''
tp1481
aa(lp1482
(S'turn'
S''
S''
tp1483
aa(lp1484
(S'verify'
S'at'
S' barstool'
p1485
tp1486
aa(lp1487
(S'turn'
S'right'
S''
tp1488
aa(lp1489
(S'verify'
S'front'
S' blue hallway'
tp1490
aa(lp1491
(g141
S''
S''
tp1492
aa(lp1493
(S'verify'
S'side'
S' wood hallway'
tp1494
aa(lp1495
(g141
S''
S''
tp1496
aa(lp1497
(S'turn'
S''
S''
tp1498
aa(lp1499
(S'turn'
S''
S''
tp1500
aa(lp1501
(S'verify'
p1502
S'side'
S' gravel hallway'
tp1503
a(g1502
S'right'
S' easel'
p1504
tp1505
aa(lp1506
(S'turn'
S''
S''
tp1507
aa(lp1508
(S'verify'
p1509
S'front'
S' gravel hallway'
tp1510
a(g1509
S'back'
S' gravel hallway'
tp1511
aa(lp1512
(S'travel'
S'steps'
S' 3'
p1513
tp1514
aa(lp1515
(S'travel'
S'steps'
S' 2'
tp1516
aa(lp1517
(S'travel'
S'steps'
S' 2'
tp1518
aa(lp1519
(S'travel'
S'steps'
S' 1'
tp1520
aa(lp1521
(S'turn'
S'right'
S''
tp1522
aa(lp1523
(S'travel'
S'steps'
S' 1'
tp1524
aa(lp1525
(S'verify'
S'front'
S' blue hallway'
tp1526
aa(lp1527
(S'turn'
S''
S''
tp1528
aa(lp1529
(S'verify'
S'front'
S' blue hallway'
tp1530
aa(lp1531
(S'verify'
S'at'
S' easel'
tp1532
aa(lp1533
(S'turn'
S''
S''
tp1534
aa(lp1535
(S'verify'
S'left'
S' concrete hallway'
tp1536
aa(lp1537
(S'travel'
S'steps'
S' 1'
tp1538
aa(lp1539
(S'verify'
S'front'
S' easel'
tp1540
aa(lp1541
(S'travel'
S''
S''
tp1542
aa(lp1543
(S'travel'
S''
S''
tp1544
aa(lp1545
(S'turn'
S''
S''
tp1546
aa(lp1547
(S'turn'
S''
S''
tp1548
aa(lp1549
(S'travel'
S''
S''
tp1550
aa(lp1551
(S'travel'
S'steps'
S' 2'
tp1552
aa(lp1553
(S'travel'
S''
S''
tp1554
aa(lp1555
(S'turn'
S'left'
S''
tp1556
aa(lp1557
(S'travel'
S''
S''
tp1558
aa(lp1559
(S'verify'
S'front'
S' yellow hallway'
tp1560
aa(lp1561
(S'travel'
S'steps'
S' 1'
tp1562
aa(lp1563
(S'verify'
S'front'
S' gravel hallway'
tp1564
aa(lp1565
(S'travel'
S''
S''
tp1566
aa(lp1567
(S'turn'
S'left'
S''
tp1568
aa(lp1569
(S'verify'
p1570
S'left'
S' butterfly wall'
tp1571
a(g1570
S'right'
S' tower wall'
p1572
tp1573
aa(lp1574
(S'verify'
S'at'
S' chair'
tp1575
aa(lp1576
(S'verify'
S'front'
S' easel'
tp1577
aa(lp1578
(S'travel'
S''
S''
tp1579
aa(lp1580
(S'verify'
S'at'
S' hatrack'
tp1581
aa(lp1582
(S'verify'
S'back'
S' sofa'
tp1583
aa(lp1584
(S'travel'
S''
S''
tp1585
aa(lp1586
(S'verify'
p1587
S'front'
S' lamp'
tp1588
a(g1587
S'front'
S' hatrack'
tp1589
aa(lp1590
(S'turn'
S''
S''
tp1591
aa(lp1592
(S'verify'
p1593
S'front'
S' wall'
tp1594
a(g1593
S'left'
S' wall'
tp1595
aa(lp1596
(S'verify'
p1597
S'front'
S' wall'
tp1598
a(g1597
S'right'
S' wall'
tp1599
a(g1597
S'back'
S' yellow hallway'
tp1600
a(g1597
S'left'
S' grass hallway'
tp1601
aa(lp1602
(S'verify'
S'front'
S' hatrack'
tp1603
aa(lp1604
(S'travel'
S'steps'
S' 1'
tp1605
aa(lp1606
(S'verify'
S'left'
S' gravel hallway'
tp1607
aa(lp1608
(S'travel'
S''
S''
tp1609
aa(lp1610
(g141
S''
S''
tp1611
aa(lp1612
(S'turn'
S''
S''
tp1613
aa(lp1614
(S'turn'
S''
S''
tp1615
aa(lp1616
(S'travel'
S'steps'
S' 1'
tp1617
aa(lp1618
(S'travel'
S''
S''
tp1619
aa(lp1620
(S'verify'
S'front'
S' yellow hallway'
tp1621
aa(lp1622
(S'travel'
S''
S''
tp1623
aa(lp1624
(S'turn'
S'right'
S''
tp1625
aa(lp1626
(S'turn'
S'left'
S''
tp1627
aa(lp1628
(S'turn'
S''
S''
tp1629
aa(lp1630
(S'travel'
S'steps'
S' 1'
tp1631
aa(lp1632
(S'turn'
S'left'
S''
tp1633
aa(lp1634
(S'turn'
S''
S''
tp1635
aa(lp1636
(g141
S''
S''
tp1637
aa(lp1638
(S'verify'
S'front'
S' gravel hallway'
tp1639
aa(lp1640
(S'travel'
S'steps'
S' 1'
tp1641
aa(lp1642
(S'verify'
p1643
S'front'
S' sofa'
tp1644
a(g1643
S'front'
S' hatrack'
tp1645
aa(lp1646
(S'verify'
S'front'
S' easel'
tp1647
aa(lp1648
(S'travel'
S''
S''
tp1649
aa(lp1650
(S'turn'
S''
S''
tp1651
aa(lp1652
(S'travel'
S'steps'
S' 1'
tp1653
aa(lp1654
(S'verify'
S'at'
S' sofa'
p1655
tp1656
aa(lp1657
(S'turn'
S'right'
S''
tp1658
aa(lp1659
(S'verify'
S'front'
S' chair'
p1660
tp1661
aa(lp1662
(S'verify'
S'front'
S' brick hallway'
tp1663
aa(lp1664
(S'travel'
S'steps'
S' 3'
tp1665
aa(lp1666
(S'travel'
S'steps'
S' 3'
tp1667
aa(lp1668
(S'turn'
S''
S''
tp1669
aa(lp1670
(S'travel'
S'steps'
S' 3'
tp1671
aa(lp1672
(S'travel'
S''
S''
tp1673
aa(lp1674
(S'travel'
S'steps'
S' 1'
tp1675
aa(lp1676
(S'turn'
S''
S''
tp1677
aa(lp1678
(S'verify'
S'back'
S' easel'
tp1679
aa(lp1680
(g141
S''
S''
tp1681
aa(lp1682
(S'travel'
S''
S''
tp1683
aa(lp1684
(S'verify'
p1685
S'front'
S' blue hallway'
tp1686
a(g1685
S'front'
S' chair'
tp1687
aa(lp1688
(S'turn'
S''
S''
tp1689
aa(lp1690
(S'verify'
S'front'
S' blue hallway'
tp1691
aa(lp1692
(S'travel'
S''
S''
tp1693
aa(lp1694
(S'turn'
S''
S''
tp1695
aa(lp1696
(S'turn'
S''
S''
tp1697
aa(lp1698
(S'verify'
p1699
S'front'
S' brick hallway'
tp1700
a(g1699
S'front'
S' lamp'
tp1701
a(g1699
S'front'
S' easel'
tp1702
aa(lp1703
(S'turn'
p1704
S'left'
p1705
S''
tp1706
aa(lp1707
(S'travel'
S''
S''
tp1708
aa(lp1709
(S'travel'
S'steps'
S' 1'
tp1710
aa(lp1711
(S'travel'
S''
S''
tp1712
aa(lp1713
(S'travel'
S''
S''
tp1714
aa(lp1715
(S'travel'
S''
S''
tp1716
aa(lp1717
(S'turn'
S'left'
S''
tp1718
aa(lp1719
(S'travel'
S''
S''
tp1720
aa(lp1721
(S'verify'
S'front'
S' easel'
tp1722
aa(lp1723
(S'verify'
S'front'
S' gravel hallway'
tp1724
aa(lp1725
(S'turn'
S''
S''
tp1726
aa(lp1727
(S'verify'
S'back'
S' chair'
tp1728
aa(lp1729
(S'turn'
S''
S''
tp1730
aa(lp1731
(g141
S''
S''
tp1732
aa(lp1733
(S'verify'
S'left'
S' grass hallway'
p1734
tp1735
aa(lp1736
(S'verify'
S'front'
S' chair'
tp1737
aa(lp1738
(S'turn'
S''
S''
tp1739
aa(lp1740
(S'turn'
S'left'
S''
tp1741
aa(lp1742
(S'turn'
S'right'
S''
tp1743
aa(lp1744
(S'travel'
S''
S''
tp1745
aa(lp1746
(S'travel'
S''
S''
tp1747
aa(lp1748
(S'travel'
S'steps'
S' 2'
tp1749
aa(lp1750
(g141
S''
S''
tp1751
aa(lp1752
(S'verify'
S'front'
S' flower hallway'
tp1753
aa(lp1754
(S'travel'
S'steps'
S' 3'
tp1755
aa(lp1756
(S'turn'
S''
S''
tp1757
aa(lp1758
(S'travel'
S''
S''
tp1759
aa(lp1760
(S'verify'
S'front'
S' chair'
tp1761
aa(lp1762
(S'turn'
S'right'
S''
tp1763
aa(lp1764
(S'verify'
S'front'
S' flower hallway'
tp1765
aa(lp1766
(S'turn'
S'right'
S''
tp1767
aa(lp1768
(S'verify'
S'front'
S' easel'
tp1769
aa(lp1770
(S'turn'
S''
S''
tp1771
aa(lp1772
(S'verify'
S'front'
S' wall'
tp1773
aa(lp1774
(S'travel'
S''
S''
tp1775
aa(lp1776
(g141
S''
S''
tp1777
aa(lp1778
(S'travel'
S'steps'
S' 2'
tp1779
aa(lp1780
(S'turn'
S'left'
S''
tp1781
aa(lp1782
(S'verify'
S'right'
S' blue hallway'
tp1783
aa(lp1784
(S'turn'
S'right'
S''
tp1785
aa(lp1786
(S'turn'
S''
S''
tp1787
aa(lp1788
(S'turn'
S'right'
S''
tp1789
aa(lp1790
(S'turn'
S''
S''
tp1791
aa(lp1792
(S'travel'
S'steps'
S' 2'
tp1793
aa(lp1794
(S'travel'
S'steps'
S' 6'
tp1795
aa(lp1796
(S'travel'
S''
S''
tp1797
aa(lp1798
(S'verify'
S'front'
S' chair'
tp1799
aa(lp1800
(S'turn'
S''
S''
tp1801
aa(lp1802
(S'verify'
p1803
S'at'
S' easel'
tp1804
a(g1803
S'front'
S' fish wall'
tp1805
a(g1803
S'front'
S' gravel hallway'
tp1806
aa(lp1807
(S'travel'
S'steps'
S' 2'
tp1808
aa(lp1809
(S'verify'
p1810
S'front'
S' gravel hallway'
tp1811
a(g1810
S'side'
S' yellow hallway'
tp1812
aa(lp1813
(S'travel'
S''
S''
tp1814
aa(lp1815
(S'turn'
S''
S''
tp1816
aa(lp1817
(S'travel'
S''
S''
tp1818
aa(lp1819
(S'turn'
S'left'
S''
tp1820
aa(lp1821
(S'travel'
S''
S''
tp1822
aa(lp1823
(S'travel'
S'steps'
S' 1'
tp1824
aa(lp1825
(S'verify'
S'at'
p1826
S' easel'
p1827
tp1828
aa(lp1829
(S'turn'
S''
S''
tp1830
aa(lp1831
(S'travel'
S''
S''
tp1832
aa(lp1833
(S'travel'
S''
S''
tp1834
aa(lp1835
(S'turn'
S''
S''
tp1836
aa(lp1837
(S'turn'
S'left'
S''
tp1838
aa(lp1839
(S'turn'
S''
S''
tp1840
aa(lp1841
(S'travel'
S'steps'
S' 2'
tp1842
aa(lp1843
(S'travel'
S''
S''
tp1844
aa(lp1845
(S'travel'
S''
S''
tp1846
aa(lp1847
(S'travel'
S'steps'
S' 1'
tp1848
aa(lp1849
(S'turn'
S'right'
S''
tp1850
aa(lp1851
(S'travel'
S'steps'
S' 1'
tp1852
aa(lp1853
(S'verify'
S'front'
S' brick hallway'
tp1854
aa(lp1855
(S'verify'
S'at'
S' hatrack'
tp1856
aa(lp1857
(S'travel'
S''
S''
tp1858
aa(lp1859
(S'travel'
S''
S''
tp1860
aa(lp1861
(S'verify'
p1862
S'front'
S' flower hallway'
tp1863
a(g1862
S'side'
S' brick hallway'
tp1864
aa(lp1865
(S'verify'
S'front'
S' blue hallway'
tp1866
aa(lp1867
(S'turn'
S''
S''
tp1868
aa(lp1869
(S'travel'
S'steps'
S' 5'
tp1870
aa(lp1871
(S'travel'
S''
S''
tp1872
aa(lp1873
(S'travel'
S''
S''
tp1874
aa(lp1875
(S'verify'
S'front'
S' gravel hallway'
tp1876
aa(lp1877
(S'travel'
S'steps'
S' 4'
tp1878
aa(lp1879
(S'travel'
S''
S''
tp1880
aa(lp1881
(S'travel'
S'steps'
S' 1'
tp1882
aa(lp1883
(S'turn'
S''
S''
tp1884
aa(lp1885
(S'travel'
S''
S''
tp1886
aa(lp1887
(S'verify'
S'front'
S' brick hallway'
tp1888
aa(lp1889
(S'turn'
S'right'
S''
tp1890
aa(lp1891
(S'travel'
S''
S''
tp1892
aa(lp1893
(S'turn'
S'right'
S''
tp1894
aa(lp1895
(S'turn'
S''
S''
tp1896
aa(lp1897
(S'verify'
S'side'
S' blue hallway'
tp1898
aa(lp1899
(S'travel'
S''
S''
tp1900
aa(lp1901
(S'travel'
S''
S''
tp1902
aa(lp1903
(S'turn'
S''
S''
tp1904
aa(lp1905
(S'turn'
S'right'
S''
tp1906
aa(lp1907
(S'travel'
S''
S''
tp1908
aa(lp1909
(S'travel'
S''
S''
tp1910
aa(lp1911
(S'travel'
S'steps'
S' 1'
tp1912
aa(lp1913
(S'travel'
S''
S''
tp1914
aa(lp1915
(S'turn'
S'left'
S''
tp1916
aa(lp1917
(S'travel'
S''
S''
tp1918
aa(lp1919
(S'turn'
S''
S''
tp1920
aa(lp1921
(S'travel'
S'steps'
S' 1'
tp1922
aa(lp1923
(S'verify'
S'front'
S' easel'
tp1924
aa(lp1925
(S'travel'
S''
S''
tp1926
aa(lp1927
(S'travel'
S'steps'
S' 1'
tp1928
aa(lp1929
(S'travel'
S'steps'
S' 1'
tp1930
aa(lp1931
(S'travel'
S''
S''
tp1932
aa(lp1933
(S'turn'
S''
S''
tp1934
aa(lp1935
(S'turn'
S'left'
S''
tp1936
aa(lp1937
(S'turn'
S''
S''
tp1938
aa(lp1939
(S'travel'
S''
S''
tp1940
aa(lp1941
(S'turn'
S'left'
S''
tp1942
aa(lp1943
(S'travel'
S''
S''
tp1944
aa(lp1945
(S'turn'
S''
S''
tp1946
aa(lp1947
(S'turn'
S''
S''
tp1948
aa(lp1949
(S'verify'
S'front'
S' wall'
tp1950
aa(lp1951
(S'verify'
S'front'
S' chair'
tp1952
aa(lp1953
(S'travel'
S''
S''
tp1954
aa(lp1955
(S'turn'
S''
S''
tp1956
aa(lp1957
(S'verify'
S'front'
S' gravel hallway'
p1958
tp1959
aa(lp1960
(S'travel'
S'steps'
S' 1'
tp1961
aa(lp1962
(S'turn'
S'right'
S''
tp1963
aa(lp1964
(S'turn'
S''
S''
tp1965
aa(lp1966
(S'turn'
S''
S''
tp1967
aa(lp1968
(S'turn'
S''
S''
tp1969
aa(lp1970
(S'turn'
S''
S''
tp1971
aa(lp1972
(S'verify'
p1973
S'front'
S' lamp'
tp1974
a(g1973
S'front'
S' hatrack'
tp1975
aa(lp1976
(S'turn'
S'left'
S''
tp1977
aa(lp1978
(S'travel'
S''
S''
tp1979
aa(lp1980
(S'turn'
S'right'
S''
tp1981
aa(lp1982
(S'verify'
p1983
S'front'
S' hatrack'
tp1984
a(g1983
S'front'
S' lamp'
tp1985
aa(lp1986
(S'travel'
S''
S''
tp1987
aa(lp1988
(S'verify'
S'front'
S' yellow hallway'
tp1989
aa(lp1990
(S'travel'
S'steps'
S' 1'
tp1991
aa(lp1992
(S'turn'
S''
S''
tp1993
aa(lp1994
(S'travel'
S''
S''
tp1995
aa(lp1996
(S'turn'
S'left'
S''
tp1997
aa(lp1998
(g141
S''
S''
tp1999
aa(lp2000
(S'travel'
S''
S''
tp2001
aa(lp2002
(S'travel'
S''
S''
tp2003
aa(lp2004
(S'verify'
S'front'
S' chair'
tp2005
aa(lp2006
(S'verify'
p2007
S'left'
S' concrete hallway'
tp2008
a(g2007
S'front'
S' lamp'
tp2009
aa(lp2010
(S'turn'
S'left'
S''
tp2011
aa(lp2012
(S'turn'
S''
S''
tp2013
aa(lp2014
(S'verify'
p2015
S'front'
S' butterfly wall'
tp2016
a(g2015
S'back'
S' tower wall'
p2017
tp2018
aa(lp2019
(S'verify'
S'front'
S' barstool'
tp2020
aa(lp2021
(S'travel'
S''
S''
tp2022
aa(lp2023
(S'verify'
S'front'
S' lamp'
tp2024
aa(lp2025
(S'verify'
p2026
S'front'
S' concrete hallway'
tp2027
a(g2026
S'front'
S' chair'
tp2028
aa(lp2029
(S'verify'
S'front'
S' gravel hallway'
tp2030
aa(lp2031
(S'turn'
S''
S''
tp2032
aa(lp2033
(S'travel'
S''
S''
tp2034
aa(lp2035
(S'travel'
S'steps'
S' 1'
tp2036
aa(lp2037
(S'verify'
p2038
S'front'
S' wall'
tp2039
a(g2038
S'left'
S' wall'
tp2040
aa(lp2041
(S'turn'
S''
S''
tp2042
aa(lp2043
(S'turn'
S''
S''
tp2044
aa(lp2045
(S'turn'
S'left'
S''
tp2046
aa(lp2047
(S'travel'
S'steps'
S' 1'
tp2048
aa(lp2049
(S'travel'
S''
S''
tp2050
aa(lp2051
(S'verify'
S'front'
S' flower hallway'
tp2052
aa(lp2053
(S'travel'
S''
S''
tp2054
aa(lp2055
(S'travel'
S'steps'
S' 1'
tp2056
aa(lp2057
(S'travel'
S''
S''
tp2058
aa(lp2059
(S'verify'
S'front'
S' yellow hallway'
tp2060
aa(lp2061
(S'verify'
S'front'
S' wall'
tp2062
aa(lp2063
(S'verify'
S'left'
S' sofa'
tp2064
aa(lp2065
(S'travel'
S''
S''
tp2066
aa(lp2067
(S'travel'
S''
S''
tp2068
aa(lp2069
(S'travel'
S''
S''
tp2070
aa(lp2071
(S'turn'
S''
S''
tp2072
aa(lp2073
(S'verify'
S'front'
S' yellow hallway'
tp2074
aa(lp2075
(S'turn'
S'left'
S''
tp2076
aa(lp2077
(S'verify'
S'front'
S' brick hallway'
tp2078
aa(lp2079
(S'turn'
S''
S''
tp2080
aa(lp2081
(S'turn'
S'left'
S''
tp2082
aa(lp2083
(S'turn'
S''
S''
tp2084
aa(lp2085
(S'turn'
S'right'
S''
tp2086
aa(lp2087
(S'travel'
S''
S''
tp2088
aa(lp2089
(S'travel'
S''
S''
tp2090
aa(lp2091
(S'verify'
p2092
S'front'
S' wood hallway'
tp2093
a(g2092
S'front'
S' butterfly wall'
tp2094
aa(lp2095
(S'verify'
S'back'
S' tower wall'
tp2096
aa(lp2097
(S'verify'
S'front'
S' blue hallway'
tp2098
aa(lp2099
(S'verify'
p2100
S'left'
S' barstool'
p2101
tp2102
a(g2100
S'side'
S' concrete hallway'
p2103
tp2104
aa(lp2105
(S'turn'
S''
S''
tp2106
aa(lp2107
(S'turn'
S''
S''
tp2108
aa(lp2109
(S'verify'
S'front'
S' wood hallway'
tp2110
aa(lp2111
(S'travel'
S''
S''
tp2112
aa(lp2113
(S'turn'
S''
S''
tp2114
aa(lp2115
(S'turn'
S''
S''
tp2116
aa(lp2117
(S'turn'
S''
S''
tp2118
aa(lp2119
(S'travel'
S''
S''
tp2120
aa(lp2121
(S'travel'
S'steps'
S' 1'
tp2122
aa(lp2123
(S'verify'
S'front'
S' gravel hallway'
tp2124
aa(lp2125
(S'verify'
S'front'
S' gravel hallway'
tp2126
aa(lp2127
(S'turn'
S''
S''
tp2128
aa(lp2129
(S'turn'
S''
S''
tp2130
aa(lp2131
(S'turn'
S''
S''
tp2132
aa(lp2133
(S'verify'
p2134
S'front'
S' blue hallway'
tp2135
a(g2134
S'front'
S' sofa'
tp2136
a(g2134
S'front'
S' barstool'
tp2137
a(g2134
S'front'
S' chair'
tp2138
aa(lp2139
(S'turn'
S''
S''
tp2140
aa(lp2141
(S'turn'
S''
S''
tp2142
aa(lp2143
(S'turn'
S'left'
S''
tp2144
aa(lp2145
(S'travel'
S''
S''
tp2146
aa(lp2147
(S'travel'
S''
S''
tp2148
aa(lp2149
(S'turn'
S''
S''
tp2150
aa(lp2151
(S'travel'
S''
S''
tp2152
aa(lp2153
(S'travel'
S''
S''
tp2154
aa(lp2155
(S'verify'
p2156
S'front'
S' brick hallway'
tp2157
a(g2156
S'front'
S' lamp'
tp2158
aa(lp2159
(S'travel'
S''
S''
tp2160
aa(lp2161
(S'travel'
S'steps'
S' 3'
tp2162
aa(lp2163
(S'travel'
S'steps'
S' 6'
p2164
tp2165
aa(lp2166
(S'turn'
S''
S''
tp2167
aa(lp2168
(S'travel'
S''
S''
tp2169
aa(lp2170
(S'verify'
S'front'
S' easel'
tp2171
aa(lp2172
(S'turn'
S''
S''
tp2173
aa(lp2174
(S'travel'
S''
S''
tp2175
aa(lp2176
(S'travel'
S''
S''
tp2177
aa(lp2178
(S'turn'
S'left'
S''
tp2179
aa(lp2180
(S'turn'
S''
S''
tp2181
aa(lp2182
(S'verify'
S'front'
S' chair'
tp2183
aa(lp2184
(S'verify'
p2185
S'front'
S' sofa'
tp2186
a(g2185
S'right'
S' chair'
p2187
tp2188
aa(lp2189
(S'verify'
S'side'
S' yellow hallway'
p2190
tp2191
aa(lp2192
(S'verify'
S'front'
S' blue hallway'
tp2193
aa(lp2194
(S'verify'
S'front'
S' blue hallway'
tp2195
aa(lp2196
(g141
S''
S''
tp2197
aa(lp2198
(S'verify'
S'front'
S' easel'
tp2199
aa(lp2200
(S'travel'
S''
S''
tp2201
aa(lp2202
(S'travel'
S''
S''
tp2203
aa(lp2204
(S'travel'
S''
S''
tp2205
aa(lp2206
(S'travel'
S''
S''
tp2207
aa(lp2208
(S'travel'
S''
S''
tp2209
aa(lp2210
(g141
S''
S''
tp2211
aa(lp2212
(S'turn'
S''
S''
tp2213
aa(lp2214
(g141
S''
S''
tp2215
aa(lp2216
(S'travel'
S''
S''
tp2217
aa(lp2218
(S'travel'
S''
S''
tp2219
aa(lp2220
(S'verify'
S'front'
S' sofa'
tp2221
aa(lp2222
(S'verify'
p2223
S'right'
S' chair'
tp2224
a(g2223
S'front'
S' sofa'
tp2225
aa(lp2226
(S'turn'
S''
S''
tp2227
aa(lp2228
(S'turn'
S''
S''
tp2229
aa(lp2230
(S'verify'
S'front'
S' lamp'
tp2231
aa(lp2232
(S'turn'
S''
S''
tp2233
aa(lp2234
(S'verify'
S'at'
S' chair'
tp2235
aa(lp2236
(S'travel'
S''
S''
tp2237
aa(lp2238
(S'turn'
S''
S''
tp2239
aa(lp2240
(S'turn'
S''
S''
tp2241
aa(lp2242
(S'verify'
S'side'
S' blue hallway'
tp2243
aa(lp2244
(S'verify'
S'right'
S' blue hallway'
tp2245
aa(lp2246
(S'travel'
S''
S''
tp2247
aa(lp2248
(S'travel'
S''
S''
tp2249
aa(lp2250
(S'verify'
S'front'
S' grass hallway'
tp2251
aa(lp2252
(S'travel'
S''
S''
tp2253
aa(lp2254
(S'verify'
S'side'
S' blue hallway'
tp2255
aa(lp2256
(S'verify'
S'side'
S' grass hallway'
p2257
tp2258
aa(lp2259
(S'travel'
S''
S''
tp2260
aa(lp2261
(S'travel'
S'steps'
S' 3'
tp2262
aa(lp2263
(S'verify'
p2264
S'front'
S' brick hallway'
tp2265
a(g2264
S'front'
S' lamp'
tp2266
aa(lp2267
(S'travel'
S''
S''
tp2268
aa(lp2269
(S'verify'
p2270
S'left'
S' blue hallway'
tp2271
a(g2270
S'right'
S' blue hallway'
p2272
tp2273
aa(lp2274
(S'travel'
S'steps'
S' 1'
tp2275
aa(lp2276
(S'turn'
S''
S''
tp2277
aa(lp2278
(S'turn'
S''
S''
tp2279
aa(lp2280
(S'travel'
S''
S''
tp2281
aa(lp2282
(S'verify'
S'front'
S' blue hallway'
tp2283
aa(lp2284
(g141
S''
S''
tp2285
aa(lp2286
(g141
S''
S''
tp2287
aa(lp2288
(S'verify'
S'front'
S' fish wall'
p2289
tp2290
aa(lp2291
(S'verify'
S'front'
S' chair'
tp2292
aa(lp2293
(S'turn'
S'left'
S''
tp2294
aa(lp2295
(S'travel'
S''
S''
tp2296
aa(lp2297
(S'travel'
S''
S''
tp2298
aa(lp2299
(S'travel'
S'steps'
S' 3'
tp2300
aa(lp2301
(S'verify'
p2302
S'front'
S' wall'
tp2303
a(g2302
S'left'
S' brick hallway'
tp2304
a(g2302
S'right'
S' brick hallway'
tp2305
aa(lp2306
(S'travel'
S'steps'
S' 2'
tp2307
aa(lp2308
(S'verify'
S'front'
S' grass hallway'
tp2309
aa(lp2310
(S'verify'
S'front'
S' lamp'
tp2311
aa(lp2312
(S'turn'
S'right'
S''
tp2313
aa(lp2314
(S'turn'
S''
S''
tp2315
aa(lp2316
(S'turn'
S''
S''
tp2317
aa(lp2318
(S'turn'
S'left'
S''
tp2319
aa(lp2320
(S'turn'
S'left'
S''
tp2321
aa(lp2322
(S'travel'
S''
S''
tp2323
aa(lp2324
(S'travel'
S''
S''
tp2325
aa(lp2326
(S'travel'
S''
S''
tp2327
aa(lp2328
(S'travel'
S''
S''
tp2329
aa(lp2330
(S'travel'
S''
S''
tp2331
aa(lp2332
(S'turn'
S''
S''
tp2333
aa(lp2334
(S'verify'
S'front'
S' chair'
tp2335
aa(lp2336
(S'travel'
S''
S''
tp2337
aa(lp2338
(S'travel'
S'steps'
S' 1'
tp2339
aa(lp2340
(S'verify'
S'front'
S' easel'
tp2341
aa(lp2342
(S'travel'
S''
S''
tp2343
aa(lp2344
(S'turn'
S'right'
S''
tp2345
aa(lp2346
(S'travel'
S''
S''
tp2347
aa(lp2348
(S'verify'
S'front'
S' tower wall'
tp2349
aa(lp2350
(S'travel'
S''
S''
tp2351
aa(lp2352
(S'turn'
S''
S''
tp2353
aa(lp2354
(S'verify'
S'front'
S' blue hallway'
tp2355
aa(lp2356
(S'travel'
S''
S''
tp2357
aa(lp2358
(S'verify'
S'right'
S' yellow hallway'
tp2359
aa(lp2360
(S'turn'
S''
S''
tp2361
aa(lp2362
(S'turn'
S''
S''
tp2363
aa(lp2364
(S'travel'
S''
S''
tp2365
aa(lp2366
(S'travel'
S''
S''
tp2367
aa(lp2368
(S'turn'
S''
S''
tp2369
aa(lp2370
(S'turn'
S'left'
S''
tp2371
aa(lp2372
(S'travel'
S''
S''
tp2373
aa(lp2374
(S'turn'
S'right'
S''
tp2375
aa(lp2376
(S'travel'
S''
S''
tp2377
aa(lp2378
(S'travel'
S''
S''
tp2379
aa(lp2380
(S'travel'
S''
S''
tp2381
aa(lp2382
(S'travel'
S''
S''
tp2383
aa(lp2384
(S'turn'
S'right'
S''
tp2385
aa(lp2386
(S'travel'
S''
S''
tp2387
aa(lp2388
(S'travel'
S''
S''
tp2389
aa(lp2390
(S'turn'
S'left'
S''
tp2391
aa(lp2392
(S'travel'
S''
S''
tp2393
aa(lp2394
(S'travel'
S''
S''
tp2395
aa(lp2396
(S'verify'
S'front'
S' hatrack'
tp2397
aa(lp2398
(S'turn'
S''
S''
tp2399
aa(lp2400
(S'verify'
S'front'
S' blue hallway'
tp2401
aa(lp2402
(S'verify'
S'front'
S' easel'
tp2403
aa(lp2404
(S'turn'
S''
S''
tp2405
aa(lp2406
(S'turn'
S''
S''
tp2407
aa(lp2408
(g141
S''
S''
tp2409
aa(lp2410
(S'verify'
S'front'
S' blue hallway'
tp2411
aa(lp2412
(S'turn'
S'right'
S''
tp2413
aa(lp2414
(S'verify'
p2415
S'front'
S' wood hallway'
tp2416
a(g2415
S'back'
S' wood hallway'
tp2417
a(g2415
S'left'
S' concrete hallway'
tp2418
aa(lp2419
(S'travel'
S''
S''
tp2420
aa(lp2421
(S'turn'
S''
S''
tp2422
aa(lp2423
(S'travel'
S''
S''
tp2424
aa(lp2425
(S'verify'
S'left'
S' butterfly wall'
tp2426
aa(lp2427
(S'travel'
S'steps'
S' 3'
tp2428
aa(lp2429
(S'verify'
S'at'
S' easel'
tp2430
aa(lp2431
(S'verify'
S'front'
S' brick hallway'
tp2432
aa(lp2433
(S'verify'
S'at'
S' 3-intersection'
tp2434
aa(lp2435
(S'turn'
S''
S''
tp2436
aa(lp2437
(S'verify'
S'front'
S' blue hallway'
tp2438
aa(lp2439
(S'travel'
S''
S''
tp2440
aa(lp2441
(S'travel'
S''
S''
tp2442
aa(lp2443
(S'travel'
S''
S''
tp2444
aa(lp2445
(S'travel'
S'steps'
S' 2'
tp2446
aa(lp2447
(S'turn'
S'right'
S''
tp2448
aa(lp2449
(S'turn'
S''
S''
tp2450
aa(lp2451
(S'turn'
S''
S''
tp2452
aa(lp2453
(S'travel'
S''
S''
tp2454
aa(lp2455
(S'travel'
S'steps'
S' 4'
tp2456
aa(lp2457
(S'turn'
S''
S''
tp2458
aa(lp2459
(S'verify'
S'at'
S' hatrack'
tp2460
aa(lp2461
(S'travel'
S''
S''
tp2462
aa(lp2463
(S'verify'
p2464
S'front'
S' easel'
tp2465
a(g2464
S'left'
S' chair'
tp2466
aa(lp2467
(g141
S''
S''
tp2468
aa(lp2469
(S'travel'
S'steps'
S' 5'
p2470
tp2471
aa(lp2472
(S'travel'
S'steps'
S' 2'
tp2473
aa(lp2474
(S'travel'
S''
S''
tp2475
aa(lp2476
(S'turn'
S''
S''
tp2477
aa(lp2478
(S'verify'
S'left'
S' sofa'
tp2479
aa(lp2480
(S'verify'
S'front'
S' brick hallway'
tp2481
aa(lp2482
(S'travel'
S''
S''
tp2483
aa(lp2484
(S'travel'
S''
S''
tp2485
aa(lp2486
(S'turn'
S''
S''
tp2487
aa(lp2488
(S'travel'
S'steps'
S' 3'
tp2489
aa(lp2490
(S'verify'
p2491
S'front'
S' brick hallway'
p2492
tp2493
a(g2491
S'front'
S' lamp'
p2494
tp2495
aa(lp2496
(S'turn'
S''
S''
tp2497
aa(lp2498
(S'verify'
S'front'
S' blue hallway'
tp2499
aa(lp2500
(S'travel'
S''
S''
tp2501
aa(lp2502
(S'turn'
S'right'
S''
tp2503
aa(lp2504
(S'travel'
S''
S''
tp2505
aa(lp2506
(S'turn'
S'right'
S''
tp2507
aa(lp2508
(S'travel'
S''
S''
tp2509
aa(lp2510
(S'travel'
S''
S''
tp2511
aa(lp2512
(S'turn'
S''
S''
tp2513
aa(lp2514
(S'turn'
S'left'
S''
tp2515
aa(lp2516
(S'travel'
S'steps'
S' 1'
tp2517
aa(lp2518
(S'travel'
S''
S''
tp2519
aa(lp2520
(S'turn'
S''
S''
tp2521
aa(lp2522
(S'travel'
S''
S''
tp2523
aa(lp2524
(S'travel'
S''
S''
tp2525
aa(lp2526
(S'verify'
S'front'
S' barstool'
tp2527
aa(lp2528
(S'turn'
S'left'
S''
tp2529
aa(lp2530
(S'turn'
S''
S''
tp2531
aa(lp2532
(S'turn'
S''
S''
tp2533
aa(lp2534
(S'verify'
S'front'
S' hatrack'
tp2535
aa(lp2536
(S'verify'
S'front'
S' brick hallway'
tp2537
aa(lp2538
(S'travel'
S''
S''
tp2539
aa(lp2540
(S'verify'
S'at'
S' chair'
tp2541
aa(lp2542
(S'travel'
p2543
S''
S''
tp2544
aa(lp2545
(S'verify'
S'at'
S' easel'
tp2546
aa(lp2547
(S'turn'
S'left'
S''
tp2548
aa(lp2549
(S'turn'
S'right'
S''
tp2550
aa(lp2551
(S'travel'
S''
S''
tp2552
aa(lp2553
(S'verify'
p2554
S'front'
S' wall'
tp2555
a(g2554
S'left'
S' wall'
tp2556
a(g2554
S'right'
S' wall'
tp2557
a(g2554
S'back'
S' tower wall'
tp2558
aa(lp2559
(S'travel'
S'steps'
S' 1'
tp2560
aa(lp2561
(S'verify'
S'at'
S' hatrack'
tp2562
aa(lp2563
(S'travel'
S''
S''
tp2564
aa(lp2565
(S'travel'
S''
S''
tp2566
aa(lp2567
(S'verify'
S'right'
S' concrete hallway'
p2568
tp2569
aa(lp2570
(S'travel'
S''
S''
tp2571
aa(lp2572
(S'verify'
S'at'
S' easel'
tp2573
aa(lp2574
(S'travel'
S'steps'
S' 1'
tp2575
aa(lp2576
(S'turn'
S'left'
S''
tp2577
aa(lp2578
(S'travel'
S''
S''
tp2579
aa(lp2580
(S'turn'
S''
S''
tp2581
aa(lp2582
(S'turn'
S''
S''
tp2583
aa(lp2584
(S'turn'
S''
S''
tp2585
aa(lp2586
(S'turn'
S''
S''
tp2587
aa(lp2588
(S'turn'
S''
S''
tp2589
aa(lp2590
(S'travel'
S'steps'
S' 1'
tp2591
aa(lp2592
(S'verify'
S'front'
S' easel'
tp2593
aa(lp2594
(S'travel'
S''
S''
tp2595
aa(lp2596
(S'travel'
S'steps'
p2597
S' 1'
p2598
tp2599
aa(lp2600
(S'turn'
S'left'
S''
tp2601
aa(lp2602
(S'travel'
S''
S''
tp2603
aa(lp2604
(S'travel'
S'steps'
S' 2'
tp2605
aa(lp2606
(g141
S''
S''
tp2607
aa(lp2608
(S'travel'
S''
S''
tp2609
aa(lp2610
(S'verify'
S'side'
S' brick hallway'
tp2611
aa(lp2612
(S'turn'
S'left'
S''
tp2613
aa(lp2614
(S'verify'
S'front'
S' easel'
tp2615
aa(lp2616
(g141
S''
S''
tp2617
aa(lp2618
(S'turn'
S''
S''
tp2619
aa(lp2620
(S'turn'
S''
S''
tp2621
aa(lp2622
(S'verify'
p2623
S'at'
S' chair'
tp2624
a(g2623
S'front'
S' chair'
tp2625
aa(lp2626
(S'turn'
S'left'
S''
tp2627
aa(lp2628
(S'turn'
S''
S''
tp2629
aa(lp2630
(S'travel'
S''
S''
tp2631
aa(lp2632
(S'turn'
S'left'
S''
tp2633
aa(lp2634
(S'travel'
S'steps'
S' 1'
tp2635
aa(lp2636
(S'verify'
S'side'
S' concrete hallway'
tp2637
aa(lp2638
(S'travel'
S''
S''
tp2639
aa(lp2640
(S'verify'
S'front'
S' wood hallway'
tp2641
aa(lp2642
(S'turn'
S''
S''
tp2643
aa(lp2644
(S'verify'
p2645
S'front'
S' blue hallway'
tp2646
a(g2645
S'front'
S' chair'
tp2647
aa(lp2648
(S'turn'
S'left'
S''
tp2649
aa(lp2650
(S'verify'
S'front'
S' chair'
tp2651
aa(lp2652
(S'verify'
S'front'
S' flower hallway'
tp2653
aa(lp2654
(S'travel'
S''
S''
tp2655
aa(lp2656
(S'travel'
S''
S''
tp2657
aa(lp2658
(g141
S''
S''
tp2659
aa(lp2660
(S'travel'
S''
S''
tp2661
aa(lp2662
(S'verify'
S'left'
S' sofa'
tp2663
aa(lp2664
(S'verify'
S'front'
S' sofa'
tp2665
aa(lp2666
(g141
S''
S''
tp2667
aa(lp2668
(S'turn'
S''
S''
tp2669
aa(lp2670
(S'verify'
S'front'
S' gravel hallway'
tp2671
aa(lp2672
(S'travel'
S''
S''
tp2673
aa(lp2674
(S'turn'
S''
S''
tp2675
aa(lp2676
(S'turn'
S'left'
S''
tp2677
aa(lp2678
(S'turn'
S'left'
S''
tp2679
aa(lp2680
(S'turn'
S'left'
S''
tp2681
aa(lp2682
(S'turn'
S''
S''
tp2683
aa(lp2684
(S'travel'
S''
S''
tp2685
aa(lp2686
(S'travel'
S''
S''
tp2687
aa(lp2688
(S'turn'
S'left'
S''
tp2689
aa(lp2690
(S'turn'
S''
S''
tp2691
aa(lp2692
(S'travel'
S'steps'
S' 1'
tp2693
aa(lp2694
(S'turn'
S'right'
S''
tp2695
aa(lp2696
(S'turn'
S''
S''
tp2697
aa(lp2698
(S'travel'
S''
S''
tp2699
aa(lp2700
(S'travel'
S'steps'
S' 1'
tp2701
aa(lp2702
(S'verify'
p2703
S'front'
S' brick hallway'
tp2704
a(g2703
S'front'
S' hatrack'
tp2705
a(g2703
S'front'
S' lamp'
tp2706
aa(lp2707
(S'turn'
S''
S''
tp2708
aa(lp2709
(S'travel'
S'steps'
S' 2'
tp2710
aa(lp2711
(S'verify'
S'front'
S' blue hallway'
tp2712
aa(lp2713
(S'turn'
S''
S''
tp2714
aa(lp2715
(S'verify'
S'front'
S' grass hallway'
tp2716
aa(lp2717
(S'turn'
S''
S''
tp2718
aa(lp2719
(S'travel'
S''
S''
tp2720
aa(lp2721
(S'turn'
S''
S''
tp2722
aa(lp2723
(S'verify'
S'front'
S' chair'
tp2724
aa(lp2725
(S'verify'
S'front'
S' easel'
tp2726
aa(lp2727
(S'verify'
S'front'
S' hatrack'
tp2728
aa(lp2729
(S'travel'
S'steps'
S' 1'
tp2730
aa(lp2731
(S'turn'
S''
S''
tp2732
aa(lp2733
(S'turn'
S'right'
S''
tp2734
aa(lp2735
(S'travel'
S'steps'
S' 4'
tp2736
aa(lp2737
(S'turn'
S''
S''
tp2738
aa(lp2739
(S'turn'
S''
S''
tp2740
aa(lp2741
(S'verify'
p2742
S'right'
S' brick hallway'
tp2743
a(g2742
S'left'
S' brick hallway'
tp2744
aa(lp2745
(S'turn'
S''
S''
tp2746
aa(lp2747
(S'turn'
S'left'
S''
tp2748
aa(lp2749
(S'travel'
S'steps'
S' 1'
tp2750
aa(lp2751
(S'turn'
S'right'
S''
tp2752
aa(lp2753
(g141
S''
S''
tp2754
aa(lp2755
(S'turn'
S''
S''
tp2756
aa(lp2757
(S'verify'
S'front'
S' easel'
tp2758
aa(lp2759
(S'turn'
S'right'
S''
tp2760
aa(lp2761
(S'turn'
S''
S''
tp2762
aa(lp2763
(S'verify'
S'side'
S' flower hallway'
p2764
tp2765
aa(lp2766
(S'verify'
S'front'
S' wood hallway'
tp2767
aa(lp2768
(S'verify'
p2769
S'left'
S' flower hallway'
p2770
tp2771
a(g2769
S'right'
p2772
S' flower hallway'
p2773
tp2774
aa(lp2775
(S'turn'
S''
S''
tp2776
aa(lp2777
(S'turn'
S''
S''
tp2778
aa(lp2779
(S'travel'
S'steps'
S' 2'
tp2780
aa(lp2781
(S'travel'
S'steps'
S' 3'
tp2782
aa(lp2783
(S'turn'
S'left'
S''
tp2784
aa(lp2785
(S'turn'
S''
S''
tp2786
aa(lp2787
(S'travel'
S''
S''
tp2788
aa(lp2789
(S'travel'
S'steps'
S' 1'
tp2790
aa(lp2791
(S'travel'
S''
S''
tp2792
aa(lp2793
(S'turn'
S''
S''
tp2794
aa(lp2795
(S'travel'
S''
S''
tp2796
aa(lp2797
(S'verify'
p2798
S'front'
S' brick hallway'
tp2799
a(g2798
S'back'
S' lamp'
tp2800
aa(lp2801
(S'travel'
S'steps'
S' 3'
tp2802
aa(lp2803
(S'travel'
S''
S''
tp2804
aa(lp2805
(S'verify'
S'front'
S' sofa'
tp2806
aa(lp2807
(S'turn'
S''
S''
tp2808
aa(lp2809
(S'travel'
S''
S''
tp2810
aa(lp2811
(S'verify'
p2812
S'front'
S' blue hallway'
tp2813
a(g2812
S'front'
S' sofa'
tp2814
aa(lp2815
(S'turn'
S''
S''
tp2816
aa(lp2817
(S'travel'
S'steps'
S' 2'
tp2818
aa(lp2819
(S'verify'
S'front'
S' lamp'
tp2820
aa(lp2821
(S'travel'
S''
S''
tp2822
aa(lp2823
(S'turn'
S'right'
S''
tp2824
aa(lp2825
(S'verify'
S'front'
S' lamp'
tp2826
aa(lp2827
(S'travel'
S''
S''
tp2828
aa(lp2829
(S'travel'
S''
S''
tp2830
aa(lp2831
(S'verify'
S'front'
S' wood hallway'
tp2832
aa(lp2833
(S'travel'
S'steps'
S' 2'
tp2834
aa(lp2835
(S'travel'
S''
S''
tp2836
aa(lp2837
(S'verify'
S'side'
S' concrete hallway'
tp2838
aa(lp2839
(S'verify'
p2840
S'at'
S' 3-intersection'
tp2841
a(g2840
S'side'
S' concrete hallway'
tp2842
aa(lp2843
(S'verify'
S'back'
S' tower wall'
tp2844
aa(lp2845
(S'turn'
S''
S''
tp2846
aa(lp2847
(S'travel'
S''
S''
tp2848
aa(lp2849
(S'travel'
S''
S''
tp2850
aa(lp2851
(S'travel'
S''
S''
tp2852
aa(lp2853
(S'travel'
S''
S''
tp2854
aa(lp2855
(S'turn'
S''
S''
tp2856
aa(lp2857
(S'turn'
S'right'
S''
tp2858
aa(lp2859
(S'turn'
S''
S''
tp2860
aa(lp2861
(g141
S''
S''
tp2862
aa(lp2863
(S'travel'
S''
S''
tp2864
aa(lp2865
(S'verify'
S'front'
S' chair'
tp2866
aa(lp2867
(S'travel'
S'steps'
S' 1'
tp2868
aa(lp2869
(S'travel'
S''
S''
tp2870
aa(lp2871
(S'travel'
S''
S''
tp2872
aa(lp2873
(S'travel'
S''
S''
tp2874
aa(lp2875
(S'travel'
S'steps'
S' 1'
tp2876
aa(lp2877
(g141
S''
S''
tp2878
aa(lp2879
(S'turn'
S''
S''
tp2880
aa(lp2881
(S'travel'
S'steps'
S' 2'
tp2882
aa(lp2883
(S'verify'
S'front'
S' sofa'
tp2884
aa(lp2885
(S'travel'
S''
S''
tp2886
aa(lp2887
(S'travel'
S''
S''
tp2888
aa(lp2889
(S'verify'
S'right'
S' wall'
p2890
tp2891
aa(lp2892
(S'verify'
S'side'
S' gravel hallway'
p2893
tp2894
aa(lp2895
(S'turn'
S''
S''
tp2896
aa(lp2897
(S'turn'
S'left'
S''
tp2898
aa(lp2899
(S'verify'
S'at'
S' hatrack'
tp2900
aa(lp2901
(S'verify'
S'front'
S' gravel hallway'
tp2902
aa(lp2903
(S'travel'
S''
S''
tp2904
aa(lp2905
(S'verify'
p2906
S'front'
S' chair'
tp2907
a(g2906
S'front'
S' wood hallway'
tp2908
aa(lp2909
(S'travel'
S''
S''
tp2910
aa(lp2911
(S'travel'
S''
S''
tp2912
aa(lp2913
(S'travel'
S''
S''
tp2914
aa(lp2915
(S'travel'
S''
S''
tp2916
aa(lp2917
(S'turn'
S''
S''
tp2918
aa(lp2919
(S'verify'
S'at'
S' lamp'
tp2920
aa(lp2921
(S'travel'
S'steps'
S' 1'
tp2922
aa(lp2923
(S'verify'
S'right'
S' hatrack'
p2924
tp2925
aa(lp2926
(S'turn'
S''
S''
tp2927
aa(lp2928
(S'travel'
S''
S''
tp2929
aa(lp2930
(S'verify'
S'front'
S' gravel hallway'
tp2931
aa(lp2932
(S'travel'
S''
S''
tp2933
aa(lp2934
(S'travel'
S''
S''
tp2935
aa(lp2936
(S'travel'
S''
S''
tp2937
aa(lp2938
(S'verify'
S'at'
S' barstool'
tp2939
aa(lp2940
(S'verify'
S'back'
S' easel'
tp2941
aa(lp2942
(S'turn'
S''
S''
tp2943
aa(lp2944
(S'verify'
S'side'
p2945
S' blue hallway'
p2946
tp2947
aa(lp2948
(S'verify'
S'side'
S' grass hallway'
tp2949
aa(lp2950
(S'verify'
S'front'
S' wall'
tp2951
aa(lp2952
(S'travel'
S''
S''
tp2953
aa(lp2954
(S'turn'
S'right'
S''
tp2955
aa(lp2956
(g141
S''
S''
tp2957
aa(lp2958
(S'travel'
S''
S''
tp2959
aa(lp2960
(S'turn'
S'right'
S''
tp2961
aa(lp2962
(S'turn'
S''
S''
tp2963
aa(lp2964
(S'travel'
S''
S''
tp2965
aa(lp2966
(S'turn'
S''
S''
tp2967
aa(lp2968
(g141
S''
S''
tp2969
aa(lp2970
(S'travel'
S''
S''
tp2971
aa(lp2972
(S'turn'
S'right'
S''
tp2973
aa(lp2974
(S'verify'
S'front'
S' gravel hallway'
tp2975
aa(lp2976
(S'turn'
S''
S''
tp2977
aa(lp2978
(S'verify'
p2979
S'at'
S' chair'
tp2980
a(g2979
S'front'
S' wall'
tp2981
aa(lp2982
(S'travel'
S''
S''
tp2983
aa(lp2984
(S'turn'
S''
S''
tp2985
aa(lp2986
(S'verify'
S'front'
S' wood hallway'
tp2987
aa(lp2988
(S'travel'
S''
S''
tp2989
aa(lp2990
(S'turn'
S'right'
S''
tp2991
aa(lp2992
(S'turn'
S''
S''
tp2993
aa(lp2994
(S'turn'
S'left'
S''
tp2995
aa(lp2996
(S'travel'
S''
S''
tp2997
aa(lp2998
(S'travel'
S''
S''
tp2999
aa(lp3000
(S'travel'
S''
S''
tp3001
aa(lp3002
(S'travel'
S''
S''
tp3003
aa(lp3004
(S'travel'
S''
S''
tp3005
aa(lp3006
(S'turn'
S'right'
S''
tp3007
aa(lp3008
(S'verify'
S'front'
S' fish wall'
tp3009
aa(lp3010
(S'travel'
S''
S''
tp3011
aa(lp3012
(S'travel'
S''
S''
tp3013
aa(lp3014
(S'travel'
S'steps'
S' 1'
tp3015
aa(lp3016
(S'travel'
S''
S''
tp3017
aa(lp3018
(S'verify'
p3019
S'front'
S' wood hallway'
tp3020
a(g3019
S'back'
S' wood hallway'
p3021
tp3022
aa(lp3023
(S'turn'
S''
S''
tp3024
aa(lp3025
(S'verify'
S'right'
S' grass hallway'
p3026
tp3027
aa(lp3028
(S'turn'
S'left'
S''
tp3029
aa(lp3030
(S'travel'
p3031
S''
S''
tp3032
aa(lp3033
(S'travel'
S''
S''
tp3034
aa(lp3035
(S'turn'
S''
S''
tp3036
aa(lp3037
(S'turn'
S''
S''
tp3038
aa(lp3039
(S'travel'
S''
S''
tp3040
aa(lp3041
(S'travel'
S''
S''
tp3042
aa(lp3043
(S'travel'
S''
S''
tp3044
aa(lp3045
(S'turn'
S'right'
S''
tp3046
aa(lp3047
(S'turn'
S'right'
S''
tp3048
aa(lp3049
(S'verify'
p3050
S'right'
S' brick hallway'
tp3051
a(g3050
S'left'
S' brick hallway'
tp3052
a(g3050
S'front'
S' chair'
tp3053
aa(lp3054
(S'travel'
S'steps'
S' 1'
tp3055
aa(lp3056
(S'verify'
S'front'
S' sofa'
p3057
tp3058
aa(lp3059
(S'turn'
S'right'
S''
tp3060
aa(lp3061
(S'verify'
S'front'
S' hatrack'
tp3062
aa(lp3063
(S'travel'
S'steps'
S' 2'
tp3064
aa(lp3065
(S'verify'
S'front'
S' brick hallway'
tp3066
aa(lp3067
(S'verify'
S'left'
S' easel'
tp3068
aa(lp3069
(S'turn'
S'left'
S''
tp3070
aa(lp3071
(S'verify'
S'at'
S' chair'
tp3072
aa(lp3073
(g141
S''
S''
tp3074
aa(lp3075
(S'turn'
S''
S''
tp3076
aa(lp3077
(S'turn'
S''
S''
tp3078
aa(lp3079
(S'turn'
S'left'
S''
tp3080
aa(lp3081
(S'turn'
S''
S''
tp3082
aa(lp3083
(S'travel'
S'steps'
S' 1'
tp3084
aa(lp3085
(S'turn'
S''
S''
tp3086
aa(lp3087
(S'verify'
S'front'
S' blue hallway'
tp3088
aa(lp3089
(S'travel'
S''
S''
tp3090
aa(lp3091
(S'verify'
p3092
S'front'
S' flower hallway'
tp3093
a(g3092
S'front'
S' hatrack'
tp3094
aa(lp3095
(S'travel'
S''
S''
tp3096
aa(lp3097
(S'travel'
S'steps'
S' 1'
tp3098
aa(lp3099
(S'travel'
S'steps'
S' 5'
tp3100
aa(lp3101
(S'verify'
S'at'
S' easel'
tp3102
aa(lp3103
(S'travel'
S''
S''
tp3104
aa(lp3105
(S'verify'
p3106
S'right'
S' concrete hallway'
tp3107
a(g3106
S'front'
S' barstool'
tp3108
aa.