(lp1
(lp2
(lp3
I21
aI17
aI-1
aa(lp4
I21
aI17
aI270
aaa(lp5
(lp6
I24
aI19
aI90
aa(lp7
I24
aI19
aI180
aaa(lp8
(lp9
I23
aI16
aI-1
aa(lp10
I23
aI16
aI270
aaa(lp11
(lp12
I1
aI6
aI-1
aa(lp13
I1
aI6
aI0
aaa(lp14
(lp15
I22
aI17
aI90
aa(lp16
I23
aI17
aI90
aa(lp17
I23
aI17
aI180
aaa(lp18
(lp19
I1
aI9
aI-1
aa(lp20
I1
aI9
aI0
aaa(lp21
(lp22
I19
aI24
aI270
aa(lp23
I19
aI24
aI0
aaa(lp24
(lp25
I3
aI8
aI0
aa(lp26
I3
aI7
aI0
aaa(lp27
(lp28
I1
aI9
aI90
aaa(lp29
(lp30
I18
aI17
aI270
aa(lp31
I17
aI17
aI270
aaa(lp32
(lp33
I19
aI24
aI0
aa(lp34
I19
aI23
aI0
aaa(lp35
(lp36
I0
aI6
aI0
aa(lp37
I0
aI6
aI90
aaa(lp38
(lp39
I24
aI21
aI-1
aa(lp40
I24
aI21
aI270
aa(lp41
I23
aI21
aI270
aa(lp42
I22
aI21
aI270
aa(lp43
I21
aI21
aI270
aaa(lp44
(lp45
I23
aI18
aI0
aaa(lp46
(lp47
I23
aI17
aI180
aa(lp48
I23
aI18
aI180
aa(lp49
I23
aI19
aI180
aa(lp50
I23
aI20
aI180
aaa(lp51
(lp52
I22
aI23
aI90
aaa(lp53
(lp54
I22
aI17
aI180
aa(lp55
I22
aI17
aI270
aaa(lp56
(lp57
I23
aI21
aI270
aa(lp58
I23
aI21
aI180
aa(lp59
I23
aI22
aI180
aa(lp60
I23
aI23
aI180
aaa(lp61
(lp62
I17
aI17
aI270
aa(lp63
I16
aI17
aI270
aaa(lp64
(lp65
I21
aI23
aI-1
aa(lp66
I21
aI23
aI90
aa(lp67
I22
aI23
aI90
aa(lp68
I23
aI23
aI90
aaa(lp69
(lp70
I15
aI17
aI0
aa(lp71
I15
aI17
aI90
aaa(lp72
(lp73
I17
aI18
aI270
aa(lp74
I16
aI18
aI270
aaa(lp75
(lp76
I22
aI23
aI90
aa(lp77
I23
aI23
aI90
aa(lp78
I23
aI23
aI0
aa(lp79
I23
aI22
aI0
aa(lp80
I23
aI21
aI0
aa(lp81
I23
aI20
aI0
aa(lp82
I23
aI19
aI0
aaa(lp83
(lp84
I20
aI17
aI180
aa(lp85
I20
aI18
aI180
aaa(lp86
(lp87
I1
aI9
aI180
aaa(lp88
(lp89
I20
aI16
aI90
aa(lp90
I20
aI16
aI180
aaa(lp91
(lp92
I19
aI18
aI180
aa(lp93
I19
aI19
aI180
aaa(lp94
(lp95
I0
aI11
aI270
aa(lp96
I0
aI11
aI0
aa(lp97
I0
aI10
aI0
aa(lp98
I0
aI9
aI0
aaa(lp99
(lp100
I18
aI19
aI-1
aa(lp101
I18
aI19
aI90
aa(lp102
I19
aI19
aI90
aa(lp103
I19
aI19
aI0
aa(lp104
I19
aI18
aI0
aa(lp105
I19
aI18
aI90
aaa(lp106
(lp107
I2
aI8
aI0
aa(lp108
I2
aI8
aI90
aaa(lp109
(lp110
I21
aI24
aI90
aa(lp111
I21
aI24
aI0
aa(lp112
I21
aI23
aI0
aa(lp113
I21
aI22
aI0
aa(lp114
I21
aI21
aI0
aaa(lp115
(lp116
I22
aI23
aI-1
aa(lp117
I22
aI23
aI90
aa(lp118
I23
aI23
aI90
aa(lp119
I23
aI23
aI0
aa(lp120
I23
aI22
aI0
aa(lp121
I23
aI21
aI0
aa(lp122
I23
aI20
aI0
aa(lp123
I23
aI19
aI0
aaa(lp124
(lp125
I21
aI23
aI180
aa(lp126
I21
aI23
aI90
aaa(lp127
(lp128
I19
aI24
aI0
aa(lp129
I19
aI23
aI0
aaa(lp130
(lp131
I23
aI21
aI180
aa(lp132
I23
aI22
aI180
aa(lp133
I23
aI23
aI180
aaa(lp134
(lp135
I19
aI18
aI270
aa(lp136
I18
aI18
aI270
aa(lp137
I17
aI18
aI270
aa(lp138
I16
aI18
aI270
aa(lp139
I15
aI18
aI270
aa(lp140
I15
aI18
aI180
aaa(lp141
(lp142
I0
aI5
aI90
aa(lp143
I1
aI5
aI90
aa(lp144
I2
aI5
aI90
aa(lp145
I3
aI5
aI90
aaa(lp146
(lp147
I22
aI23
aI90
aa(lp148
I23
aI23
aI90
aaa(lp149
(lp150
I1
aI9
aI-1
aa(lp151
I1
aI9
aI270
aa(lp152
I0
aI9
aI270
aa(lp153
I0
aI9
aI0
aa(lp154
I0
aI8
aI0
aa(lp155
I0
aI7
aI0
aa(lp156
I0
aI6
aI0
aa(lp157
I0
aI6
aI90
aa(lp158
I1
aI6
aI90
aaa(lp159
(lp160
I2
aI7
aI0
aa(lp161
I2
aI6
aI0
aa(lp162
I2
aI5
aI0
aaa(lp163
(lp164
I23
aI16
aI270
aa(lp165
I22
aI16
aI270
aaa(lp166
(lp167
I16
aI18
aI270
aa(lp168
I15
aI18
aI270
aa(lp169
I15
aI18
aI180
aa(lp170
I15
aI19
aI180
aa(lp171
I15
aI20
aI180
aaa(lp172
(lp173
I0
aI11
aI90
aa(lp174
I1
aI11
aI90
aaa(lp175
(lp176
I0
aI11
aI270
aa(lp177
I0
aI11
aI0
aaa(lp178
(lp179
I24
aI21
aI-1
aa(lp180
I24
aI21
aI270
aaa(lp181
(lp182
I1
aI9
aI0
aa(lp183
I1
aI8
aI0
aa(lp184
I1
aI7
aI0
aa(lp185
I1
aI6
aI0
aaa(lp186
(lp187
I19
aI24
aI90
aa(lp188
I20
aI24
aI90
aa(lp189
I21
aI24
aI90
aa(lp190
I21
aI24
aI0
aaa(lp191
(lp192
I19
aI16
aI-1
aa(lp193
I19
aI16
aI90
aaa(lp194
(lp195
I23
aI23
aI270
aa(lp196
I22
aI23
aI270
aa(lp197
I21
aI23
aI270
aaa(lp198
(lp199
I21
aI21
aI0
aa(lp200
I21
aI21
aI90
aaa(lp201
(lp202
I24
aI23
aI180
aa(lp203
I24
aI23
aI270
aaa(lp204
(lp205
I19
aI23
aI-1
aa(lp206
I19
aI23
aI180
aa(lp207
I19
aI24
aI180
aaa(lp208
(lp209
I1
aI7
aI90
aa(lp210
I2
aI7
aI90
aaa(lp211
(lp212
I15
aI20
aI0
aa(lp213
I15
aI19
aI0
aa(lp214
I15
aI18
aI0
aa(lp215
I15
aI17
aI0
aaa(lp216
(lp217
I2
aI7
aI270
aa(lp218
I1
aI7
aI270
aa(lp219
I0
aI7
aI270
aaa(lp220
(lp221
I21
aI24
aI180
aa(lp222
I21
aI24
aI270
aaa(lp223
(lp224
I1
aI6
aI180
aaa(lp225
(lp226
I2
aI7
aI-1
aa(lp227
I2
aI7
aI0
aaa(lp228
(lp229
I19
aI18
aI270
aa(lp230
I19
aI18
aI180
aaa(lp231
(lp232
I21
aI23
aI-1
aa(lp233
I21
aI23
aI0
aaa(lp234
(lp235
I23
aI23
aI270
aa(lp236
I22
aI23
aI270
aa(lp237
I21
aI23
aI270
aaa(lp238
(lp239
I19
aI24
aI180
aa(lp240
I19
aI24
aI90
aaa(lp241
(lp242
I15
aI20
aI-1
aa(lp243
I15
aI20
aI0
aaa(lp244
(lp245
I2
aI7
aI-1
aa(lp246
I2
aI7
aI270
aaa(lp247
(lp248
I1
aI11
aI90
aa(lp249
I1
aI11
aI0
aa(lp250
I1
aI11
aI270
aaa(lp251
(lp252
I20
aI17
aI90
aa(lp253
I21
aI17
aI90
aa(lp254
I22
aI17
aI90
aaa(lp255
(lp256
I23
aI17
aI90
aa(lp257
I23
aI17
aI180
aaa(lp258
(lp259
I19
aI18
aI180
aa(lp260
I19
aI19
aI180
aa(lp261
I19
aI19
aI270
aa(lp262
I18
aI19
aI270
aaa(lp263
(lp264
I21
aI21
aI180
aa(lp265
I21
aI22
aI180
aa(lp266
I21
aI23
aI180
aa(lp267
I21
aI24
aI180
aa(lp268
I21
aI24
aI270
aa(lp269
I20
aI24
aI270
aa(lp270
I19
aI24
aI270
aa(lp271
I19
aI24
aI0
aa(lp272
I19
aI23
aI0
aaa(lp273
(lp274
I1
aI6
aI-1
aa(lp275
I1
aI6
aI0
aa(lp276
I1
aI5
aI0
aaa(lp277
(lp278
I21
aI23
aI270
aaa(lp279
(lp280
I20
aI18
aI270
aa(lp281
I19
aI18
aI270
aa(lp282
I18
aI18
aI270
aa(lp283
I17
aI18
aI270
aa(lp284
I16
aI18
aI270
aa(lp285
I15
aI18
aI270
aaa(lp286
(lp287
I3
aI6
aI90
aa(lp288
I3
aI6
aI180
aaa(lp289
(lp290
I1
aI11
aI270
aa(lp291
I0
aI11
aI270
aaa(lp292
(lp293
I24
aI23
aI90
aa(lp294
I24
aI23
aI0
aaa(lp295
(lp296
I21
aI24
aI0
aa(lp297
I21
aI23
aI0
aaa(lp298
(lp299
I17
aI17
aI270
aa(lp300
I17
aI17
aI180
aaa(lp301
(lp302
I20
aI17
aI90
aa(lp303
I21
aI17
aI90
aaa(lp304
(lp305
I22
aI16
aI180
aa(lp306
I22
aI17
aI180
aaa(lp307
(lp308
I3
aI7
aI270
aa(lp309
I2
aI7
aI270
aaa(lp310
(lp311
I0
aI11
aI180
aa(lp312
I0
aI11
aI90
aaa(lp313
(lp314
I21
aI24
aI0
aa(lp315
I21
aI23
aI0
aa(lp316
I21
aI22
aI0
aa(lp317
I21
aI21
aI0
aaa(lp318
(lp319
I19
aI19
aI270
aa(lp320
I18
aI19
aI270
aaa(lp321
(lp322
I1
aI8
aI180
aa(lp323
I1
aI8
aI90
aaa(lp324
(lp325
I3
aI5
aI270
aa(lp326
I2
aI5
aI270
aa(lp327
I1
aI5
aI270
aa(lp328
I0
aI5
aI270
aa(lp329
I0
aI5
aI180
aaa(lp330
(lp331
I18
aI19
aI-1
aa(lp332
I18
aI19
aI90
aa(lp333
I19
aI19
aI90
aa(lp334
I19
aI19
aI0
aaa(lp335
(lp336
I23
aI21
aI0
aa(lp337
I23
aI20
aI0
aa(lp338
I23
aI19
aI0
aa(lp339
I23
aI18
aI0
aa(lp340
I23
aI17
aI0
aaa(lp341
(lp342
I17
aI17
aI-1
aa(lp343
I17
aI17
aI180
aa(lp344
I17
aI18
aI180
aa(lp345
I17
aI18
aI270
aaa(lp346
(lp347
I21
aI21
aI0
aa(lp348
I21
aI21
aI90
aaa(lp349
(lp350
I19
aI18
aI0
aa(lp351
I19
aI18
aI270
aaa(lp352
(lp353
I19
aI18
aI90
aa(lp354
I20
aI18
aI90
aa(lp355
I20
aI18
aI0
aaa(lp356
(lp357
I15
aI19
aI0
aa(lp358
I15
aI18
aI0
aa(lp359
I15
aI18
aI90
aaa(lp360
(lp361
I0
aI9
aI270
aa(lp362
I0
aI9
aI180
aaa(lp363
(lp364
I1
aI6
aI-1
aa(lp365
I1
aI6
aI90
aaa(lp366
(lp367
I23
aI19
aI270
aaa(lp368
(lp369
I15
aI18
aI90
aa(lp370
I16
aI18
aI90
aa(lp371
I17
aI18
aI90
aa(lp372
I17
aI18
aI180
aa(lp373
I17
aI18
aI270
aa(lp374
I16
aI18
aI270
aaa(lp375
(lp376
I23
aI21
aI0
aa(lp377
I23
aI20
aI0
aa(lp378
I23
aI19
aI0
aa(lp379
I23
aI18
aI0
aaa(lp380
(lp381
I0
aI9
aI180
aa(lp382
I0
aI10
aI180
aaa(lp383
(lp384
I23
aI16
aI270
aa(lp385
I22
aI16
aI270
aaa(lp386
(lp387
I21
aI24
aI270
aa(lp388
I20
aI24
aI270
aa(lp389
I19
aI24
aI270
aaa(lp390
(lp391
I0
aI5
aI270
aa(lp392
I0
aI5
aI180
aaa(lp393
(lp394
I22
aI23
aI-1
aa(lp395
I22
aI23
aI90
aa(lp396
I23
aI23
aI90
aaa(lp397
(lp398
I22
aI23
aI90
aaa(lp399
(lp400
I19
aI24
aI270
aa(lp401
I19
aI24
aI0
aa(lp402
I19
aI23
aI0
aaa(lp403
(lp404
I1
aI6
aI180
aa(lp405
I1
aI7
aI180
aa(lp406
I1
aI7
aI90
aaa(lp407
(lp408
I0
aI6
aI270
aa(lp409
I0
aI6
aI180
aaa(lp410
(lp411
I21
aI23
aI-1
aa(lp412
I21
aI23
aI270
aaa(lp413
(lp414
I21
aI23
aI-1
aa(lp415
I21
aI23
aI0
aaa(lp416
(lp417
I20
aI18
aI0
aa(lp418
I20
aI17
aI0
aa(lp419
I20
aI17
aI90
aa(lp420
I21
aI17
aI90
aaa(lp421
(lp422
I24
aI19
aI90
aaa(lp423
(lp424
I22
aI16
aI180
aa(lp425
I22
aI17
aI180
aaa(lp426
(lp427
I23
aI18
aI180
aa(lp428
I23
aI19
aI180
aa(lp429
I23
aI20
aI180
aa(lp430
I23
aI21
aI180
aaa(lp431
(lp432
I2
aI6
aI0
aa(lp433
I2
aI6
aI270
aaa(lp434
(lp435
I0
aI9
aI180
aaa(lp436
(lp437
I15
aI18
aI270
aa(lp438
I15
aI18
aI180
aaa(lp439
(lp440
I0
aI8
aI180
aa(lp441
I0
aI9
aI180
aa(lp442
I0
aI10
aI180
aa(lp443
I0
aI11
aI180
aaa(lp444
(lp445
I23
aI23
aI270
aa(lp446
I22
aI23
aI270
aaa(lp447
(lp448
I1
aI6
aI0
aa(lp449
I1
aI6
aI90
aaa(lp450
(lp451
I3
aI5
aI90
aa(lp452
I3
aI5
aI180
aa(lp453
I3
aI6
aI180
aa(lp454
I3
aI7
aI180
aaa(lp455
(lp456
I23
aI21
aI90
aaa(lp457
(lp458
I1
aI5
aI270
aa(lp459
I1
aI5
aI180
aa(lp460
I1
aI6
aI180
aa(lp461
I1
aI7
aI180
aa(lp462
I1
aI7
aI270
aa(lp463
I0
aI7
aI270
aa(lp464
I0
aI7
aI180
aaa(lp465
(lp466
I21
aI17
aI90
aa(lp467
I22
aI17
aI90
aa(lp468
I22
aI17
aI0
aaa(lp469
(lp470
I20
aI17
aI270
aa(lp471
I20
aI17
aI180
aaa(lp472
(lp473
I0
aI11
aI180
aa(lp474
I0
aI11
aI90
aaa(lp475
(lp476
I0
aI6
aI0
aa(lp477
I0
aI6
aI90
aaa(lp478
(lp479
I2
aI6
aI0
aa(lp480
I2
aI6
aI270
aaa(lp481
(lp482
I22
aI17
aI270
aaa(lp483
(lp484
I19
aI18
aI270
aa(lp485
I18
aI18
aI270
aa(lp486
I17
aI18
aI270
aaa(lp487
(lp488
I0
aI7
aI270
aa(lp489
I0
aI7
aI0
aaa(lp490
(lp491
I22
aI17
aI-1
aa(lp492
I22
aI17
aI90
aaa(lp493
(lp494
I19
aI16
aI-1
aa(lp495
I19
aI16
aI90
aaa(lp496
(lp497
I22
aI17
aI90
aa(lp498
I22
aI17
aI0
aa(lp499
I22
aI16
aI0
aa(lp500
I22
aI16
aI90
aaa(lp501
(lp502
I21
aI17
aI90
aaa(lp503
(lp504
I16
aI18
aI270
aaa(lp505
(lp506
I0
aI10
aI180
aa(lp507
I0
aI11
aI180
aa(lp508
I0
aI11
aI90
aaa(lp509
(lp510
I0
aI11
aI180
aa(lp511
I0
aI11
aI90
aaa(lp512
(lp513
I0
aI5
aI180
aa(lp514
I0
aI6
aI180
aa(lp515
I0
aI7
aI180
aa(lp516
I0
aI8
aI180
aa(lp517
I0
aI9
aI180
aaa(lp518
(lp519
I0
aI8
aI90
aa(lp520
I1
aI8
aI90
aa(lp521
I2
aI8
aI90
aa(lp522
I3
aI8
aI90
aaa(lp523
(lp524
I17
aI18
aI0
aa(lp525
I17
aI17
aI0
aa(lp526
I17
aI17
aI90
aaa(lp527
(lp528
I20
aI16
aI180
aa(lp529
I20
aI17
aI180
aa(lp530
I20
aI17
aI90
aa(lp531
I21
aI17
aI90
aaa(lp532
(lp533
I0
aI9
aI-1
aa(lp534
I0
aI9
aI180
aa(lp535
I0
aI10
aI180
aa(lp536
I0
aI11
aI180
aaa(lp537
(lp538
I1
aI9
aI-1
aa(lp539
I1
aI9
aI0
aa(lp540
I1
aI8
aI0
aa(lp541
I1
aI7
aI0
aa(lp542
I1
aI7
aI90
aaa(lp543
(lp544
I19
aI23
aI-1
aa(lp545
I19
aI23
aI180
aaa(lp546
(lp547
I20
aI17
aI90
aa(lp548
I21
aI17
aI90
aa(lp549
I22
aI17
aI90
aaa(lp550
(lp551
I22
aI23
aI-1
aa(lp552
I22
aI23
aI90
aa(lp553
I23
aI23
aI90
aa(lp554
I23
aI23
aI0
aaa(lp555
(lp556
I19
aI16
aI-1
aa(lp557
I19
aI16
aI0
aa(lp558
I19
aI15
aI0
aaa(lp559
(lp560
I22
aI21
aI270
aa(lp561
I21
aI21
aI270
aa(lp562
I21
aI21
aI180
aaa(lp563
(lp564
I1
aI9
aI90
aaa(lp565
(lp566
I24
aI21
aI-1
aa(lp567
I24
aI21
aI0
aaa(lp568
(lp569
I22
aI23
aI90
aaa(lp570
(lp571
I1
aI11
aI270
aa(lp572
I0
aI11
aI270
aa(lp573
I0
aI11
aI0
aaa(lp574
(lp575
I20
aI17
aI180
aa(lp576
I20
aI18
aI180
aa(lp577
I20
aI18
aI270
aaa(lp578
(lp579
I21
aI23
aI180
aa(lp580
I21
aI24
aI180
aaa(lp581
(lp582
I22
aI23
aI90
aa(lp583
I23
aI23
aI90
aa(lp584
I23
aI23
aI0
aaa(lp585
(lp586
I19
aI18
aI90
aa(lp587
I20
aI18
aI90
aaa(lp588
(lp589
I19
aI18
aI180
aa(lp590
I19
aI19
aI180
aaa(lp591
(lp592
I21
aI24
aI180
aa(lp593
I21
aI24
aI270
aaa(lp594
(lp595
I24
aI21
aI-1
aa(lp596
I24
aI21
aI270
aaa(lp597
(lp598
I0
aI9
aI0
aa(lp599
I0
aI8
aI0
aa(lp600
I0
aI7
aI0
aa(lp601
I0
aI6
aI0
aaa(lp602
(lp603
I19
aI15
aI180
aa(lp604
I19
aI16
aI180
aaa(lp605
(lp606
I16
aI18
aI90
aa(lp607
I17
aI18
aI90
aaa(lp608
(lp609
I1
aI9
aI90
aa(lp610
I1
aI9
aI0
aaa(lp611
(lp612
I1
aI10
aI180
aa(lp613
I1
aI10
aI270
aaa(lp614
(lp615
I22
aI17
aI270
aa(lp616
I21
aI17
aI270
aaa(lp617
(lp618
I0
aI11
aI180
aa(lp619
I0
aI11
aI90
aaa(lp620
(lp621
I24
aI21
aI-1
aa(lp622
I24
aI21
aI270
aaa(lp623
(lp624
I1
aI5
aI270
aa(lp625
I0
aI5
aI270
aaa(lp626
(lp627
I1
aI7
aI180
aa(lp628
I1
aI7
aI90
aaa(lp629
(lp630
I20
aI17
aI270
aa(lp631
I20
aI17
aI180
aaa(lp632
(lp633
I20
aI17
aI270
aa(lp634
I20
aI17
aI0
aa(lp635
I20
aI16
aI0
aaa(lp636
(lp637
I0
aI9
aI0
aaa(lp638
(lp639
I3
aI5
aI-1
aa(lp640
I3
aI5
aI180
aa(lp641
I3
aI6
aI180
aa(lp642
I3
aI7
aI180
aaa(lp643
(lp644
I23
aI17
aI180
aa(lp645
I23
aI18
aI180
aaa(lp646
(lp647
I17
aI18
aI270
aa(lp648
I17
aI18
aI0
aaa(lp649
(lp650
I17
aI17
aI-1
aa(lp651
I17
aI17
aI90
aaa(lp652
(lp653
I19
aI23
aI180
aa(lp654
I19
aI24
aI180
aaa(lp655
(lp656
I19
aI23
aI-1
aa(lp657
I19
aI23
aI180
aa(lp658
I19
aI24
aI180
aa(lp659
I19
aI24
aI90
aa(lp660
I20
aI24
aI90
aa(lp661
I21
aI24
aI90
aaa(lp662
(lp663
I21
aI21
aI90
aa(lp664
I22
aI21
aI90
aa(lp665
I23
aI21
aI90
aa(lp666
I24
aI21
aI90
aaa(lp667
(lp668
I17
aI17
aI0
aaa(lp669
(lp670
I1
aI9
aI270
aa(lp671
I0
aI9
aI270
aaa(lp672
(lp673
I19
aI18
aI0
aa(lp674
I19
aI18
aI270
aaa(lp675
(lp676
I23
aI17
aI0
aa(lp677
I23
aI17
aI270
aaa(lp678
(lp679
I16
aI18
aI-1
aa(lp680
I16
aI18
aI90
aa(lp681
I17
aI18
aI90
aa(lp682
I18
aI18
aI90
aa(lp683
I19
aI18
aI90
aa(lp684
I20
aI18
aI90
aaa(lp685
(lp686
I1
aI11
aI270
aa(lp687
I0
aI11
aI270
aaa(lp688
(lp689
I24
aI21
aI-1
aa(lp690
I24
aI21
aI180
aa(lp691
I24
aI22
aI180
aa(lp692
I24
aI23
aI180
aaa(lp693
(lp694
I20
aI18
aI0
aa(lp695
I20
aI17
aI0
aa(lp696
I20
aI17
aI90
aa(lp697
I21
aI17
aI90
aaa(lp698
(lp699
I1
aI9
aI-1
aa(lp700
I1
aI9
aI0
aa(lp701
I1
aI9
aI270
aaa(lp702
(lp703
I15
aI17
aI270
aa(lp704
I15
aI17
aI180
aa(lp705
I15
aI18
aI180
aa(lp706
I15
aI19
aI180
aa(lp707
I15
aI20
aI180
aaa(lp708
(lp709
I0
aI9
aI90
aa(lp710
I1
aI9
aI90
aaa(lp711
(lp712
I19
aI16
aI-1
aa(lp713
I19
aI16
aI270
aa(lp714
I18
aI16
aI270
aaa(lp715
(lp716
I24
aI21
aI270
aa(lp717
I23
aI21
aI270
aa(lp718
I22
aI21
aI270
aa(lp719
I21
aI21
aI270
aaa(lp720
(lp721
I3
aI5
aI270
aa(lp722
I2
aI5
aI270
aa(lp723
I1
aI5
aI270
aa(lp724
I0
aI5
aI270
aa(lp725
I0
aI5
aI180
aaa(lp726
(lp727
I22
aI23
aI90
aaa(lp728
(lp729
I23
aI18
aI180
aaa(lp730
(lp731
I21
aI17
aI-1
aa(lp732
I21
aI17
aI270
aa(lp733
I20
aI17
aI270
aaa(lp734
(lp735
I18
aI17
aI270
aa(lp736
I17
aI17
aI270
aa(lp737
I16
aI17
aI270
aa(lp738
I15
aI17
aI270
aaa(lp739
(lp740
I1
aI6
aI270
aa(lp741
I0
aI6
aI270
aaa(lp742
(lp743
I16
aI18
aI90
aa(lp744
I17
aI18
aI90
aaa(lp745
(lp746
I21
aI24
aI90
aa(lp747
I21
aI24
aI0
aa(lp748
I21
aI23
aI0
aaa(lp749
(lp750
I15
aI18
aI90
aa(lp751
I16
aI18
aI90
aa(lp752
I17
aI18
aI90
aa(lp753
I18
aI18
aI90
aa(lp754
I19
aI18
aI90
aa(lp755
I20
aI18
aI90
aaa(lp756
(lp757
I0
aI10
aI270
aa(lp758
I0
aI10
aI180
aa(lp759
I0
aI11
aI180
aa(lp760
I0
aI11
aI90
aaa(lp761
(lp762
I1
aI10
aI270
aa(lp763
I0
aI10
aI270
aa(lp764
I0
aI10
aI180
aaa(lp765
(lp766
I18
aI17
aI0
aa(lp767
I18
aI16
aI0
aaa(lp768
(lp769
I0
aI12
aI180
aa(lp770
I0
aI12
aI90
aa(lp771
I1
aI12
aI90
aa(lp772
I1
aI12
aI0
aa(lp773
I1
aI11
aI0
aaa(lp774
(lp775
I2
aI7
aI-1
aa(lp776
I2
aI7
aI0
aa(lp777
I2
aI6
aI0
aa(lp778
I2
aI5
aI0
aaa(lp779
(lp780
I19
aI15
aI90
aa(lp781
I20
aI15
aI90
aa(lp782
I21
aI15
aI90
aa(lp783
I22
aI15
aI90
aa(lp784
I23
aI15
aI90
aaa(lp785
(lp786
I19
aI24
aI90
aa(lp787
I20
aI24
aI90
aa(lp788
I21
aI24
aI90
aa(lp789
I21
aI24
aI0
aaa(lp790
(lp791
I19
aI18
aI90
aa(lp792
I20
aI18
aI90
aa(lp793
I20
aI18
aI0
aaa(lp794
(lp795
I21
aI17
aI-1
aa(lp796
I21
aI17
aI270
aa(lp797
I20
aI17
aI270
aa(lp798
I19
aI17
aI270
aa(lp799
I19
aI17
aI0
aa(lp800
I19
aI17
aI90
aa(lp801
I20
aI17
aI90
aa(lp802
I21
aI17
aI90
aa(lp803
I22
aI17
aI90
aa(lp804
I22
aI17
aI0
aa(lp805
I22
aI16
aI0
aa(lp806
I22
aI16
aI90
aa(lp807
I23
aI16
aI90
aaa(lp808
(lp809
I23
aI23
aI0
aa(lp810
I23
aI22
aI0
aa(lp811
I23
aI21
aI0
aa(lp812
I23
aI20
aI0
aa(lp813
I23
aI19
aI0
aa(lp814
I23
aI18
aI0
aa(lp815
I23
aI17
aI0
aa(lp816
I23
aI17
aI270
aaa(lp817
(lp818
I20
aI17
aI180
aaa(lp819
(lp820
I20
aI18
aI90
aa(lp821
I20
aI18
aI0
aa(lp822
I20
aI17
aI0
aaa(lp823
(lp824
I15
aI20
aI-1
aa(lp825
I15
aI20
aI0
aa(lp826
I15
aI19
aI0
aa(lp827
I15
aI18
aI0
aa(lp828
I15
aI17
aI0
aa(lp829
I15
aI17
aI90
aaa(lp830
(lp831
I1
aI6
aI270
aaa(lp832
(lp833
I23
aI23
aI180
aa(lp834
I23
aI23
aI270
aaa(lp835
(lp836
I19
aI23
aI-1
aa(lp837
I19
aI23
aI180
aa(lp838
I19
aI24
aI180
aa(lp839
I19
aI24
aI90
aa(lp840
I20
aI24
aI90
aa(lp841
I21
aI24
aI90
aa(lp842
I21
aI24
aI0
aa(lp843
I21
aI23
aI0
aaa(lp844
(lp845
I1
aI11
aI-1
aa(lp846
I1
aI11
aI270
aa(lp847
I0
aI11
aI270
aa(lp848
I0
aI11
aI0
aaa(lp849
(lp850
I23
aI18
aI-1
aa(lp851
I23
aI18
aI180
aaa(lp852
(lp853
I21
aI23
aI0
aa(lp854
I21
aI23
aI90
aa(lp855
I22
aI23
aI90
aaa(lp856
(lp857
I0
aI5
aI270
aa(lp858
I0
aI5
aI180
aaa(lp859
(lp860
I21
aI23
aI0
aa(lp861
I21
aI22
aI0
aa(lp862
I21
aI21
aI0
aaa(lp863
(lp864
I24
aI21
aI270
aa(lp865
I24
aI21
aI180
aaa(lp866
(lp867
I24
aI23
aI180
aa(lp868
I24
aI23
aI270
aaa(lp869
(lp870
I17
aI18
aI180
aa(lp871
I17
aI18
aI270
aa(lp872
I16
aI18
aI270
aaa(lp873
(lp874
I23
aI21
aI90
aa(lp875
I24
aI21
aI90
aaa(lp876
(lp877
I0
aI11
aI90
aa(lp878
I1
aI11
aI90
aaa(lp879
(lp880
I15
aI18
aI90
aa(lp881
I16
aI18
aI90
aa(lp882
I17
aI18
aI90
aa(lp883
I18
aI18
aI90
aa(lp884
I19
aI18
aI90
aa(lp885
I20
aI18
aI90
aa(lp886
I20
aI18
aI0
aaa(lp887
(lp888
I22
aI16
aI0
aa(lp889
I22
aI16
aI90
aa(lp890
I23
aI16
aI90
aaa(lp891
(lp892
I23
aI21
aI270
aa(lp893
I22
aI21
aI270
aaa(lp894
(lp895
I1
aI7
aI90
aa(lp896
I2
aI7
aI90
aaa(lp897
(lp898
I0
aI6
aI180
aa(lp899
I0
aI7
aI180
aa(lp900
I0
aI8
aI180
aa(lp901
I0
aI9
aI180
aa(lp902
I0
aI10
aI180
aa(lp903
I0
aI11
aI180
aaa(lp904
(lp905
I21
aI21
aI0
aa(lp906
I21
aI21
aI90
aaa(lp907
(lp908
I23
aI18
aI180
aa(lp909
I23
aI19
aI180
aa(lp910
I23
aI20
aI180
aa(lp911
I23
aI21
aI180
aa(lp912
I23
aI21
aI270
aaa(lp913
(lp914
I23
aI18
aI-1
aa(lp915
I23
aI18
aI90
aaa(lp916
(lp917
I19
aI23
aI-1
aa(lp918
I19
aI23
aI180
aa(lp919
I19
aI24
aI180
aaa(lp920
(lp921
I23
aI21
aI90
aa(lp922
I23
aI21
aI0
aaa(lp923
(lp924
I19
aI16
aI-1
aa(lp925
I19
aI16
aI0
aa(lp926
I19
aI15
aI0
aaa(lp927
(lp928
I23
aI18
aI-1
aa(lp929
I23
aI18
aI180
aaa(lp930
(lp931
I23
aI21
aI0
aa(lp932
I23
aI21
aI90
aa(lp933
I24
aI21
aI90
aaa(lp934
(lp935
I0
aI5
aI90
aa(lp936
I1
aI5
aI90
aa(lp937
I2
aI5
aI90
aa(lp938
I3
aI5
aI90
aaa(lp939
(lp940
I19
aI19
aI0
aa(lp941
I19
aI18
aI0
aa(lp942
I19
aI18
aI270
aaa(lp943
(lp944
I1
aI9
aI-1
aa(lp945
I1
aI9
aI270
aa(lp946
I0
aI9
aI270
aaa(lp947
(lp948
I21
aI24
aI0
aa(lp949
I21
aI23
aI0
aa(lp950
I21
aI22
aI0
aa(lp951
I21
aI21
aI0
aaa(lp952
(lp953
I22
aI17
aI-1
aa(lp954
I22
aI17
aI90
aaa(lp955
(lp956
I19
aI18
aI270
aa(lp957
I18
aI18
aI270
aa(lp958
I17
aI18
aI270
aa(lp959
I17
aI18
aI0
aaa(lp960
(lp961
I23
aI17
aI180
aa(lp962
I23
aI18
aI180
aa(lp963
I23
aI19
aI180
aa(lp964
I23
aI20
aI180
aa(lp965
I23
aI21
aI180
aa(lp966
I23
aI22
aI180
aa(lp967
I23
aI23
aI180
aaa(lp968
(lp969
I23
aI21
aI90
aa(lp970
I23
aI21
aI0
aaa(lp971
(lp972
I22
aI17
aI90
aa(lp973
I22
aI17
aI0
aaa(lp974
(lp975
I19
aI23
aI-1
aa(lp976
I19
aI23
aI180
aa(lp977
I19
aI24
aI180
aa(lp978
I19
aI24
aI90
aa(lp979
I20
aI24
aI90
aa(lp980
I21
aI24
aI90
aa(lp981
I21
aI24
aI0
aa(lp982
I21
aI23
aI0
aa(lp983
I21
aI22
aI0
aa(lp984
I21
aI21
aI0
aaa(lp985
(lp986
I23
aI18
aI180
aa(lp987
I23
aI19
aI180
aa(lp988
I23
aI20
aI180
aa(lp989
I23
aI21
aI180
aaa(lp990
(lp991
I1
aI5
aI0
aa(lp992
I1
aI5
aI90
aa(lp993
I2
aI5
aI90
aa(lp994
I3
aI5
aI90
aaa(lp995
(lp996
I1
aI11
aI-1
aa(lp997
I1
aI11
aI270
aaa(lp998
(lp999
I17
aI18
aI0
aa(lp1000
I17
aI17
aI0
aaa(lp1001
(lp1002
I19
aI23
aI-1
aa(lp1003
I19
aI23
aI180
aa(lp1004
I19
aI24
aI180
aaa(lp1005
(lp1006
I1
aI6
aI-1
aa(lp1007
I1
aI6
aI270
aa(lp1008
I0
aI6
aI270
aa(lp1009
I0
aI6
aI0
aa(lp1010
I0
aI5
aI0
aaa(lp1011
(lp1012
I1
aI11
aI-1
aa(lp1013
I1
aI11
aI270
aaa(lp1014
(lp1015
I22
aI23
aI-1
aa(lp1016
I22
aI23
aI90
aaa(lp1017
(lp1018
I3
aI5
aI180
aa(lp1019
I3
aI6
aI180
aa(lp1020
I3
aI7
aI180
aa(lp1021
I3
aI8
aI180
aaa(lp1022
(lp1023
I0
aI11
aI90
aa(lp1024
I1
aI11
aI90
aaa(lp1025
(lp1026
I1
aI11
aI-1
aa(lp1027
I1
aI11
aI270
aa(lp1028
I0
aI11
aI270
aaa(lp1029
(lp1030
I0
aI11
aI0
aa(lp1031
I0
aI10
aI0
aa(lp1032
I0
aI9
aI0
aaa(lp1033
(lp1034
I2
aI6
aI0
aa(lp1035
I2
aI6
aI270
aaa(lp1036
(lp1037
I15
aI17
aI0
aa(lp1038
I15
aI17
aI90
aaa(lp1039
(lp1040
I23
aI19
aI180
aa(lp1041
I23
aI19
aI90
aaa(lp1042
(lp1043
I19
aI18
aI180
aa(lp1044
I19
aI19
aI180
aa(lp1045
I19
aI19
aI270
aaa(lp1046
(lp1047
I20
aI17
aI180
aa(lp1048
I20
aI18
aI180
aaa(lp1049
(lp1050
I3
aI5
aI270
aa(lp1051
I2
aI5
aI270
aa(lp1052
I1
aI5
aI270
aa(lp1053
I0
aI5
aI270
aaa(lp1054
(lp1055
I22
aI16
aI0
aa(lp1056
I22
aI16
aI90
aaa(lp1057
(lp1058
I20
aI17
aI0
aa(lp1059
I20
aI17
aI90
aaa(lp1060
(lp1061
I20
aI17
aI180
aa(lp1062
I20
aI18
aI180
aa(lp1063
I20
aI18
aI270
aa(lp1064
I19
aI18
aI270
aaa(lp1065
(lp1066
I0
aI5
aI0
aaa(lp1067
(lp1068
I0
aI7
aI180
aa(lp1069
I0
aI7
aI90
aaa(lp1070
(lp1071
I1
aI9
aI-1
aa(lp1072
I1
aI9
aI0
aaa(lp1073
(lp1074
I20
aI18
aI90
aa(lp1075
I20
aI18
aI0
aaa(lp1076
(lp1077
I1
aI9
aI-1
aa(lp1078
I1
aI9
aI0
aaa(lp1079
(lp1080
I23
aI18
aI0
aaa(lp1081
(lp1082
I1
aI7
aI0
aa(lp1083
I1
aI7
aI90
aaa(lp1084
(lp1085
I21
aI17
aI-1
aa(lp1086
I21
aI17
aI270
aaa(lp1087
(lp1088
I17
aI18
aI180
aaa(lp1089
(lp1090
I0
aI6
aI180
aa(lp1091
I0
aI7
aI180
aa(lp1092
I0
aI8
aI180
aa(lp1093
I0
aI9
aI180
aaa(lp1094
(lp1095
I16
aI18
aI90
aa(lp1096
I17
aI18
aI90
aa(lp1097
I18
aI18
aI90
aa(lp1098
I19
aI18
aI90
aa(lp1099
I20
aI18
aI90
aaa(lp1100
(lp1101
I0
aI11
aI0
aa(lp1102
I0
aI10
aI0
aa(lp1103
I0
aI9
aI0
aaa(lp1104
(lp1105
I21
aI23
aI270
aaa(lp1106
(lp1107
I23
aI23
aI90
aa(lp1108
I23
aI23
aI0
aaa(lp1109
(lp1110
I23
aI18
aI-1
aa(lp1111
I23
aI18
aI180
aa(lp1112
I23
aI19
aI180
aaa(lp1113
(lp1114
I22
aI16
aI0
aa(lp1115
I22
aI16
aI90
aaa(lp1116
(lp1117
I17
aI17
aI180
aa(lp1118
I17
aI18
aI180
aaa(lp1119
(lp1120
I23
aI23
aI270
aa(lp1121
I22
aI23
aI270
aaa(lp1122
(lp1123
I23
aI18
aI-1
aa(lp1124
I23
aI18
aI90
aa(lp1125
I23
aI18
aI180
aaa(lp1126
(lp1127
I1
aI9
aI-1
aa(lp1128
I1
aI9
aI0
aaa(lp1129
(lp1130
I21
aI24
aI90
aa(lp1131
I21
aI24
aI0
aaa(lp1132
(lp1133
I19
aI23
aI-1
aa(lp1134
I19
aI23
aI180
aa(lp1135
I19
aI24
aI180
aa(lp1136
I19
aI24
aI90
aa(lp1137
I20
aI24
aI90
aa(lp1138
I21
aI24
aI90
aa(lp1139
I21
aI24
aI0
aaa(lp1140
(lp1141
I22
aI16
aI0
aa(lp1142
I22
aI16
aI90
aaa(lp1143
(lp1144
I23
aI16
aI-1
aa(lp1145
I23
aI16
aI270
aaa(lp1146
(lp1147
I1
aI11
aI-1
aa(lp1148
I1
aI11
aI270
aa(lp1149
I0
aI11
aI270
aa(lp1150
I0
aI11
aI0
aa(lp1151
I0
aI10
aI0
aa(lp1152
I0
aI9
aI0
aa(lp1153
I0
aI8
aI0
aa(lp1154
I0
aI7
aI0
aa(lp1155
I0
aI6
aI0
aaa(lp1156
(lp1157
I23
aI17
aI270
aa(lp1158
I22
aI17
aI270
aaa(lp1159
(lp1160
I22
aI16
aI180
aa(lp1161
I22
aI17
aI180
aaa(lp1162
(lp1163
I1
aI9
aI-1
aa(lp1164
I1
aI9
aI180
aaa(lp1165
(lp1166
I18
aI19
aI-1
aa(lp1167
I18
aI19
aI90
aa(lp1168
I19
aI19
aI90
aa(lp1169
I19
aI19
aI0
aa(lp1170
I19
aI18
aI0
aa(lp1171
I19
aI18
aI90
aa(lp1172
I19
aI18
aI180
aa(lp1173
I19
aI18
aI270
aa(lp1174
I18
aI18
aI270
aa(lp1175
I17
aI18
aI270
aaa(lp1176
(lp1177
I3
aI7
aI270
aa(lp1178
I2
aI7
aI270
aa(lp1179
I1
aI7
aI270
aaa(lp1180
(lp1181
I15
aI20
aI180
aaa(lp1182
(lp1183
I23
aI17
aI0
aa(lp1184
I23
aI17
aI270
aa(lp1185
I22
aI17
aI270
aaa(lp1186
(lp1187
I17
aI17
aI-1
aa(lp1188
I17
aI17
aI180
aaa(lp1189
(lp1190
I23
aI17
aI180
aa(lp1191
I23
aI18
aI180
aa(lp1192
I23
aI19
aI180
aa(lp1193
I23
aI20
aI180
aa(lp1194
I23
aI21
aI180
aa(lp1195
I23
aI22
aI180
aaa(lp1196
(lp1197
I20
aI17
aI180
aaa(lp1198
(lp1199
I23
aI21
aI270
aa(lp1200
I22
aI21
aI270
aa(lp1201
I21
aI21
aI270
aaa(lp1202
(lp1203
I23
aI16
aI-1
aa(lp1204
I23
aI16
aI270
aaa(lp1205
(lp1206
I21
aI21
aI180
aa(lp1207
I21
aI22
aI180
aa(lp1208
I21
aI23
aI180
aa(lp1209
I21
aI24
aI180
aaa(lp1210
(lp1211
I22
aI17
aI90
aa(lp1212
I23
aI17
aI90
aaa(lp1213
(lp1214
I19
aI18
aI270
aa(lp1215
I19
aI18
aI180
aaa(lp1216
(lp1217
I1
aI7
aI0
aa(lp1218
I1
aI6
aI0
aaa(lp1219
(lp1220
I21
aI24
aI270
aa(lp1221
I20
aI24
aI270
aa(lp1222
I19
aI24
aI270
aaa(lp1223
(lp1224
I16
aI18
aI-1
aa(lp1225
I16
aI18
aI90
aa(lp1226
I17
aI18
aI90
aa(lp1227
I18
aI18
aI90
aa(lp1228
I19
aI18
aI90
aa(lp1229
I20
aI18
aI90
aa(lp1230
I20
aI18
aI0
aa(lp1231
I20
aI17
aI0
aa(lp1232
I20
aI17
aI90
aa(lp1233
I21
aI17
aI90
aa(lp1234
I22
aI17
aI90
aa(lp1235
I22
aI17
aI180
aa(lp1236
I22
aI17
aI270
aa(lp1237
I21
aI17
aI270
aaa(lp1238
(lp1239
I1
aI9
aI-1
aaa(lp1240
(lp1241
I22
aI17
aI0
aa(lp1242
I22
aI16
aI0
aa(lp1243
I22
aI16
aI90
aa(lp1244
I23
aI16
aI90
aaa(lp1245
(lp1246
I23
aI21
aI90
aa(lp1247
I23
aI21
aI0
aa(lp1248
I23
aI20
aI0
aa(lp1249
I23
aI19
aI0
aa(lp1250
I23
aI18
aI0
aa(lp1251
I23
aI17
aI0
aaa(lp1252
(lp1253
I19
aI16
aI90
aa(lp1254
I20
aI16
aI90
aa(lp1255
I20
aI16
aI180
aaa(lp1256
(lp1257
I24
aI21
aI-1
aa(lp1258
I24
aI21
aI270
aa(lp1259
I23
aI21
aI270
aaa(lp1260
(lp1261
I2
aI7
aI-1
aa(lp1262
I2
aI7
aI0
aaa(lp1263
(lp1264
I3
aI7
aI270
aa(lp1265
I2
aI7
aI270
aaa(lp1266
(lp1267
I18
aI17
aI90
aa(lp1268
I18
aI17
aI0
aaa(lp1269
(lp1270
I21
aI24
aI0
aa(lp1271
I21
aI23
aI0
aa(lp1272
I21
aI22
aI0
aa(lp1273
I21
aI21
aI0
aaa(lp1274
(lp1275
I22
aI23
aI90
aa(lp1276
I23
aI23
aI90
aaa(lp1277
(lp1278
I1
aI9
aI270
aa(lp1279
I0
aI9
aI270
aaa(lp1280
(lp1281
I23
aI23
aI180
aa(lp1282
I23
aI23
aI270
aaa(lp1283
(lp1284
I20
aI17
aI180
aa(lp1285
I20
aI18
aI180
aaa(lp1286
(lp1287
I22
aI17
aI270
aaa(lp1288
(lp1289
I23
aI21
aI0
aa(lp1290
I23
aI20
aI0
aa(lp1291
I23
aI19
aI0
aa(lp1292
I23
aI18
aI0
aaa(lp1293
(lp1294
I20
aI17
aI0
aaa(lp1295
(lp1296
I0
aI9
aI-1
aa(lp1297
I0
aI9
aI90
aaa(lp1298
(lp1299
I15
aI18
aI180
aa(lp1300
I15
aI19
aI180
aa(lp1301
I15
aI20
aI180
aaa(lp1302
(lp1303
I20
aI18
aI90
aa(lp1304
I20
aI18
aI0
aaa(lp1305
(lp1306
I20
aI17
aI0
aa(lp1307
I20
aI17
aI90
aaa(lp1308
(lp1309
I20
aI16
aI180
aa(lp1310
I20
aI17
aI180
aa(lp1311
I20
aI17
aI90
aaa(lp1312
(lp1313
I1
aI11
aI270
aa(lp1314
I0
aI11
aI270
aa(lp1315
I0
aI11
aI0
aaa(lp1316
(lp1317
I3
aI7
aI180
aa(lp1318
I3
aI7
aI270
aa(lp1319
I2
aI7
aI270
aaa(lp1320
(lp1321
I0
aI9
aI-1
aa(lp1322
I0
aI9
aI90
aa(lp1323
I0
aI9
aI0
aaa(lp1324
(lp1325
I0
aI8
aI180
aa(lp1326
I0
aI9
aI180
aa(lp1327
I0
aI10
aI180
aa(lp1328
I0
aI11
aI180
aa(lp1329
I0
aI11
aI90
aaa(lp1330
(lp1331
I0
aI11
aI0
aa(lp1332
I0
aI10
aI0
aa(lp1333
I0
aI9
aI0
aa(lp1334
I0
aI8
aI0
aa(lp1335
I0
aI8
aI90
aa(lp1336
I1
aI8
aI90
aa(lp1337
I2
aI8
aI90
aa(lp1338
I3
aI8
aI90
aaa(lp1339
(lp1340
I19
aI16
aI-1
aa(lp1341
I19
aI16
aI90
aaa(lp1342
(lp1343
I23
aI18
aI180
aa(lp1344
I23
aI19
aI180
aa(lp1345
I23
aI20
aI180
aa(lp1346
I23
aI21
aI180
aa(lp1347
I23
aI22
aI180
aa(lp1348
I23
aI23
aI180
aaa(lp1349
(lp1350
I20
aI18
aI180
aa(lp1351
I20
aI18
aI270
aa(lp1352
I19
aI18
aI270
aa(lp1353
I18
aI18
aI270
aa(lp1354
I17
aI18
aI270
aaa(lp1355
(lp1356
I19
aI19
aI90
aa(lp1357
I19
aI19
aI0
aa(lp1358
I19
aI18
aI0
aaa(lp1359
(lp1360
I23
aI16
aI270
aa(lp1361
I22
aI16
aI270
aaa(lp1362
(lp1363
I0
aI9
aI270
aaa(lp1364
(lp1365
I18
aI19
aI-1
aa(lp1366
I18
aI19
aI90
aa(lp1367
I19
aI19
aI90
aa(lp1368
I19
aI19
aI0
aaa(lp1369
(lp1370
I21
aI24
aI270
aa(lp1371
I20
aI24
aI270
aa(lp1372
I19
aI24
aI270
aa(lp1373
I19
aI24
aI0
aaa(lp1374
(lp1375
I21
aI24
aI90
aa(lp1376
I21
aI24
aI0
aaa(lp1377
(lp1378
I19
aI24
aI90
aa(lp1379
I20
aI24
aI90
aa(lp1380
I21
aI24
aI90
aaa(lp1381
(lp1382
I18
aI19
aI-1
aa(lp1383
I18
aI19
aI90
aa(lp1384
I19
aI19
aI90
aaa(lp1385
(lp1386
I19
aI19
aI0
aa(lp1387
I19
aI18
aI0
aa(lp1388
I19
aI18
aI270
aaa(lp1389
(lp1390
I20
aI17
aI270
aa(lp1391
I20
aI17
aI180
aaa(lp1392
(lp1393
I21
aI17
aI270
aa(lp1394
I20
aI17
aI270
aaa(lp1395
(lp1396
I24
aI23
aI0
aa(lp1397
I24
aI22
aI0
aa(lp1398
I24
aI21
aI0
aaa(lp1399
(lp1400
I23
aI23
aI90
aa(lp1401
I23
aI23
aI0
aaa(lp1402
(lp1403
I1
aI7
aI270
aa(lp1404
I1
aI7
aI180
aaa(lp1405
(lp1406
I19
aI19
aI90
aa(lp1407
I19
aI19
aI0
aaa(lp1408
(lp1409
I20
aI18
aI180
aa(lp1410
I20
aI18
aI270
aaa(lp1411
(lp1412
I0
aI7
aI180
aa(lp1413
I0
aI8
aI180
aa(lp1414
I0
aI9
aI180
aaa(lp1415
(lp1416
I22
aI17
aI-1
aa(lp1417
I22
aI17
aI180
aaa(lp1418
(lp1419
I16
aI18
aI-1
aa(lp1420
I16
aI18
aI90
aaa(lp1421
(lp1422
I18
aI19
aI90
aa(lp1423
I19
aI19
aI90
aaa(lp1424
(lp1425
I24
aI21
aI270
aa(lp1426
I23
aI21
aI270
aaa(lp1427
(lp1428
I1
aI9
aI0
aa(lp1429
I1
aI8
aI0
aa(lp1430
I1
aI7
aI0
aa(lp1431
I1
aI6
aI0
aaa(lp1432
(lp1433
I22
aI17
aI90
aa(lp1434
I23
aI17
aI90
aa(lp1435
I23
aI17
aI180
aaa(lp1436
(lp1437
I20
aI17
aI180
aa(lp1438
I20
aI18
aI180
aaa(lp1439
(lp1440
I22
aI17
aI0
aa(lp1441
I22
aI16
aI0
aa(lp1442
I22
aI16
aI90
aa(lp1443
I23
aI16
aI90
aaa(lp1444
(lp1445
I21
aI24
aI0
aa(lp1446
I21
aI23
aI0
aa(lp1447
I21
aI23
aI90
aa(lp1448
I22
aI23
aI90
aa(lp1449
I23
aI23
aI90
aaa(lp1450
(lp1451
I21
aI23
aI180
aa(lp1452
I21
aI24
aI180
aaa(lp1453
(lp1454
I17
aI17
aI180
aa(lp1455
I17
aI18
aI180
aaa(lp1456
(lp1457
I23
aI17
aI180
aa(lp1458
I23
aI18
aI180
aaa(lp1459
(lp1460
I21
aI21
aI0
aaa(lp1461
(lp1462
I19
aI24
aI90
aa(lp1463
I20
aI24
aI90
aa(lp1464
I21
aI24
aI90
aaa(lp1465
(lp1466
I23
aI16
aI0
aa(lp1467
I23
aI15
aI0
aaa(lp1468
(lp1469
I2
aI7
aI270
aa(lp1470
I1
aI7
aI270
aa(lp1471
I1
aI7
aI180
aaa(lp1472
(lp1473
I21
aI24
aI0
aaa(lp1474
(lp1475
I23
aI23
aI270
aaa(lp1476
(lp1477
I18
aI19
aI-1
aa(lp1478
I18
aI19
aI90
aaa(lp1479
(lp1480
I22
aI17
aI-1
aa(lp1481
I22
aI17
aI90
aaa(lp1482
(lp1483
I0
aI5
aI270
aa(lp1484
I0
aI5
aI180
aa(lp1485
I0
aI6
aI180
aa(lp1486
I0
aI7
aI180
aa(lp1487
I0
aI8
aI180
aa(lp1488
I0
aI9
aI180
aaa(lp1489
(lp1490
I20
aI17
aI90
aa(lp1491
I21
aI17
aI90
aa(lp1492
I22
aI17
aI90
aa(lp1493
I22
aI17
aI0
aa(lp1494
I22
aI16
aI0
aa(lp1495
I22
aI16
aI90
aaa(lp1496
(lp1497
I24
aI21
aI180
aa(lp1498
I24
aI21
aI270
aa(lp1499
I23
aI21
aI270
aa(lp1500
I22
aI21
aI270
aa(lp1501
I21
aI21
aI270
aaa(lp1502
(lp1503
I23
aI23
aI270
aa(lp1504
I22
aI23
aI270
aa(lp1505
I21
aI23
aI270
aaa(lp1506
(lp1507
I22
aI23
aI-1
aa(lp1508
I22
aI23
aI270
aa(lp1509
I21
aI23
aI270
aaa(lp1510
(lp1511
I22
aI17
aI90
aa(lp1512
I23
aI17
aI90
aa(lp1513
I23
aI17
aI180
aaa(lp1514
(lp1515
I0
aI7
aI180
aa(lp1516
I0
aI8
aI180
aa(lp1517
I0
aI9
aI180
aa(lp1518
I0
aI10
aI180
aa(lp1519
I0
aI11
aI180
aaa(lp1520
(lp1521
I20
aI18
aI270
aa(lp1522
I19
aI18
aI270
aa(lp1523
I19
aI18
aI180
aaa(lp1524
(lp1525
I19
aI19
aI270
aa(lp1526
I18
aI19
aI270
aaa(lp1527
(lp1528
I19
aI24
aI0
aa(lp1529
I19
aI23
aI0
aaa(lp1530
(lp1531
I17
aI18
aI90
aa(lp1532
I18
aI18
aI90
aa(lp1533
I19
aI18
aI90
aa(lp1534
I20
aI18
aI90
aaa(lp1535
(lp1536
I19
aI19
aI0
aa(lp1537
I19
aI18
aI0
aa(lp1538
I19
aI18
aI270
aa(lp1539
I18
aI18
aI270
aa(lp1540
I17
aI18
aI270
aaa(lp1541
(lp1542
I21
aI23
aI0
aa(lp1543
I21
aI22
aI0
aa(lp1544
I21
aI21
aI0
aaa(lp1545
(lp1546
I17
aI17
aI-1
aa(lp1547
I17
aI17
aI270
aaa(lp1548
(lp1549
I2
aI7
aI-1
aa(lp1550
I2
aI7
aI0
aa(lp1551
I2
aI7
aI270
aaa(lp1552
(lp1553
I23
aI16
aI180
aa(lp1554
I23
aI16
aI270
aa(lp1555
I23
aI16
aI0
aaa(lp1556
(lp1557
I20
aI18
aI0
aa(lp1558
I20
aI17
aI0
aa(lp1559
I20
aI17
aI90
aaa(lp1560
(lp1561
I0
aI11
aI270
aa(lp1562
I0
aI11
aI0
aaa(lp1563
(lp1564
I1
aI9
aI0
aaa(lp1565
(lp1566
I23
aI23
aI0
aa(lp1567
I23
aI22
aI0
aa(lp1568
I23
aI21
aI0
aa(lp1569
I23
aI20
aI0
aa(lp1570
I23
aI19
aI0
aa(lp1571
I23
aI18
aI0
aa(lp1572
I23
aI17
aI0
aaa(lp1573
(lp1574
I15
aI18
aI180
aa(lp1575
I15
aI19
aI180
aa(lp1576
I15
aI20
aI180
aaa(lp1577
(lp1578
I1
aI6
aI270
aaa(lp1579
(lp1580
I23
aI23
aI0
aa(lp1581
I23
aI22
aI0
aa(lp1582
I23
aI21
aI0
aa(lp1583
I23
aI20
aI0
aa(lp1584
I23
aI19
aI0
aa(lp1585
I23
aI18
aI0
aaa(lp1586
(lp1587
I3
aI8
aI-1
aa(lp1588
I3
aI8
aI0
aaa(lp1589
(lp1590
I2
aI5
aI0
aa(lp1591
I2
aI5
aI90
aaa(lp1592
(lp1593
I24
aI23
aI0
aaa(lp1594
(lp1595
I21
aI24
aI90
aa(lp1596
I21
aI24
aI0
aa(lp1597
I21
aI23
aI0
aa(lp1598
I21
aI22
aI0
aa(lp1599
I21
aI21
aI0
aaa(lp1600
(lp1601
I22
aI17
aI-1
aa(lp1602
I22
aI17
aI90
aaa(lp1603
(lp1604
I22
aI17
aI-1
aa(lp1605
I22
aI17
aI90
aaa(lp1606
(lp1607
I0
aI11
aI180
aa(lp1608
I0
aI11
aI90
aaa(lp1609
(lp1610
I0
aI9
aI90
aa(lp1611
I1
aI9
aI90
aaa(lp1612
(lp1613
I20
aI17
aI180
aa(lp1614
I20
aI18
aI180
aaa(lp1615
(lp1616
I15
aI20
aI-1
aa(lp1617
I15
aI20
aI0
aa(lp1618
I15
aI19
aI0
aa(lp1619
I15
aI18
aI0
aa(lp1620
I15
aI18
aI270
aa(lp1621
I15
aI18
aI180
aa(lp1622
I15
aI18
aI90
aa(lp1623
I16
aI18
aI90
aaa(lp1624
(lp1625
I15
aI20
aI-1
aa(lp1626
I15
aI20
aI0
aa(lp1627
I15
aI19
aI0
aaa(lp1628
(lp1629
I21
aI17
aI-1
aa(lp1630
I21
aI17
aI270
aa(lp1631
I20
aI17
aI270
aa(lp1632
I20
aI17
aI180
aaa(lp1633
(lp1634
I0
aI5
aI0
aa(lp1635
I0
aI5
aI90
aaa(lp1636
(lp1637
I21
aI17
aI270
aa(lp1638
I20
aI17
aI270
aaa(lp1639
(lp1640
I23
aI21
aI270
aa(lp1641
I23
aI21
aI0
aaa(lp1642
(lp1643
I23
aI16
aI90
aaa(lp1644
(lp1645
I18
aI19
aI-1
aa(lp1646
I18
aI19
aI90
aa(lp1647
I19
aI19
aI90
aaa(lp1648
(lp1649
I0
aI11
aI90
aa(lp1650
I1
aI11
aI90
aaa(lp1651
(lp1652
I22
aI17
aI0
aa(lp1653
I22
aI16
aI0
aa(lp1654
I22
aI16
aI90
aaa(lp1655
(lp1656
I0
aI11
aI270
aa(lp1657
I0
aI11
aI0
aaa(lp1658
(lp1659
I3
aI8
aI-1
aa(lp1660
I3
aI8
aI270
aaa(lp1661
(lp1662
I24
aI21
aI90
aaa(lp1663
(lp1664
I1
aI9
aI270
aa(lp1665
I0
aI9
aI270
aaa(lp1666
(lp1667
I15
aI18
aI180
aa(lp1668
I15
aI19
aI180
aa(lp1669
I15
aI20
aI180
aaa(lp1670
(lp1671
I0
aI11
aI270
aa(lp1672
I0
aI11
aI0
aaa(lp1673
(lp1674
I21
aI24
aI180
aa(lp1675
I21
aI24
aI270
aaa(lp1676
(lp1677
I23
aI17
aI90
aa(lp1678
I23
aI17
aI180
aaa(lp1679
(lp1680
I1
aI11
aI-1
aa(lp1681
I1
aI11
aI270
aaa(lp1682
(lp1683
I15
aI17
aI270
aa(lp1684
I15
aI17
aI180
aaa(lp1685
(lp1686
I1
aI9
aI-1
aa(lp1687
I1
aI9
aI270
aa(lp1688
I0
aI9
aI270
aa(lp1689
I0
aI9
aI0
aa(lp1690
I0
aI8
aI0
aa(lp1691
I0
aI7
aI0
aa(lp1692
I0
aI6
aI0
aa(lp1693
I0
aI5
aI0
aaa(lp1694
(lp1695
I23
aI16
aI-1
aa(lp1696
I23
aI16
aI0
aa(lp1697
I23
aI15
aI0
aaa(lp1698
(lp1699
I0
aI11
aI180
aa(lp1700
I0
aI11
aI90
aa(lp1701
I1
aI11
aI90
aaa(lp1702
(lp1703
I19
aI23
aI-1
aa(lp1704
I19
aI23
aI180
aaa(lp1705
(lp1706
I0
aI6
aI90
aa(lp1707
I1
aI6
aI90
aaa(lp1708
(lp1709
I3
aI8
aI90
aaa(lp1710
(lp1711
I21
aI24
aI0
aa(lp1712
I21
aI23
aI0
aa(lp1713
I21
aI23
aI90
aaa(lp1714
(lp1715
I19
aI19
aI0
aa(lp1716
I19
aI18
aI0
aa(lp1717
I19
aI18
aI90
aaa(lp1718
(lp1719
I23
aI23
aI180
aa(lp1720
I23
aI23
aI270
aaa(lp1721
(lp1722
I1
aI5
aI180
aa(lp1723
I1
aI6
aI180
aa(lp1724
I1
aI7
aI180
aa(lp1725
I1
aI8
aI180
aa(lp1726
I1
aI9
aI180
aaa(lp1727
(lp1728
I21
aI23
aI-1
aa(lp1729
I21
aI23
aI180
aaa(lp1730
(lp1731
I20
aI17
aI0
aa(lp1732
I20
aI17
aI90
aa(lp1733
I21
aI17
aI90
aa(lp1734
I22
aI17
aI90
aaa(lp1735
(lp1736
I17
aI18
aI180
aa(lp1737
I17
aI18
aI270
aa(lp1738
I16
aI18
aI270
aaa(lp1739
(lp1740
I19
aI24
aI180
aa(lp1741
I19
aI24
aI90
aaa(lp1742
(lp1743
I1
aI11
aI-1
aa(lp1744
I1
aI11
aI270
aaa(lp1745
(lp1746
I21
aI21
aI-1
aa(lp1747
I21
aI21
aI180
aa(lp1748
I21
aI22
aI180
aa(lp1749
I21
aI23
aI180
aaa(lp1750
(lp1751
I2
aI7
aI0
aa(lp1752
I2
aI6
aI0
aaa(lp1753
(lp1754
I0
aI11
aI0
aa(lp1755
I0
aI10
aI0
aa(lp1756
I0
aI9
aI0
aaa(lp1757
(lp1758
I20
aI18
aI90
aa(lp1759
I20
aI18
aI0
aaa(lp1760
(lp1761
I1
aI9
aI-1
aa(lp1762
I1
aI9
aI0
aa(lp1763
I1
aI8
aI0
aa(lp1764
I1
aI7
aI0
aa(lp1765
I1
aI6
aI0
aa(lp1766
I1
aI5
aI0
aaa(lp1767
(lp1768
I23
aI21
aI270
aa(lp1769
I23
aI21
aI0
aaa(lp1770
(lp1771
I15
aI18
aI90
aa(lp1772
I16
aI18
aI90
aa(lp1773
I17
aI18
aI90
aa(lp1774
I18
aI18
aI90
aa(lp1775
I19
aI18
aI90
aa(lp1776
I20
aI18
aI90
aaa(lp1777
(lp1778
I20
aI18
aI180
aaa(lp1779
(lp1780
I1
aI5
aI180
aa(lp1781
I1
aI6
aI180
aa(lp1782
I1
aI7
aI180
aa(lp1783
I1
aI8
aI180
aa(lp1784
I1
aI9
aI180
aa(lp1785
I1
aI9
aI270
aa(lp1786
I0
aI9
aI270
aaa(lp1787
(lp1788
I23
aI23
aI90
aa(lp1789
I23
aI23
aI0
aaa(lp1790
(lp1791
I15
aI20
aI0
aa(lp1792
I15
aI19
aI0
aa(lp1793
I15
aI18
aI0
aaa(lp1794
(lp1795
I22
aI17
aI-1
aa(lp1796
I22
aI17
aI90
aa(lp1797
I23
aI17
aI90
aaa(lp1798
(lp1799
I23
aI21
aI90
aa(lp1800
I23
aI21
aI0
aa(lp1801
I23
aI20
aI0
aa(lp1802
I23
aI19
aI0
aa(lp1803
I23
aI18
aI0
aaa(lp1804
(lp1805
I19
aI19
aI90
aa(lp1806
I19
aI19
aI0
aaa(lp1807
(lp1808
I23
aI21
aI270
aa(lp1809
I23
aI21
aI180
aa(lp1810
I23
aI22
aI180
aa(lp1811
I23
aI23
aI180
aa(lp1812
I23
aI23
aI270
aaa(lp1813
(lp1814
I1
aI9
aI90
aaa(lp1815
(lp1816
I21
aI24
aI270
aa(lp1817
I20
aI24
aI270
aa(lp1818
I19
aI24
aI270
aaa(lp1819
(lp1820
I23
aI21
aI90
aa(lp1821
I23
aI21
aI0
aaa(lp1822
(lp1823
I24
aI21
aI-1
aa(lp1824
I24
aI21
aI270
aaa(lp1825
(lp1826
I21
aI24
aI270
aa(lp1827
I20
aI24
aI270
aa(lp1828
I19
aI24
aI270
aaa(lp1829
(lp1830
I0
aI5
aI270
aa(lp1831
I0
aI5
aI180
aa(lp1832
I0
aI6
aI180
aa(lp1833
I0
aI7
aI180
aa(lp1834
I0
aI8
aI180
aa(lp1835
I0
aI9
aI180
aa(lp1836
I0
aI10
aI180
aa(lp1837
I0
aI11
aI180
aa(lp1838
I0
aI12
aI180
aa(lp1839
I0
aI12
aI90
aa(lp1840
I1
aI12
aI90
aa(lp1841
I1
aI12
aI0
aa(lp1842
I1
aI11
aI0
aa(lp1843
I1
aI11
aI270
aa(lp1844
I0
aI11
aI270
aa(lp1845
I0
aI11
aI0
aa(lp1846
I0
aI10
aI0
aa(lp1847
I0
aI10
aI90
aa(lp1848
I1
aI10
aI90
aa(lp1849
I2
aI10
aI90
aa(lp1850
I2
aI10
aI0
aa(lp1851
I2
aI9
aI0
aa(lp1852
I2
aI8
aI0
aa(lp1853
I2
aI8
aI90
aa(lp1854
I3
aI8
aI90
aa(lp1855
I3
aI8
aI0
aa(lp1856
I3
aI7
aI0
aa(lp1857
I3
aI6
aI0
aa(lp1858
I3
aI5
aI0
aaa(lp1859
(lp1860
I0
aI7
aI90
aa(lp1861
I1
aI7
aI90
aaa(lp1862
(lp1863
I0
aI11
aI90
aa(lp1864
I1
aI11
aI90
aaa(lp1865
(lp1866
I21
aI24
aI0
aa(lp1867
I21
aI23
aI0
aa(lp1868
I21
aI23
aI90
aaa(lp1869
(lp1870
I15
aI20
aI0
aa(lp1871
I15
aI19
aI0
aa(lp1872
I15
aI18
aI0
aaa(lp1873
(lp1874
I17
aI17
aI-1
aa(lp1875
I17
aI17
aI180
aaa(lp1876
(lp1877
I1
aI11
aI-1
aa(lp1878
I1
aI11
aI270
aaa(lp1879
(lp1880
I22
aI23
aI270
aa(lp1881
I21
aI23
aI270
aaa(lp1882
(lp1883
I23
aI18
aI180
aa(lp1884
I23
aI19
aI180
aa(lp1885
I23
aI20
aI180
aa(lp1886
I23
aI21
aI180
aa(lp1887
I23
aI22
aI180
aa(lp1888
I23
aI23
aI180
aaa(lp1889
(lp1890
I23
aI18
aI-1
aa(lp1891
I23
aI18
aI180
aa(lp1892
I23
aI19
aI180
aa(lp1893
I23
aI20
aI180
aa(lp1894
I23
aI21
aI180
aa(lp1895
I23
aI22
aI180
aa(lp1896
I23
aI23
aI180
aa(lp1897
I23
aI23
aI270
aa(lp1898
I22
aI23
aI270
aa(lp1899
I21
aI23
aI270
aa(lp1900
I21
aI23
aI180
aa(lp1901
I21
aI23
aI90
aa(lp1902
I21
aI23
aI0
aa(lp1903
I21
aI22
aI0
aa(lp1904
I21
aI21
aI0
aaa(lp1905
(lp1906
I23
aI21
aI0
aa(lp1907
I23
aI20
aI0
aa(lp1908
I23
aI19
aI0
aa(lp1909
I23
aI18
aI0
aa(lp1910
I23
aI17
aI0
aaa(lp1911
(lp1912
I3
aI8
aI0
aa(lp1913
I3
aI7
aI0
aa(lp1914
I3
aI6
aI0
aa(lp1915
I3
aI5
aI0
aa(lp1916
I3
aI5
aI270
aaa(lp1917
(lp1918
I3
aI5
aI-1
aa(lp1919
I3
aI5
aI270
aa(lp1920
I2
aI5
aI270
aa(lp1921
I1
aI5
aI270
aaa(lp1922
(lp1923
I23
aI16
aI-1
aa(lp1924
I23
aI16
aI270
aaa(lp1925
(lp1926
I18
aI17
aI90
aa(lp1927
I18
aI17
aI0
aa(lp1928
I18
aI16
aI0
aaa(lp1929
(lp1930
I20
aI16
aI0
aa(lp1931
I20
aI16
aI270
aaa(lp1932
(lp1933
I17
aI18
aI180
aa(lp1934
I17
aI18
aI90
aaa(lp1935
(lp1936
I21
aI21
aI270
aaa(lp1937
(lp1938
I20
aI17
aI0
aaa(lp1939
(lp1940
I22
aI23
aI-1
aa(lp1941
I22
aI23
aI90
aaa(lp1942
(lp1943
I0
aI10
aI180
aa(lp1944
I0
aI11
aI180
aa(lp1945
I0
aI11
aI90
aaa(lp1946
(lp1947
I21
aI24
aI0
aaa(lp1948
(lp1949
I3
aI6
aI0
aa(lp1950
I3
aI5
aI0
aaa(lp1951
(lp1952
I24
aI23
aI270
aaa(lp1953
(lp1954
I23
aI18
aI-1
aa(lp1955
I23
aI18
aI0
aa(lp1956
I23
aI17
aI0
aaa(lp1957
(lp1958
I20
aI18
aI180
aa(lp1959
I20
aI18
aI270
aaa(lp1960
(lp1961
I20
aI18
aI180
aa(lp1962
I20
aI18
aI270
aaa(lp1963
(lp1964
I1
aI9
aI-1
aa(lp1965
I1
aI9
aI270
aaa(lp1966
(lp1967
I20
aI18
aI0
aa(lp1968
I20
aI17
aI0
aa(lp1969
I20
aI16
aI0
aa(lp1970
I20
aI16
aI270
aaa(lp1971
(lp1972
I18
aI19
aI-1
aa(lp1973
I18
aI19
aI90
aa(lp1974
I19
aI19
aI90
aa(lp1975
I19
aI19
aI0
aaa(lp1976
(lp1977
I1
aI6
aI-1
aa(lp1978
I1
aI6
aI180
aa(lp1979
I1
aI7
aI180
aa(lp1980
I1
aI7
aI90
aa(lp1981
I2
aI7
aI90
aaa(lp1982
(lp1983
I17
aI18
aI180
aa(lp1984
I17
aI18
aI270
aaa(lp1985
(lp1986
I19
aI23
aI-1
aa(lp1987
I19
aI23
aI180
aa(lp1988
I19
aI24
aI180
aaa(lp1989
(lp1990
I19
aI18
aI180
aa(lp1991
I19
aI19
aI180
aa(lp1992
I19
aI19
aI270
aa(lp1993
I18
aI19
aI270
aaa(lp1994
(lp1995
I0
aI11
aI180
aa(lp1996
I0
aI11
aI90
aaa(lp1997
(lp1998
I20
aI18
aI90
aa(lp1999
I20
aI18
aI0
aaa(lp2000
(lp2001
I24
aI21
aI90
aa(lp2002
I24
aI21
aI0
aa(lp2003
I24
aI21
aI270
aa(lp2004
I23
aI21
aI270
aaa(lp2005
(lp2006
I20
aI18
aI270
aa(lp2007
I19
aI18
aI270
aa(lp2008
I18
aI18
aI270
aaa(lp2009
(lp2010
I20
aI17
aI90
aa(lp2011
I21
aI17
aI90
aa(lp2012
I22
aI17
aI90
aa(lp2013
I22
aI17
aI0
aaa(lp2014
(lp2015
I16
aI18
aI-1
aa(lp2016
I16
aI18
aI180
aa(lp2017
I16
aI19
aI180
aa(lp2018
I16
aI19
aI90
aa(lp2019
I17
aI19
aI90
aa(lp2020
I17
aI19
aI0
aa(lp2021
I17
aI18
aI0
aa(lp2022
I17
aI18
aI90
aa(lp2023
I18
aI18
aI90
aa(lp2024
I19
aI18
aI90
aa(lp2025
I20
aI18
aI90
aa(lp2026
I20
aI18
aI0
aa(lp2027
I20
aI17
aI0
aaa(lp2028
(lp2029
I18
aI19
aI90
aa(lp2030
I19
aI19
aI90
aaa(lp2031
(lp2032
I21
aI24
aI270
aa(lp2033
I20
aI24
aI270
aaa(lp2034
(lp2035
I20
aI18
aI90
aa(lp2036
I20
aI18
aI0
aaa(lp2037
(lp2038
I19
aI19
aI0
aa(lp2039
I19
aI18
aI0
aaa(lp2040
(lp2041
I1
aI11
aI-1
aa(lp2042
I1
aI11
aI270
aaa(lp2043
(lp2044
I0
aI11
aI90
aa(lp2045
I1
aI11
aI90
aaa(lp2046
(lp2047
I0
aI9
aI0
aa(lp2048
I0
aI8
aI0
aa(lp2049
I0
aI7
aI0
aaa(lp2050
(lp2051
I1
aI6
aI-1
aa(lp2052
I1
aI6
aI0
aaa(lp2053
(lp2054
I21
aI21
aI90
aa(lp2055
I22
aI21
aI90
aa(lp2056
I23
aI21
aI90
aa(lp2057
I23
aI21
aI0
aa(lp2058
I23
aI20
aI0
aa(lp2059
I23
aI19
aI0
aa(lp2060
I23
aI18
aI0
aa(lp2061
I23
aI17
aI0
aa(lp2062
I23
aI17
aI270
aa(lp2063
I22
aI17
aI270
aaa(lp2064
(lp2065
I21
aI21
aI90
aa(lp2066
I22
aI21
aI90
aa(lp2067
I23
aI21
aI90
aa(lp2068
I24
aI21
aI90
aaa(lp2069
(lp2070
I19
aI15
aI90
aa(lp2071
I20
aI15
aI90
aa(lp2072
I21
aI15
aI90
aa(lp2073
I22
aI15
aI90
aa(lp2074
I23
aI15
aI90
aa(lp2075
I23
aI15
aI180
aaa(lp2076
(lp2077
I18
aI17
aI90
aa(lp2078
I18
aI17
aI0
aaa(lp2079
(lp2080
I21
aI21
aI-1
aa(lp2081
I21
aI21
aI90
aaa(lp2082
(lp2083
I1
aI9
aI-1
aa(lp2084
I1
aI9
aI0
aaa(lp2085
(lp2086
I23
aI21
aI90
aa(lp2087
I23
aI21
aI0
aaa(lp2088
(lp2089
I19
aI19
aI90
aa(lp2090
I19
aI19
aI0
aaa(lp2091
(lp2092
I3
aI8
aI0
aa(lp2093
I3
aI8
aI90
aaa(lp2094
(lp2095
I22
aI23
aI90
aa(lp2096
I23
aI23
aI90
aaa(lp2097
(lp2098
I21
aI24
aI270
aa(lp2099
I20
aI24
aI270
aa(lp2100
I19
aI24
aI270
aaa(lp2101
(lp2102
I1
aI6
aI180
aa(lp2103
I1
aI7
aI180
aa(lp2104
I1
aI8
aI180
aa(lp2105
I1
aI9
aI180
aa(lp2106
I1
aI9
aI270
aaa(lp2107
(lp2108
I3
aI5
aI-1
aa(lp2109
I3
aI5
aI270
aaa(lp2110
(lp2111
I20
aI17
aI0
aaa(lp2112
(lp2113
I23
aI21
aI0
aa(lp2114
I23
aI20
aI0
aaa(lp2115
(lp2116
I15
aI17
aI270
aa(lp2117
I15
aI17
aI180
aaa(lp2118
(lp2119
I1
aI12
aI180
aa(lp2120
I1
aI12
aI270
aa(lp2121
I0
aI12
aI270
aa(lp2122
I0
aI12
aI0
aa(lp2123
I0
aI11
aI0
aa(lp2124
I0
aI10
aI0
aa(lp2125
I0
aI9
aI0
aa(lp2126
I0
aI8
aI0
aa(lp2127
I0
aI7
aI0
aa(lp2128
I0
aI6
aI0
aaa(lp2129
(lp2130
I22
aI16
aI90
aa(lp2131
I23
aI16
aI90
aaa(lp2132
(lp2133
I22
aI17
aI90
aa(lp2134
I23
aI17
aI90
aaa(lp2135
(lp2136
I1
aI11
aI270
aa(lp2137
I0
aI11
aI270
aaa(lp2138
(lp2139
I17
aI18
aI270
aa(lp2140
I16
aI18
aI270
aaa(lp2141
(lp2142
I21
aI23
aI180
aa(lp2143
I21
aI24
aI180
aaa(lp2144
(lp2145
I21
aI24
aI0
aa(lp2146
I21
aI23
aI0
aaa(lp2147
(lp2148
I17
aI18
aI0
aa(lp2149
I17
aI17
aI0
aaa(lp2150
(lp2151
I21
aI24
aI180
aa(lp2152
I21
aI24
aI270
aaa(lp2153
(lp2154
I20
aI17
aI270
aa(lp2155
I20
aI17
aI180
aaa(lp2156
(lp2157
I19
aI16
aI0
aa(lp2158
I19
aI15
aI0
aa(lp2159
I19
aI15
aI90
aaa(lp2160
(lp2161
I18
aI19
aI-1
aa(lp2162
I18
aI19
aI90
aa(lp2163
I19
aI19
aI90
aaa(lp2164
(lp2165
I20
aI18
aI270
aa(lp2166
I19
aI18
aI270
aa(lp2167
I19
aI18
aI180
aaa(lp2168
(lp2169
I20
aI17
aI0
aa(lp2170
I20
aI17
aI90
aaa(lp2171
(lp2172
I21
aI23
aI0
aa(lp2173
I21
aI22
aI0
aa(lp2174
I21
aI21
aI0
aaa(lp2175
(lp2176
I23
aI18
aI-1
aa(lp2177
I23
aI18
aI0
aa(lp2178
I23
aI17
aI0
aa(lp2179
I23
aI17
aI270
aa(lp2180
I22
aI17
aI270
aaa(lp2181
(lp2182
I23
aI18
aI180
aa(lp2183
I23
aI19
aI180
aa(lp2184
I23
aI20
aI180
aa(lp2185
I23
aI21
aI180
aa(lp2186
I23
aI22
aI180
aa(lp2187
I23
aI23
aI180
aaa(lp2188
(lp2189
I0
aI11
aI0
aa(lp2190
I0
aI10
aI0
aa(lp2191
I0
aI9
aI0
aa(lp2192
I0
aI8
aI0
aa(lp2193
I0
aI7
aI0
aa(lp2194
I0
aI6
aI0
aa(lp2195
I0
aI5
aI0
aaa(lp2196
(lp2197
I23
aI20
aI180
aa(lp2198
I23
aI21
aI180
aaa(lp2199
(lp2200
I23
aI21
aI0
aa(lp2201
I23
aI20
aI0
aa(lp2202
I23
aI19
aI0
aa(lp2203
I23
aI18
aI0
aaa(lp2204
(lp2205
I22
aI17
aI270
aa(lp2206
I21
aI17
aI270
aa(lp2207
I20
aI17
aI270
aaa(lp2208
(lp2209
I3
aI8
aI-1
aa(lp2210
I3
aI8
aI0
aaa(lp2211
(lp2212
I1
aI5
aI90
aa(lp2213
I2
aI5
aI90
aa(lp2214
I3
aI5
aI90
aaa(lp2215
(lp2216
I18
aI19
aI90
aa(lp2217
I19
aI19
aI90
aaa(lp2218
(lp2219
I0
aI11
aI0
aa(lp2220
I0
aI10
aI0
aa(lp2221
I0
aI9
aI0
aa(lp2222
I0
aI8
aI0
aa(lp2223
I0
aI7
aI0
aa(lp2224
I0
aI6
aI0
aaa(lp2225
(lp2226
I3
aI5
aI-1
aa(lp2227
I3
aI5
aI180
aaa(lp2228
(lp2229
I21
aI21
aI90
aa(lp2230
I22
aI21
aI90
aa(lp2231
I23
aI21
aI90
aaa(lp2232
(lp2233
I18
aI17
aI180
aa(lp2234
I18
aI17
aI270
aa(lp2235
I17
aI17
aI270
aaa(lp2236
(lp2237
I21
aI23
aI180
aa(lp2238
I21
aI24
aI180
aaa(lp2239
(lp2240
I23
aI21
aI180
aa(lp2241
I23
aI21
aI90
aa(lp2242
I24
aI21
aI90
aaa(lp2243
(lp2244
I16
aI18
aI180
aa(lp2245
I16
aI18
aI90
aaa(lp2246
(lp2247
I21
aI21
aI0
aa(lp2248
I21
aI21
aI90
aaa(lp2249
(lp2250
I22
aI23
aI-1
aa(lp2251
I22
aI23
aI90
aaa(lp2252
(lp2253
I23
aI16
aI-1
aa(lp2254
I23
aI16
aI270
aa(lp2255
I22
aI16
aI270
aaa(lp2256
(lp2257
I17
aI18
aI0
aa(lp2258
I17
aI17
aI0
aaa(lp2259
(lp2260
I21
aI23
aI90
aa(lp2261
I22
aI23
aI90
aa(lp2262
I23
aI23
aI90
aaa(lp2263
(lp2264
I19
aI18
aI90
aa(lp2265
I20
aI18
aI90
aaa(lp2266
(lp2267
I21
aI23
aI0
aa(lp2268
I21
aI22
aI0
aa(lp2269
I21
aI21
aI0
aaa(lp2270
(lp2271
I23
aI17
aI270
aa(lp2272
I22
aI17
aI270
aaa(lp2273
(lp2274
I20
aI16
aI0
aa(lp2275
I20
aI16
aI270
aaa(lp2276
(lp2277
I1
aI6
aI270
aaa(lp2278
(lp2279
I23
aI23
aI90
aa(lp2280
I23
aI23
aI180
aa(lp2281
I23
aI24
aI180
aa(lp2282
I23
aI24
aI90
aa(lp2283
I23
aI24
aI0
aa(lp2284
I23
aI23
aI0
aa(lp2285
I23
aI22
aI0
aa(lp2286
I23
aI21
aI0
aa(lp2287
I23
aI20
aI0
aa(lp2288
I23
aI19
aI0
aa(lp2289
I23
aI18
aI0
aa(lp2290
I23
aI17
aI0
aa(lp2291
I23
aI17
aI90
aa(lp2292
I23
aI17
aI180
aa(lp2293
I23
aI18
aI180
aaa(lp2294
(lp2295
I20
aI18
aI270
aa(lp2296
I19
aI18
aI270
aa(lp2297
I18
aI18
aI270
aa(lp2298
I17
aI18
aI270
aa(lp2299
I16
aI18
aI270
aa(lp2300
I15
aI18
aI270
aaa(lp2301
(lp2302
I19
aI24
aI270
aa(lp2303
I19
aI24
aI0
aa(lp2304
I19
aI23
aI0
aaa(lp2305
(lp2306
I19
aI18
aI270
aa(lp2307
I18
aI18
aI270
aa(lp2308
I17
aI18
aI270
aa(lp2309
I16
aI18
aI270
aa(lp2310
I15
aI18
aI270
aaa(lp2311
(lp2312
I3
aI5
aI-1
aa(lp2313
I3
aI5
aI270
aa(lp2314
I2
aI5
aI270
aa(lp2315
I1
aI5
aI270
aa(lp2316
I0
aI5
aI270
aaa(lp2317
(lp2318
I23
aI23
aI0
aa(lp2319
I23
aI22
aI0
aa(lp2320
I23
aI21
aI0
aa(lp2321
I23
aI20
aI0
aa(lp2322
I23
aI19
aI0
aa(lp2323
I23
aI18
aI0
aaa(lp2324
(lp2325
I20
aI16
aI180
aa(lp2326
I20
aI17
aI180
aa(lp2327
I20
aI18
aI180
aaa(lp2328
(lp2329
I15
aI18
aI90
aa(lp2330
I16
aI18
aI90
aa(lp2331
I17
aI18
aI90
aa(lp2332
I18
aI18
aI90
aa(lp2333
I19
aI18
aI90
aa(lp2334
I20
aI18
aI90
aaa(lp2335
(lp2336
I0
aI9
aI180
aaa(lp2337
(lp2338
I17
aI17
aI90
aa(lp2339
I18
aI17
aI90
aa(lp2340
I18
aI17
aI0
aaa(lp2341
(lp2342
I17
aI17
aI180
aa(lp2343
I17
aI18
aI180
aaa(lp2344
(lp2345
I0
aI11
aI180
aa(lp2346
I0
aI11
aI90
aa(lp2347
I1
aI11
aI90
aaa(lp2348
(lp2349
I21
aI23
aI270
aa(lp2350
I21
aI23
aI180
aaa(lp2351
(lp2352
I3
aI6
aI270
aaa(lp2353
(lp2354
I3
aI8
aI180
aaa(lp2355
(lp2356
I20
aI17
aI270
aa(lp2357
I20
aI17
aI180
aaa(lp2358
(lp2359
I23
aI16
aI-1
aa(lp2360
I23
aI16
aI270
aa(lp2361
I22
aI16
aI270
aa(lp2362
I22
aI16
aI180
aa(lp2363
I22
aI17
aI180
aa(lp2364
I22
aI17
aI270
aa(lp2365
I21
aI17
aI270
aa(lp2366
I20
aI17
aI270
aa(lp2367
I20
aI17
aI180
aa(lp2368
I20
aI18
aI180
aa(lp2369
I20
aI18
aI270
aa(lp2370
I19
aI18
aI270
aa(lp2371
I18
aI18
aI270
aa(lp2372
I17
aI18
aI270
aa(lp2373
I16
aI18
aI270
aaa(lp2374
(lp2375
I17
aI18
aI90
aa(lp2376
I18
aI18
aI90
aa(lp2377
I19
aI18
aI90
aa(lp2378
I19
aI18
aI180
aaa(lp2379
(lp2380
I19
aI23
aI-1
aa(lp2381
I19
aI23
aI180
aa(lp2382
I19
aI24
aI180
aa(lp2383
I19
aI24
aI90
aa(lp2384
I20
aI24
aI90
aa(lp2385
I21
aI24
aI90
aa(lp2386
I21
aI24
aI0
aa(lp2387
I21
aI23
aI0
aa(lp2388
I21
aI23
aI90
aaa(lp2389
(lp2390
I19
aI19
aI90
aa(lp2391
I19
aI19
aI0
aaa(lp2392
(lp2393
I23
aI20
aI0
aa(lp2394
I23
aI19
aI0
aa(lp2395
I23
aI18
aI0
aaa(lp2396
(lp2397
I24
aI21
aI-1
aa(lp2398
I24
aI21
aI270
aaa(lp2399
(lp2400
I15
aI17
aI180
aa(lp2401
I15
aI18
aI180
aa(lp2402
I15
aI19
aI180
aa(lp2403
I15
aI20
aI180
aaa(lp2404
(lp2405
I1
aI6
aI-1
aa(lp2406
I1
aI6
aI270
aaa(lp2407
(lp2408
I1
aI9
aI90
aa(lp2409
I1
aI9
aI0
aa(lp2410
I1
aI8
aI0
aa(lp2411
I1
aI7
aI0
aa(lp2412
I1
aI6
aI0
aaa(lp2413
(lp2414
I24
aI21
aI-1
aa(lp2415
I24
aI21
aI270
aa(lp2416
I23
aI21
aI270
aaa(lp2417
(lp2418
I21
aI21
aI-1
aa(lp2419
I21
aI21
aI90
aa(lp2420
I22
aI21
aI90
aa(lp2421
I23
aI21
aI90
aa(lp2422
I24
aI21
aI90
aaa(lp2423
(lp2424
I0
aI6
aI180
aa(lp2425
I0
aI7
aI180
aa(lp2426
I0
aI8
aI180
aa(lp2427
I0
aI9
aI180
aa(lp2428
I0
aI10
aI180
aa(lp2429
I0
aI11
aI180
aaa(lp2430
(lp2431
I0
aI9
aI0
aa(lp2432
I0
aI8
aI0
aa(lp2433
I0
aI7
aI0
aa(lp2434
I0
aI6
aI0
aa(lp2435
I0
aI5
aI0
aaa(lp2436
(lp2437
I1
aI6
aI-1
aa(lp2438
I1
aI6
aI180
aaa(lp2439
(lp2440
I17
aI18
aI180
aa(lp2441
I17
aI18
aI90
aaa(lp2442
(lp2443
I19
aI19
aI180
aa(lp2444
I19
aI19
aI270
aaa(lp2445
(lp2446
I21
aI17
aI-1
aa(lp2447
I21
aI17
aI270
aaa(lp2448
(lp2449
I0
aI9
aI90
aa(lp2450
I1
aI9
aI90
aaa(lp2451
(lp2452
I22
aI17
aI-1
aa(lp2453
I22
aI17
aI90
aa(lp2454
I23
aI17
aI90
aaa(lp2455
(lp2456
I19
aI16
aI-1
aa(lp2457
I19
aI16
aI0
aaa(lp2458
(lp2459
I0
aI9
aI-1
aa(lp2460
I0
aI9
aI0
aa(lp2461
I0
aI8
aI0
aa(lp2462
I0
aI7
aI0
aa(lp2463
I0
aI6
aI0
aa(lp2464
I0
aI5
aI0
aa(lp2465
I0
aI5
aI90
aa(lp2466
I1
aI5
aI90
aa(lp2467
I2
aI5
aI90
aa(lp2468
I3
aI5
aI90
aaa(lp2469
(lp2470
I21
aI21
aI-1
aa(lp2471
I21
aI21
aI180
aa(lp2472
I21
aI21
aI90
aaa(lp2473
(lp2474
I20
aI16
aI90
aa(lp2475
I20
aI16
aI180
aaa(lp2476
(lp2477
I20
aI17
aI0
aaa(lp2478
(lp2479
I0
aI9
aI270
aa(lp2480
I0
aI9
aI180
aaa(lp2481
(lp2482
I23
aI20
aI0
aa(lp2483
I23
aI19
aI0
aa(lp2484
I23
aI18
aI0
aa(lp2485
I23
aI17
aI0
aa(lp2486
I23
aI17
aI270
aaa(lp2487
(lp2488
I0
aI5
aI0
aaa(lp2489
(lp2490
I17
aI17
aI-1
aa(lp2491
I17
aI17
aI180
aa(lp2492
I17
aI17
aI90
aaa(lp2493
(lp2494
I20
aI18
aI90
aa(lp2495
I20
aI18
aI0
aaa(lp2496
(lp2497
I20
aI17
aI270
aa(lp2498
I20
aI17
aI180
aaa(lp2499
(lp2500
I21
aI23
aI180
aa(lp2501
I21
aI24
aI180
aa(lp2502
I21
aI24
aI270
aaa(lp2503
(lp2504
I17
aI18
aI270
aa(lp2505
I17
aI18
aI0
aa(lp2506
I17
aI17
aI0
aaa(lp2507
(lp2508
I23
aI18
aI180
aa(lp2509
I23
aI19
aI180
aa(lp2510
I23
aI20
aI180
aa(lp2511
I23
aI21
aI180
aa(lp2512
I23
aI21
aI270
aaa(lp2513
(lp2514
I21
aI24
aI270
aa(lp2515
I20
aI24
aI270
aa(lp2516
I19
aI24
aI270
aa(lp2517
I19
aI24
aI0
aaa(lp2518
(lp2519
I1
aI9
aI-1
aa(lp2520
I1
aI9
aI0
aaa(lp2521
(lp2522
I19
aI15
aI180
aa(lp2523
I19
aI16
aI180
aaa(lp2524
(lp2525
I19
aI18
aI180
aa(lp2526
I19
aI19
aI180
aa(lp2527
I19
aI19
aI270
aa(lp2528
I18
aI19
aI270
aaa(lp2529
(lp2530
I1
aI6
aI-1
aa(lp2531
I1
aI6
aI180
aaa(lp2532
(lp2533
I21
aI23
aI90
aa(lp2534
I22
aI23
aI90
aaa(lp2535
(lp2536
I21
aI21
aI180
aa(lp2537
I21
aI21
aI90
aaa(lp2538
(lp2539
I21
aI23
aI-1
aa(lp2540
I21
aI23
aI270
aaa(lp2541
(lp2542
I23
aI21
aI90
aa(lp2543
I23
aI21
aI0
aaa(lp2544
(lp2545
I20
aI17
aI0
aa(lp2546
I20
aI17
aI90
aaa(lp2547
(lp2548
I22
aI23
aI-1
aa(lp2549
I22
aI23
aI270
aa(lp2550
I21
aI23
aI270
aaa(lp2551
(lp2552
I19
aI19
aI90
aa(lp2553
I19
aI19
aI0
aaa(lp2554
(lp2555
I24
aI21
aI270
aa(lp2556
I23
aI21
aI270
aa(lp2557
I23
aI21
aI0
aaa(lp2558
(lp2559
I23
aI18
aI-1
aa(lp2560
I23
aI18
aI180
aaa(lp2561
(lp2562
I19
aI23
aI180
aa(lp2563
I19
aI24
aI180
aaa(lp2564
(lp2565
I15
aI18
aI90
aa(lp2566
I16
aI18
aI90
aa(lp2567
I17
aI18
aI90
aa(lp2568
I18
aI18
aI90
aa(lp2569
I19
aI18
aI90
aa(lp2570
I20
aI18
aI90
aaa(lp2571
(lp2572
I20
aI18
aI180
aa(lp2573
I20
aI18
aI270
aa(lp2574
I19
aI18
aI270
aa(lp2575
I18
aI18
aI270
aa(lp2576
I17
aI18
aI270
aa(lp2577
I16
aI18
aI270
aa(lp2578
I15
aI18
aI270
aaa(lp2579
(lp2580
I23
aI21
aI90
aa(lp2581
I23
aI21
aI0
aa(lp2582
I23
aI20
aI0
aa(lp2583
I23
aI19
aI0
aa(lp2584
I23
aI18
aI0
aa(lp2585
I23
aI17
aI0
aaa(lp2586
(lp2587
I21
aI21
aI90
aa(lp2588
I22
aI21
aI90
aaa(lp2589
(lp2590
I1
aI9
aI-1
aa(lp2591
I1
aI9
aI0
aa(lp2592
I1
aI8
aI0
aa(lp2593
I1
aI7
aI0
aa(lp2594
I1
aI6
aI0
aa(lp2595
I1
aI5
aI0
aa(lp2596
I1
aI5
aI270
aa(lp2597
I1
aI5
aI180
aa(lp2598
I1
aI6
aI180
aa(lp2599
I1
aI7
aI180
aa(lp2600
I1
aI8
aI180
aa(lp2601
I1
aI8
aI270
aa(lp2602
I0
aI8
aI270
aa(lp2603
I0
aI8
aI180
aa(lp2604
I0
aI8
aI90
aa(lp2605
I1
aI8
aI90
aa(lp2606
I2
aI8
aI90
aa(lp2607
I3
aI8
aI90
aaa(lp2608
(lp2609
I23
aI17
aI180
aa(lp2610
I23
aI18
aI180
aa(lp2611
I23
aI19
aI180
aa(lp2612
I23
aI20
aI180
aa(lp2613
I23
aI21
aI180
aa(lp2614
I23
aI22
aI180
aa(lp2615
I23
aI23
aI180
aaa(lp2616
(lp2617
I20
aI17
aI90
aa(lp2618
I21
aI17
aI90
aa(lp2619
I22
aI17
aI90
aaa(lp2620
(lp2621
I17
aI17
aI90
aa(lp2622
I18
aI17
aI90
aa(lp2623
I18
aI17
aI0
aaa(lp2624
(lp2625
I0
aI9
aI-1
aa(lp2626
I0
aI9
aI0
aa(lp2627
I0
aI8
aI0
aa(lp2628
I0
aI7
aI0
aa(lp2629
I0
aI6
aI0
aa(lp2630
I0
aI6
aI90
aaa(lp2631
(lp2632
I3
aI5
aI-1
aa(lp2633
I3
aI5
aI270
aaa(lp2634
(lp2635
I21
aI23
aI-1
aa(lp2636
I21
aI23
aI90
aa(lp2637
I22
aI23
aI90
aaa(lp2638
(lp2639
I19
aI23
aI-1
aa(lp2640
I19
aI23
aI180
aa(lp2641
I19
aI24
aI180
aa(lp2642
I19
aI24
aI90
aaa(lp2643
(lp2644
I1
aI11
aI270
aa(lp2645
I0
aI11
aI270
aaa(lp2646
(lp2647
I1
aI6
aI-1
aa(lp2648
I1
aI6
aI180
aaa(lp2649
(lp2650
I19
aI16
aI-1
aa(lp2651
I19
aI16
aI90
aaa(lp2652
(lp2653
I23
aI17
aI270
aa(lp2654
I22
aI17
aI270
aaa(lp2655
(lp2656
I19
aI18
aI180
aa(lp2657
I19
aI19
aI180
aaa(lp2658
(lp2659
I21
aI23
aI180
aa(lp2660
I21
aI24
aI180
aaa(lp2661
(lp2662
I15
aI17
aI0
aa(lp2663
I15
aI17
aI90
aa(lp2664
I16
aI17
aI90
aa(lp2665
I17
aI17
aI90
aa(lp2666
I18
aI17
aI90
aa(lp2667
I18
aI17
aI0
aaa(lp2668
(lp2669
I23
aI17
aI180
aa(lp2670
I23
aI18
aI180
aa(lp2671
I23
aI19
aI180
aa(lp2672
I23
aI20
aI180
aa(lp2673
I23
aI21
aI180
aaa(lp2674
(lp2675
I21
aI23
aI180
aa(lp2676
I21
aI23
aI90
aaa(lp2677
(lp2678
I22
aI17
aI-1
aa(lp2679
I22
aI17
aI90
aaa(lp2680
(lp2681
I20
aI18
aI270
aa(lp2682
I19
aI18
aI270
aa(lp2683
I19
aI18
aI180
aaa(lp2684
(lp2685
I20
aI17
aI270
aa(lp2686
I20
aI17
aI180
aaa(lp2687
(lp2688
I19
aI16
aI-1
aa(lp2689
I19
aI16
aI0
aaa(lp2690
(lp2691
I19
aI16
aI90
aa(lp2692
I20
aI16
aI90
aaa(lp2693
(lp2694
I0
aI6
aI0
aa(lp2695
I0
aI6
aI90
aa(lp2696
I0
aI6
aI180
aa(lp2697
I0
aI7
aI180
aa(lp2698
I0
aI7
aI90
aa(lp2699
I1
aI7
aI90
aa(lp2700
I2
aI7
aI90
aaa(lp2701
(lp2702
I0
aI9
aI-1
aa(lp2703
I0
aI9
aI90
aa(lp2704
I1
aI9
aI90
aaa(lp2705
(lp2706
I20
aI18
aI180
aa(lp2707
I20
aI18
aI270
aaa(lp2708
(lp2709
I15
aI20
aI-1
aa(lp2710
I15
aI20
aI0
aa(lp2711
I15
aI19
aI0
aa(lp2712
I15
aI18
aI0
aaa(lp2713
(lp2714
I23
aI18
aI-1
aa(lp2715
I23
aI18
aI180
aa(lp2716
I23
aI19
aI180
aa(lp2717
I23
aI20
aI180
aa(lp2718
I23
aI21
aI180
aa(lp2719
I23
aI22
aI180
aa(lp2720
I23
aI23
aI180
aaa(lp2721
(lp2722
I1
aI11
aI-1
aa(lp2723
I1
aI11
aI270
aa(lp2724
I0
aI11
aI270
aa(lp2725
I0
aI11
aI0
aaa(lp2726
(lp2727
I17
aI18
aI0
aa(lp2728
I17
aI17
aI0
aaa(lp2729
(lp2730
I1
aI7
aI270
aa(lp2731
I1
aI7
aI0
aaa(lp2732
(lp2733
I23
aI21
aI90
aa(lp2734
I23
aI21
aI0
aaa(lp2735
(lp2736
I19
aI19
aI180
aa(lp2737
I19
aI19
aI270
aa(lp2738
I18
aI19
aI270
aaa(lp2739
(lp2740
I22
aI16
aI270
aa(lp2741
I22
aI16
aI180
aa(lp2742
I22
aI17
aI180
aaa(lp2743
(lp2744
I19
aI24
aI270
aa(lp2745
I19
aI24
aI0
aaa(lp2746
(lp2747
I1
aI11
aI270
aa(lp2748
I0
aI11
aI270
aaa(lp2749
(lp2750
I0
aI11
aI90
aa(lp2751
I1
aI11
aI90
aaa(lp2752
(lp2753
I1
aI6
aI180
aa(lp2754
I1
aI7
aI180
aa(lp2755
I1
aI8
aI180
aa(lp2756
I1
aI9
aI180
aaa(lp2757
(lp2758
I2
aI7
aI-1
aa(lp2759
I2
aI7
aI0
aa(lp2760
I2
aI7
aI270
aaa(lp2761
(lp2762
I21
aI17
aI270
aa(lp2763
I20
aI17
aI270
aa(lp2764
I20
aI17
aI180
aaa(lp2765
(lp2766
I0
aI8
aI270
aa(lp2767
I0
aI8
aI180
aaa(lp2768
(lp2769
I22
aI23
aI-1
aa(lp2770
I22
aI23
aI90
aaa(lp2771
(lp2772
I22
aI16
aI0
aa(lp2773
I22
aI16
aI90
aaa(lp2774
(lp2775
I21
aI23
aI90
aa(lp2776
I22
aI23
aI90
aaa(lp2777
(lp2778
I0
aI11
aI0
aa(lp2779
I0
aI10
aI0
aa(lp2780
I0
aI9
aI0
aa(lp2781
I0
aI8
aI0
aa(lp2782
I0
aI7
aI0
aa(lp2783
I0
aI6
aI0
aaa(lp2784
(lp2785
I23
aI23
aI270
aa(lp2786
I22
aI23
aI270
aaa(lp2787
(lp2788
I3
aI8
aI270
aa(lp2789
I2
aI8
aI270
aa(lp2790
I1
aI8
aI270
aa(lp2791
I0
aI8
aI270
aaa(lp2792
(lp2793
I22
aI23
aI270
aaa(lp2794
(lp2795
I19
aI24
aI180
aa(lp2796
I19
aI24
aI90
aaa(lp2797
(lp2798
I23
aI16
aI270
aa(lp2799
I22
aI16
aI270
aa(lp2800
I22
aI16
aI180
aa(lp2801
I22
aI17
aI180
aa(lp2802
I22
aI17
aI270
aaa(lp2803
(lp2804
I3
aI8
aI-1
aa(lp2805
I3
aI8
aI270
aaa(lp2806
(lp2807
I23
aI17
aI0
aa(lp2808
I23
aI17
aI270
aaa(lp2809
(lp2810
I21
aI24
aI0
aa(lp2811
I21
aI23
aI0
aa(lp2812
I21
aI22
aI0
aa(lp2813
I21
aI21
aI0
aaa(lp2814
(lp2815
I20
aI18
aI90
aa(lp2816
I20
aI18
aI0
aa(lp2817
I20
aI17
aI0
aaa(lp2818
(lp2819
I20
aI18
aI270
aaa(lp2820
(lp2821
I21
aI23
aI-1
aa(lp2822
I21
aI23
aI90
aaa(lp2823
(lp2824
I17
aI17
aI270
aaa(lp2825
(lp2826
I21
aI23
aI270
aa(lp2827
I21
aI23
aI0
aa(lp2828
I21
aI22
aI0
aa(lp2829
I21
aI21
aI0
aaa(lp2830
(lp2831
I0
aI11
aI0
aa(lp2832
I0
aI10
aI0
aa(lp2833
I0
aI9
aI0
aa(lp2834
I0
aI8
aI0
aa(lp2835
I0
aI7
aI0
aa(lp2836
I0
aI6
aI0
aaa(lp2837
(lp2838
I23
aI18
aI-1
aa(lp2839
I23
aI18
aI180
aaa(lp2840
(lp2841
I19
aI18
aI270
aa(lp2842
I18
aI18
aI270
aa(lp2843
I17
aI18
aI270
aa(lp2844
I16
aI18
aI270
aa(lp2845
I15
aI18
aI270
aaa(lp2846
(lp2847
I23
aI18
aI-1
aa(lp2848
I23
aI18
aI180
aa(lp2849
I23
aI19
aI180
aa(lp2850
I23
aI20
aI180
aa(lp2851
I23
aI21
aI180
aa(lp2852
I23
aI22
aI180
aa(lp2853
I23
aI23
aI180
aa(lp2854
I23
aI23
aI90
aaa(lp2855
(lp2856
I20
aI17
aI0
aaa(lp2857
(lp2858
I20
aI16
aI0
aa(lp2859
I20
aI16
aI270
aa(lp2860
I19
aI16
aI270
aaa(lp2861
(lp2862
I20
aI18
aI0
aa(lp2863
I20
aI17
aI0
aa(lp2864
I20
aI17
aI90
aaa(lp2865
(lp2866
I1
aI9
aI-1
aa(lp2867
I1
aI9
aI0
aa(lp2868
I1
aI9
aI270
aaa(lp2869
(lp2870
I21
aI24
aI0
aa(lp2871
I21
aI23
aI0
aa(lp2872
I21
aI23
aI90
aaa(lp2873
(lp2874
I19
aI16
aI90
aa(lp2875
I20
aI16
aI90
aa(lp2876
I20
aI16
aI180
aa(lp2877
I20
aI17
aI180
aa(lp2878
I20
aI17
aI90
aaa(lp2879
(lp2880
I23
aI19
aI90
aa(lp2881
I24
aI19
aI90
aaa(lp2882
(lp2883
I18
aI19
aI-1
aa(lp2884
I18
aI19
aI90
aa(lp2885
I19
aI19
aI90
aa(lp2886
I19
aI19
aI180
aa(lp2887
I19
aI20
aI180
aa(lp2888
I19
aI20
aI270
aa(lp2889
I19
aI20
aI0
aa(lp2890
I19
aI19
aI0
aa(lp2891
I19
aI18
aI0
aa(lp2892
I19
aI18
aI270
aa(lp2893
I18
aI18
aI270
aa(lp2894
I17
aI18
aI270
aa(lp2895
I16
aI18
aI270
aa(lp2896
I15
aI18
aI270
aa(lp2897
I15
aI18
aI0
aa(lp2898
I15
aI18
aI90
aa(lp2899
I16
aI18
aI90
aa(lp2900
I17
aI18
aI90
aa(lp2901
I17
aI18
aI0
aa(lp2902
I17
aI17
aI0
aa(lp2903
I17
aI17
aI90
aa(lp2904
I18
aI17
aI90
aa(lp2905
I18
aI17
aI0
aa(lp2906
I18
aI16
aI0
aa(lp2907
I18
aI16
aI90
aa(lp2908
I19
aI16
aI90
aaa(lp2909
(lp2910
I21
aI21
aI-1
aa(lp2911
I21
aI21
aI180
aa(lp2912
I21
aI21
aI90
aaa(lp2913
(lp2914
I22
aI17
aI0
aa(lp2915
I22
aI16
aI0
aaa(lp2916
(lp2917
I20
aI16
aI270
aa(lp2918
I19
aI16
aI270
aaa(lp2919
(lp2920
I20
aI18
aI270
aa(lp2921
I19
aI18
aI270
aa(lp2922
I19
aI18
aI180
aaa(lp2923
(lp2924
I20
aI17
aI0
aa(lp2925
I20
aI17
aI90
aaa(lp2926
(lp2927
I1
aI6
aI-1
aa(lp2928
I1
aI6
aI270
aaa(lp2929
(lp2930
I19
aI19
aI0
aa(lp2931
I19
aI18
aI0
aaa(lp2932
(lp2933
I1
aI9
aI0
aa(lp2934
I1
aI8
aI0
aa(lp2935
I1
aI7
aI0
aa(lp2936
I1
aI6
aI0
aaa(lp2937
(lp2938
I22
aI17
aI-1
aa(lp2939
I22
aI17
aI90
aaa(lp2940
(lp2941
I0
aI5
aI0
aa(lp2942
I0
aI5
aI90
aa(lp2943
I1
aI5
aI90
aa(lp2944
I2
aI5
aI90
aa(lp2945
I3
aI5
aI90
aaa(lp2946
(lp2947
I21
aI21
aI180
aa(lp2948
I21
aI22
aI180
aa(lp2949
I21
aI23
aI180
aaa(lp2950
(lp2951
I0
aI11
aI0
aa(lp2952
I0
aI10
aI0
aa(lp2953
I0
aI9
aI0
aa(lp2954
I0
aI8
aI0
aa(lp2955
I0
aI7
aI0
aa(lp2956
I0
aI6
aI0
aa(lp2957
I0
aI5
aI0
aaa(lp2958
(lp2959
I3
aI5
aI90
aaa(lp2960
(lp2961
I23
aI23
aI90
aa(lp2962
I23
aI23
aI0
aa(lp2963
I23
aI22
aI0
aa(lp2964
I23
aI21
aI0
aa(lp2965
I23
aI20
aI0
aa(lp2966
I23
aI19
aI0
aaa(lp2967
(lp2968
I1
aI6
aI-1
aa(lp2969
I1
aI6
aI270
aaa(lp2970
(lp2971
I21
aI23
aI270
aa(lp2972
I21
aI23
aI0
aaa(lp2973
(lp2974
I22
aI17
aI90
aa(lp2975
I22
aI17
aI0
aaa(lp2976
(lp2977
I23
aI18
aI-1
aa(lp2978
I23
aI18
aI180
aaa(lp2979
(lp2980
I20
aI18
aI0
aa(lp2981
I20
aI17
aI0
aaa(lp2982
(lp2983
I23
aI17
aI270
aa(lp2984
I22
aI17
aI270
aaa(lp2985
(lp2986
I0
aI9
aI90
aa(lp2987
I1
aI9
aI90
aaa(lp2988
(lp2989
I23
aI17
aI90
aa(lp2990
I23
aI17
aI180
aa(lp2991
I23
aI18
aI180
aa(lp2992
I23
aI19
aI180
aa(lp2993
I23
aI20
aI180
aa(lp2994
I23
aI21
aI180
aaa(lp2995
(lp2996
I21
aI21
aI180
aa(lp2997
I21
aI22
aI180
aa(lp2998
I21
aI23
aI180
aaa(lp2999
(lp3000
I22
aI23
aI270
aa(lp3001
I21
aI23
aI270
aa(lp3002
I21
aI23
aI0
aaa(lp3003
(lp3004
I3
aI6
aI0
aa(lp3005
I3
aI6
aI270
aaa(lp3006
(lp3007
I17
aI17
aI-1
aa(lp3008
I17
aI17
aI180
aaa(lp3009
(lp3010
I16
aI18
aI-1
aa(lp3011
I16
aI18
aI180
aaa(lp3012
(lp3013
I1
aI7
aI90
aa(lp3014
I2
aI7
aI90
aaa(lp3015
(lp3016
I23
aI21
aI180
aa(lp3017
I23
aI21
aI90
aaa(lp3018
(lp3019
I1
aI5
aI270
aa(lp3020
I1
aI5
aI180
aaa(lp3021
(lp3022
I16
aI18
aI-1
aa(lp3023
I16
aI18
aI270
aaa(lp3024
(lp3025
I0
aI11
aI270
aa(lp3026
I0
aI11
aI0
aaa(lp3027
(lp3028
I19
aI18
aI0
aa(lp3029
I19
aI18
aI270
aaa(lp3030
(lp3031
I17
aI18
aI0
aa(lp3032
I17
aI17
aI0
aa(lp3033
I17
aI17
aI90
aaa(lp3034
(lp3035
I15
aI20
aI-1
aa(lp3036
I15
aI20
aI0
aa(lp3037
I15
aI19
aI0
aa(lp3038
I15
aI18
aI0
aa(lp3039
I15
aI18
aI90
aa(lp3040
I16
aI18
aI90
aa(lp3041
I17
aI18
aI90
aa(lp3042
I18
aI18
aI90
aa(lp3043
I19
aI18
aI90
aa(lp3044
I20
aI18
aI90
aa(lp3045
I20
aI18
aI0
aa(lp3046
I20
aI17
aI0
aa(lp3047
I20
aI17
aI270
aa(lp3048
I20
aI17
aI180
aa(lp3049
I20
aI17
aI90
aa(lp3050
I21
aI17
aI90
aaa(lp3051
(lp3052
I22
aI16
aI180
aa(lp3053
I22
aI17
aI180
aaa(lp3054
(lp3055
I16
aI18
aI-1
aa(lp3056
I16
aI18
aI270
aa(lp3057
I15
aI18
aI270
aa(lp3058
I15
aI18
aI180
aaa(lp3059
(lp3060
I23
aI21
aI90
aa(lp3061
I24
aI21
aI90
aaa(lp3062
(lp3063
I24
aI23
aI270
aa(lp3064
I23
aI23
aI270
aa(lp3065
I22
aI23
aI270
aaa(lp3066
(lp3067
I20
aI16
aI270
aa(lp3068
I19
aI16
aI270
aaa(lp3069
(lp3070
I19
aI19
aI270
aa(lp3071
I18
aI19
aI270
aaa(lp3072
(lp3073
I23
aI16
aI270
aa(lp3074
I22
aI16
aI270
aa(lp3075
I22
aI16
aI180
aaa(lp3076
(lp3077
I22
aI23
aI270
aaa(lp3078
(lp3079
I1
aI9
aI-1
aa(lp3080
I1
aI9
aI270
aa(lp3081
I0
aI9
aI270
aa(lp3082
I0
aI9
aI180
aaa(lp3083
(lp3084
I1
aI6
aI180
aa(lp3085
I1
aI7
aI180
aa(lp3086
I1
aI8
aI180
aa(lp3087
I1
aI9
aI180
aaa(lp3088
(lp3089
I23
aI18
aI180
aa(lp3090
I23
aI19
aI180
aa(lp3091
I23
aI20
aI180
aa(lp3092
I23
aI21
aI180
aa(lp3093
I23
aI22
aI180
aa(lp3094
I23
aI23
aI180
aaa(lp3095
(lp3096
I15
aI20
aI0
aa(lp3097
I15
aI19
aI0
aa(lp3098
I15
aI18
aI0
aa(lp3099
I15
aI17
aI0
aaa(lp3100
(lp3101
I23
aI17
aI180
aa(lp3102
I23
aI18
aI180
aa(lp3103
I23
aI19
aI180
aa(lp3104
I23
aI20
aI180
aa(lp3105
I23
aI21
aI180
aaa(lp3106
(lp3107
I19
aI15
aI180
aa(lp3108
I19
aI16
aI180
aaa(lp3109
(lp3110
I18
aI19
aI90
aa(lp3111
I19
aI19
aI90
aaa(lp3112
(lp3113
I23
aI16
aI-1
aa(lp3114
I23
aI16
aI270
aaa(lp3115
(lp3116
I0
aI8
aI0
aa(lp3117
I0
aI8
aI90
aaa(lp3118
(lp3119
I2
aI7
aI-1
aa(lp3120
I2
aI7
aI0
aa(lp3121
I2
aI6
aI0
aaa(lp3122
(lp3123
I17
aI17
aI180
aa(lp3124
I17
aI18
aI180
aa(lp3125
I17
aI18
aI90
aa(lp3126
I18
aI18
aI90
aa(lp3127
I19
aI18
aI90
aa(lp3128
I20
aI18
aI90
aaa(lp3129
(lp3130
I23
aI18
aI-1
aa(lp3131
I23
aI18
aI180
aa(lp3132
I23
aI19
aI180
aa(lp3133
I23
aI20
aI180
aa(lp3134
I23
aI21
aI180
aa(lp3135
I23
aI22
aI180
aa(lp3136
I23
aI23
aI180
aaa(lp3137
(lp3138
I23
aI18
aI-1
aa(lp3139
I23
aI18
aI180
aa(lp3140
I23
aI19
aI180
aa(lp3141
I23
aI20
aI180
aa(lp3142
I23
aI21
aI180
aa(lp3143
I23
aI21
aI270
aaa(lp3144
(lp3145
I3
aI8
aI0
aa(lp3146
I3
aI7
aI0
aa(lp3147
I3
aI6
aI0
aa(lp3148
I3
aI5
aI0
aaa(lp3149
(lp3150
I15
aI18
aI90
aa(lp3151
I16
aI18
aI90
aaa(lp3152
(lp3153
I22
aI17
aI270
aaa(lp3154
(lp3155
I23
aI17
aI180
aa(lp3156
I23
aI18
aI180
aa(lp3157
I23
aI19
aI180
aa(lp3158
I23
aI20
aI180
aaa(lp3159
(lp3160
I23
aI18
aI180
aa(lp3161
I23
aI19
aI180
aa(lp3162
I23
aI20
aI180
aa(lp3163
I23
aI21
aI180
aaa(lp3164
(lp3165
I1
aI6
aI-1
aa(lp3166
I1
aI6
aI180
aaa(lp3167
(lp3168
I17
aI18
aI0
aa(lp3169
I17
aI17
aI0
aaa(lp3170
(lp3171
I23
aI21
aI0
aa(lp3172
I23
aI20
aI0
aa(lp3173
I23
aI19
aI0
aa(lp3174
I23
aI18
aI0
aa(lp3175
I23
aI17
aI0
aaa(lp3176
(lp3177
I0
aI5
aI0
aa(lp3178
I0
aI5
aI90
aaa(lp3179
(lp3180
I15
aI19
aI0
aaa(lp3181
(lp3182
I19
aI19
aI90
aa(lp3183
I19
aI19
aI0
aaa(lp3184
(lp3185
I1
aI11
aI270
aa(lp3186
I0
aI11
aI270
aaa(lp3187
(lp3188
I0
aI8
aI180
aa(lp3189
I0
aI9
aI180
aa(lp3190
I0
aI10
aI180
aa(lp3191
I0
aI11
aI180
aaa(lp3192
(lp3193
I22
aI17
aI-1
aa(lp3194
I22
aI17
aI90
aaa(lp3195
(lp3196
I19
aI19
aI90
aa(lp3197
I19
aI19
aI0
aaa(lp3198
(lp3199
I19
aI18
aI0
aa(lp3200
I19
aI18
aI90
aaa(lp3201
(lp3202
I23
aI17
aI0
aa(lp3203
I23
aI17
aI270
aaa(lp3204
(lp3205
I19
aI24
aI180
aa(lp3206
I19
aI24
aI90
aaa(lp3207
(lp3208
I22
aI16
aI270
aa(lp3209
I22
aI16
aI180
aaa(lp3210
(lp3211
I0
aI9
aI-1
aa(lp3212
I0
aI9
aI0
aaa(lp3213
(lp3214
I3
aI5
aI-1
aa(lp3215
I3
aI5
aI180
aa(lp3216
I3
aI6
aI180
aaa(lp3217
(lp3218
I21
aI24
aI270
aa(lp3219
I20
aI24
aI270
aa(lp3220
I19
aI24
aI270
aaa(lp3221
(lp3222
I23
aI21
aI0
aa(lp3223
I23
aI20
aI0
aa(lp3224
I23
aI19
aI0
aa(lp3225
I23
aI18
aI0
aaa(lp3226
(lp3227
I18
aI16
aI270
aa(lp3228
I18
aI16
aI180
aaa(lp3229
(lp3230
I20
aI17
aI180
aaa(lp3231
(lp3232
I0
aI9
aI90
aa(lp3233
I1
aI9
aI90
aaa(lp3234
(lp3235
I21
aI24
aI180
aa(lp3236
I21
aI24
aI270
aaa(lp3237
(lp3238
I21
aI21
aI0
aaa(lp3239
(lp3240
I22
aI23
aI90
aa(lp3241
I23
aI23
aI90
aa(lp3242
I23
aI23
aI0
aaa(lp3243
(lp3244
I22
aI17
aI270
aa(lp3245
I21
aI17
aI270
aaa(lp3246
(lp3247
I23
aI21
aI270
aa(lp3248
I22
aI21
aI270
aa(lp3249
I21
aI21
aI270
aaa(lp3250
(lp3251
I15
aI18
aI90
aa(lp3252
I16
aI18
aI90
aaa(lp3253
(lp3254
I1
aI11
aI-1
aa(lp3255
I1
aI11
aI270
aa(lp3256
I0
aI11
aI270
aaa(lp3257
(lp3258
I17
aI17
aI270
aa(lp3259
I16
aI17
aI270
aa(lp3260
I15
aI17
aI270
aa(lp3261
I15
aI17
aI180
aa(lp3262
I15
aI18
aI180
aa(lp3263
I15
aI19
aI180
aa(lp3264
I15
aI20
aI180
aaa(lp3265
(lp3266
I15
aI18
aI270
aa(lp3267
I15
aI18
aI180
aa(lp3268
I15
aI19
aI180
aa(lp3269
I15
aI20
aI180
aaa(lp3270
(lp3271
I19
aI18
aI180
aa(lp3272
I19
aI19
aI180
aa(lp3273
I19
aI19
aI270
aa(lp3274
I18
aI19
aI270
aaa(lp3275
(lp3276
I20
aI16
aI0
aa(lp3277
I20
aI16
aI270
aaa(lp3278
(lp3279
I19
aI16
aI0
aaa(lp3280
(lp3281
I3
aI8
aI-1
aa(lp3282
I3
aI8
aI0
aa(lp3283
I3
aI7
aI0
aaa(lp3284
(lp3285
I1
aI6
aI0
aa(lp3286
I1
aI5
aI0
aaa(lp3287
(lp3288
I0
aI8
aI180
aa(lp3289
I0
aI9
aI180
aaa(lp3290
(lp3291
I22
aI17
aI90
aa(lp3292
I22
aI17
aI0
aaa(lp3293
(lp3294
I3
aI7
aI90
aa(lp3295
I3
aI7
aI0
aaa(lp3296
(lp3297
I20
aI17
aI270
aa(lp3298
I20
aI17
aI0
aaa(lp3299
(lp3300
I15
aI18
aI0
aa(lp3301
I15
aI18
aI90
aa(lp3302
I16
aI18
aI90
aa(lp3303
I17
aI18
aI90
aa(lp3304
I18
aI18
aI90
aa(lp3305
I19
aI18
aI90
aa(lp3306
I20
aI18
aI90
aaa(lp3307
(lp3308
I15
aI18
aI0
aa(lp3309
I15
aI18
aI90
aaa(lp3310
(lp3311
I21
aI24
aI180
aa(lp3312
I21
aI24
aI270
aa(lp3313
I20
aI24
aI270
aa(lp3314
I19
aI24
aI270
aaa(lp3315
(lp3316
I21
aI17
aI-1
aa(lp3317
I21
aI17
aI270
aaa(lp3318
(lp3319
I19
aI23
aI-1
aa(lp3320
I19
aI23
aI180
aa(lp3321
I19
aI24
aI180
aa(lp3322
I19
aI24
aI90
aa(lp3323
I20
aI24
aI90
aa(lp3324
I21
aI24
aI90
aa(lp3325
I21
aI24
aI0
aaa(lp3326
(lp3327
I0
aI5
aI180
aa(lp3328
I0
aI6
aI180
aa(lp3329
I0
aI7
aI180
aa(lp3330
I0
aI8
aI180
aa(lp3331
I0
aI9
aI180
aa(lp3332
I0
aI10
aI180
aa(lp3333
I0
aI11
aI180
aaa(lp3334
(lp3335
I15
aI17
aI90
aa(lp3336
I16
aI17
aI90
aa(lp3337
I17
aI17
aI90
aa(lp3338
I18
aI17
aI90
aaa(lp3339
(lp3340
I21
aI24
aI0
aa(lp3341
I21
aI23
aI0
aaa(lp3342
(lp3343
I20
aI16
aI180
aa(lp3344
I20
aI17
aI180
aaa(lp3345
(lp3346
I23
aI21
aI270
aa(lp3347
I23
aI21
aI0
aaa(lp3348
(lp3349
I0
aI6
aI270
aa(lp3350
I0
aI6
aI180
aaa(lp3351
(lp3352
I19
aI24
aI0
aa(lp3353
I19
aI23
aI0
aaa(lp3354
(lp3355
I24
aI21
aI-1
aa(lp3356
I24
aI21
aI270
aaa(lp3357
(lp3358
I24
aI21
aI-1
aa(lp3359
I24
aI21
aI270
aaa(lp3360
(lp3361
I15
aI17
aI90
aa(lp3362
I16
aI17
aI90
aa(lp3363
I17
aI17
aI90
aaa(lp3364
(lp3365
I23
aI21
aI270
aa(lp3366
I23
aI21
aI0
aaa(lp3367
(lp3368
I19
aI16
aI0
aa(lp3369
I19
aI15
aI0
aa(lp3370
I19
aI15
aI90
aaa(lp3371
(lp3372
I19
aI19
aI270
aa(lp3373
I18
aI19
aI270
aaa(lp3374
(lp3375
I16
aI18
aI-1
aa(lp3376
I16
aI18
aI90
aaa(lp3377
(lp3378
I23
aI21
aI180
aa(lp3379
I23
aI21
aI270
aaa(lp3380
(lp3381
I1
aI6
aI180
aa(lp3382
I1
aI7
aI180
aa(lp3383
I1
aI8
aI180
aa(lp3384
I1
aI9
aI180
aaa(lp3385
(lp3386
I21
aI17
aI270
aaa(lp3387
(lp3388
I1
aI9
aI-1
aaa(lp3389
(lp3390
I21
aI21
aI270
aaa(lp3391
(lp3392
I23
aI15
aI90
aa(lp3393
I23
aI15
aI180
aa(lp3394
I23
aI16
aI180
aaa(lp3395
(lp3396
I22
aI16
aI270
aa(lp3397
I22
aI16
aI180
aaa(lp3398
(lp3399
I1
aI9
aI0
aa(lp3400
I1
aI8
aI0
aa(lp3401
I1
aI8
aI90
aa(lp3402
I2
aI8
aI90
aa(lp3403
I3
aI8
aI90
aaa(lp3404
(lp3405
I1
aI10
aI270
aa(lp3406
I0
aI10
aI270
aa(lp3407
I0
aI10
aI180
aaa(lp3408
(lp3409
I23
aI16
aI-1
aa(lp3410
I23
aI16
aI270
aaa(lp3411
(lp3412
I22
aI16
aI90
aa(lp3413
I23
aI16
aI90
aaa(lp3414
(lp3415
I0
aI7
aI90
aa(lp3416
I1
aI7
aI90
aa(lp3417
I2
aI7
aI90
aaa(lp3418
(lp3419
I20
aI18
aI270
aa(lp3420
I19
aI18
aI270
aa(lp3421
I18
aI18
aI270
aa(lp3422
I17
aI18
aI270
aa(lp3423
I16
aI18
aI270
aa(lp3424
I15
aI18
aI270
aaa(lp3425
(lp3426
I17
aI18
aI90
aa(lp3427
I18
aI18
aI90
aa(lp3428
I19
aI18
aI90
aa(lp3429
I20
aI18
aI90
aaa(lp3430
(lp3431
I3
aI5
aI-1
aa(lp3432
I3
aI5
aI270
aa(lp3433
I2
aI5
aI270
aa(lp3434
I1
aI5
aI270
aa(lp3435
I0
aI5
aI270
aaa(lp3436
(lp3437
I23
aI21
aI0
aa(lp3438
I23
aI21
aI90
aaa(lp3439
(lp3440
I3
aI5
aI90
aaa(lp3441
(lp3442
I21
aI21
aI90
aa(lp3443
I22
aI21
aI90
aa(lp3444
I23
aI21
aI90
aaa(lp3445
(lp3446
I16
aI18
aI-1
aa(lp3447
I16
aI18
aI270
aaa(lp3448
(lp3449
I0
aI11
aI270
aa(lp3450
I0
aI11
aI0
aaa(lp3451
(lp3452
I19
aI16
aI90
aa(lp3453
I20
aI16
aI90
aa(lp3454
I20
aI16
aI180
aaa(lp3455
(lp3456
I24
aI23
aI90
aa(lp3457
I24
aI23
aI0
aaa(lp3458
(lp3459
I23
aI23
aI0
aa(lp3460
I23
aI22
aI0
aa(lp3461
I23
aI21
aI0
aa(lp3462
I23
aI21
aI270
aaa(lp3463
(lp3464
I0
aI9
aI-1
aa(lp3465
I0
aI9
aI90
aaa(lp3466
(lp3467
I15
aI20
aI-1
aa(lp3468
I15
aI20
aI0
aa(lp3469
I15
aI19
aI0
aa(lp3470
I15
aI18
aI0
aa(lp3471
I15
aI18
aI90
aaa(lp3472
(lp3473
I23
aI18
aI-1
aa(lp3474
I23
aI18
aI0
aa(lp3475
I23
aI17
aI0
aa(lp3476
I23
aI16
aI0
aa(lp3477
I23
aI16
aI270
aa(lp3478
I23
aI16
aI180
aa(lp3479
I23
aI17
aI180
aa(lp3480
I23
aI18
aI180
aa(lp3481
I23
aI19
aI180
aa(lp3482
I23
aI20
aI180
aa(lp3483
I23
aI21
aI180
aa(lp3484
I23
aI22
aI180
aa(lp3485
I23
aI23
aI180
aa(lp3486
I23
aI24
aI180
aa(lp3487
I23
aI24
aI90
aa(lp3488
I24
aI24
aI90
aa(lp3489
I24
aI24
aI0
aa(lp3490
I24
aI23
aI0
aa(lp3491
I24
aI22
aI0
aa(lp3492
I24
aI21
aI0
aaa(lp3493
(lp3494
I3
aI8
aI-1
aa(lp3495
I3
aI8
aI0
aa(lp3496
I3
aI7
aI0
aa(lp3497
I3
aI6
aI0
aa(lp3498
I3
aI5
aI0
aaa(lp3499
(lp3500
I23
aI17
aI270
aa(lp3501
I22
aI17
aI270
aaa(lp3502
(lp3503
I0
aI10
aI270
aa(lp3504
I0
aI10
aI180
aaa(lp3505
(lp3506
I20
aI18
aI180
aa(lp3507
I20
aI18
aI270
aaa(lp3508
(lp3509
I23
aI23
aI180
aa(lp3510
I23
aI23
aI270
aaa(lp3511
(lp3512
I2
aI7
aI90
aa(lp3513
I3
aI7
aI90
aaa(lp3514
(lp3515
I0
aI6
aI90
aa(lp3516
I1
aI6
aI90
aaa(lp3517
(lp3518
I23
aI15
aI90
aa(lp3519
I23
aI15
aI180
aaa(lp3520
(lp3521
I1
aI6
aI180
aa(lp3522
I1
aI7
aI180
aa(lp3523
I1
aI8
aI180
aa(lp3524
I1
aI9
aI180
aaa(lp3525
(lp3526
I24
aI21
aI-1
aa(lp3527
I24
aI21
aI180
aaa(lp3528
(lp3529
I0
aI6
aI90
aa(lp3530
I1
aI6
aI90
aaa(lp3531
(lp3532
I16
aI18
aI90
aa(lp3533
I17
aI18
aI90
aa(lp3534
I18
aI18
aI90
aa(lp3535
I19
aI18
aI90
aaa(lp3536
(lp3537
I20
aI17
aI180
aa(lp3538
I20
aI17
aI90
aaa(lp3539
(lp3540
I16
aI18
aI180
aa(lp3541
I16
aI18
aI90
aaa(lp3542
(lp3543
I1
aI5
aI180
aa(lp3544
I1
aI6
aI180
aaa(lp3545
(lp3546
I0
aI11
aI270
aa(lp3547
I0
aI11
aI0
aaa(lp3548
(lp3549
I3
aI7
aI0
aa(lp3550
I3
aI7
aI270
aaa(lp3551
(lp3552
I15
aI18
aI270
aa(lp3553
I15
aI18
aI180
aa(lp3554
I15
aI19
aI180
aa(lp3555
I15
aI20
aI180
aaa(lp3556
(lp3557
I1
aI6
aI270
aaa(lp3558
(lp3559
I0
aI7
aI90
aa(lp3560
I1
aI7
aI90
aa(lp3561
I2
aI7
aI90
aaa(lp3562
(lp3563
I19
aI16
aI-1
aa(lp3564
I19
aI16
aI90
aa(lp3565
I20
aI16
aI90
aa(lp3566
I20
aI16
aI180
aaa(lp3567
(lp3568
I0
aI9
aI90
aa(lp3569
I0
aI9
aI0
aaa(lp3570
(lp3571
I0
aI11
aI90
aa(lp3572
I1
aI11
aI90
aaa(lp3573
(lp3574
I17
aI17
aI-1
aa(lp3575
I17
aI17
aI180
aaa(lp3576
(lp3577
I20
aI18
aI0
aa(lp3578
I20
aI17
aI0
aaa(lp3579
(lp3580
I3
aI8
aI270
aa(lp3581
I2
aI8
aI270
aa(lp3582
I1
aI8
aI270
aa(lp3583
I1
aI8
aI0
aaa(lp3584
(lp3585
I19
aI19
aI0
aa(lp3586
I19
aI18
aI0
aa(lp3587
I19
aI18
aI90
aaa(lp3588
(lp3589
I21
aI24
aI90
aa(lp3590
I21
aI24
aI0
aa(lp3591
I21
aI23
aI0
aaa(lp3592
(lp3593
I20
aI17
aI180
aa(lp3594
I20
aI17
aI90
aaa(lp3595
(lp3596
I23
aI18
aI0
aa(lp3597
I23
aI17
aI0
aaa(lp3598
(lp3599
I1
aI8
aI0
aa(lp3600
I1
aI8
aI90
aaa(lp3601
(lp3602
I15
aI17
aI180
aa(lp3603
I15
aI18
aI180
aa(lp3604
I15
aI19
aI180
aa(lp3605
I15
aI20
aI180
aaa(lp3606
(lp3607
I21
aI23
aI-1
aa(lp3608
I21
aI23
aI180
aaa(lp3609
(lp3610
I3
aI5
aI180
aa(lp3611
I3
aI6
aI180
aa(lp3612
I3
aI7
aI180
aaa(lp3613
(lp3614
I3
aI5
aI-1
aa(lp3615
I3
aI5
aI270
aaa(lp3616
(lp3617
I20
aI17
aI0
aa(lp3618
I20
aI17
aI90
aaa(lp3619
(lp3620
I20
aI18
aI180
aa(lp3621
I20
aI18
aI270
aaa(lp3622
(lp3623
I23
aI16
aI-1
aa(lp3624
I23
aI16
aI0
aa(lp3625
I23
aI15
aI0
aa(lp3626
I23
aI15
aI270
aa(lp3627
I22
aI15
aI270
aa(lp3628
I21
aI15
aI270
aa(lp3629
I20
aI15
aI270
aa(lp3630
I19
aI15
aI270
aa(lp3631
I18
aI15
aI270
aa(lp3632
I18
aI15
aI180
aa(lp3633
I18
aI15
aI90
aa(lp3634
I19
aI15
aI90
aa(lp3635
I19
aI15
aI180
aa(lp3636
I19
aI16
aI180
aa(lp3637
I19
aI16
aI270
aa(lp3638
I18
aI16
aI270
aa(lp3639
I18
aI16
aI180
aa(lp3640
I18
aI17
aI180
aa(lp3641
I18
aI17
aI270
aa(lp3642
I17
aI17
aI270
aa(lp3643
I17
aI17
aI180
aa(lp3644
I17
aI18
aI180
aaa(lp3645
(lp3646
I1
aI6
aI90
aaa(lp3647
(lp3648
I22
aI23
aI90
aa(lp3649
I23
aI23
aI90
aa(lp3650
I24
aI23
aI90
aa(lp3651
I24
aI23
aI0
aa(lp3652
I24
aI22
aI0
aa(lp3653
I24
aI21
aI0
aaa(lp3654
(lp3655
I21
aI17
aI-1
aa(lp3656
I21
aI17
aI270
aaa(lp3657
(lp3658
I3
aI8
aI-1
aa(lp3659
I3
aI8
aI0
aa(lp3660
I3
aI7
aI0
aa(lp3661
I3
aI6
aI0
aa(lp3662
I3
aI6
aI270
aa(lp3663
I2
aI6
aI270
aa(lp3664
I1
aI6
aI270
aaa(lp3665
(lp3666
I22
aI17
aI270
aa(lp3667
I21
aI17
aI270
aa(lp3668
I20
aI17
aI270
aaa(lp3669
(lp3670
I23
aI17
aI90
aa(lp3671
I23
aI17
aI180
aaa(lp3672
(lp3673
I15
aI18
aI270
aaa(lp3674
(lp3675
I19
aI16
aI180
aa(lp3676
I19
aI16
aI0
aaa(lp3677
(lp3678
I18
aI19
aI-1
aa(lp3679
I18
aI19
aI90
aa(lp3680
I19
aI19
aI90
aaa(lp3681
(lp3682
I20
aI16
aI90
aa(lp3683
I20
aI16
aI180
aaa(lp3684
(lp3685
I20
aI17
aI180
aa(lp3686
I20
aI18
aI180
aaa(lp3687
(lp3688
I0
aI7
aI90
aa(lp3689
I1
aI7
aI90
aa(lp3690
I2
aI7
aI90
aaa(lp3691
(lp3692
I18
aI19
aI-1
aa(lp3693
I18
aI19
aI90
aa(lp3694
I19
aI19
aI90
aa(lp3695
I19
aI19
aI0
aaa(lp3696
(lp3697
I22
aI23
aI270
aa(lp3698
I21
aI23
aI270
aaa(lp3699
(lp3700
I24
aI23
aI90
aa(lp3701
I24
aI23
aI0
aa(lp3702
I24
aI22
aI0
aaa(lp3703
(lp3704
I2
aI7
aI0
aa(lp3705
I2
aI7
aI270
aaa(lp3706
(lp3707
I20
aI17
aI0
aa(lp3708
I20
aI17
aI90
aa(lp3709
I21
aI17
aI90
aaa(lp3710
(lp3711
I23
aI21
aI270
aa(lp3712
I22
aI21
aI270
aa(lp3713
I21
aI21
aI270
aaa(lp3714
(lp3715
I3
aI5
aI-1
aa(lp3716
I3
aI5
aI180
aaa(lp3717
(lp3718
I20
aI17
aI90
aa(lp3719
I21
aI17
aI90
aaa(lp3720
(lp3721
I19
aI19
aI270
aa(lp3722
I18
aI19
aI270
aaa(lp3723
(lp3724
I1
aI9
aI90
aa(lp3725
I1
aI9
aI0
aaa(lp3726
(lp3727
I21
aI23
aI270
aa(lp3728
I21
aI23
aI180
aa(lp3729
I21
aI24
aI180
aaa(lp3730
(lp3731
I19
aI19
aI180
aa(lp3732
I19
aI19
aI270
aaa(lp3733
(lp3734
I20
aI18
aI180
aa(lp3735
I20
aI18
aI270
aa(lp3736
I19
aI18
aI270
aa(lp3737
I19
aI18
aI180
aaa(lp3738
(lp3739
I15
aI17
aI0
aa(lp3740
I15
aI17
aI90
aaa(lp3741
(lp3742
I24
aI21
aI270
aa(lp3743
I23
aI21
aI270
aaa(lp3744
(lp3745
I23
aI18
aI-1
aa(lp3746
I23
aI18
aI90
aa(lp3747
I23
aI18
aI0
aaa(lp3748
(lp3749
I0
aI9
aI270
aaa(lp3750
(lp3751
I23
aI23
aI90
aa(lp3752
I23
aI23
aI0
aaa(lp3753
(lp3754
I21
aI17
aI-1
aa(lp3755
I21
aI17
aI270
aaa(lp3756
(lp3757
I24
aI23
aI180
aa(lp3758
I24
aI23
aI270
aaa(lp3759
(lp3760
I24
aI21
aI180
aa(lp3761
I24
aI22
aI180
aa(lp3762
I24
aI23
aI180
aaa(lp3763
(lp3764
I3
aI5
aI-1
aa(lp3765
I3
aI5
aI180
aaa(lp3766
(lp3767
I20
aI17
aI0
aa(lp3768
I20
aI17
aI90
aaa(lp3769
(lp3770
I21
aI17
aI0
aa(lp3771
I21
aI17
aI90
aa(lp3772
I22
aI17
aI90
aa(lp3773
I23
aI17
aI90
aa(lp3774
I23
aI17
aI0
aa(lp3775
I23
aI17
aI270
aa(lp3776
I23
aI17
aI180
aa(lp3777
I23
aI18
aI180
aa(lp3778
I23
aI19
aI180
aa(lp3779
I23
aI20
aI180
aa(lp3780
I23
aI21
aI180
aa(lp3781
I23
aI22
aI180
aa(lp3782
I23
aI23
aI180
aa(lp3783
I23
aI23
aI270
aa(lp3784
I22
aI23
aI270
aa(lp3785
I21
aI23
aI270
aa(lp3786
I20
aI23
aI270
aa(lp3787
I20
aI23
aI0
aa(lp3788
I20
aI23
aI90
aa(lp3789
I21
aI23
aI90
aaa(lp3790
(lp3791
I19
aI16
aI0
aa(lp3792
I19
aI16
aI90
aaa(lp3793
(lp3794
I3
aI5
aI180
aa(lp3795
I3
aI6
aI180
aa(lp3796
I3
aI6
aI270
aaa(lp3797
(lp3798
I24
aI21
aI-1
aa(lp3799
I24
aI21
aI180
aaa(lp3800
(lp3801
I21
aI24
aI0
aa(lp3802
I21
aI23
aI0
aa(lp3803
I21
aI22
aI0
aa(lp3804
I21
aI21
aI0
aaa(lp3805
(lp3806
I3
aI7
aI90
aa(lp3807
I3
aI7
aI180
aaa(lp3808
(lp3809
I21
aI23
aI270
aa(lp3810
I21
aI23
aI0
aaa(lp3811
(lp3812
I0
aI11
aI90
aa(lp3813
I1
aI11
aI90
aaa(lp3814
(lp3815
I1
aI6
aI-1
aa(lp3816
I1
aI6
aI180
aaa(lp3817
(lp3818
I20
aI17
aI180
aa(lp3819
I20
aI18
aI180
aaa(lp3820
(lp3821
I19
aI16
aI-1
aa(lp3822
I19
aI16
aI270
aaa(lp3823
(lp3824
I22
aI23
aI270
aaa(lp3825
(lp3826
I15
aI18
aI90
aa(lp3827
I16
aI18
aI90
aaa(lp3828
(lp3829
I23
aI24
aI0
aa(lp3830
I23
aI23
aI0
aa(lp3831
I23
aI22
aI0
aa(lp3832
I23
aI21
aI0
aa(lp3833
I23
aI20
aI0
aa(lp3834
I23
aI19
aI0
aa(lp3835
I23
aI18
aI0
aaa(lp3836
(lp3837
I0
aI9
aI0
aa(lp3838
I0
aI8
aI0
aa(lp3839
I0
aI7
aI0
aa(lp3840
I0
aI6
aI0
aa(lp3841
I0
aI6
aI90
aaa(lp3842
(lp3843
I23
aI18
aI90
aa(lp3844
I23
aI18
aI180
aaa(lp3845
(lp3846
I19
aI18
aI90
aa(lp3847
I19
aI18
aI180
aa(lp3848
I19
aI19
aI180
aa(lp3849
I19
aI19
aI270
aaa(lp3850
(lp3851
I0
aI9
aI-1
aa(lp3852
I0
aI9
aI90
aa(lp3853
I1
aI9
aI90
aaa(lp3854
(lp3855
I23
aI23
aI90
aa(lp3856
I23
aI23
aI0
aa(lp3857
I23
aI22
aI0
aa(lp3858
I23
aI21
aI0
aa(lp3859
I23
aI20
aI0
aa(lp3860
I23
aI19
aI0
aa(lp3861
I23
aI18
aI0
aaa(lp3862
(lp3863
I17
aI18
aI0
aa(lp3864
I17
aI17
aI0
aaa(lp3865
(lp3866
I22
aI23
aI-1
aa(lp3867
I22
aI23
aI90
aa(lp3868
I23
aI23
aI90
aaa(lp3869
(lp3870
I0
aI9
aI-1
aa(lp3871
I0
aI9
aI90
aa(lp3872
I1
aI9
aI90
aaa(lp3873
(lp3874
I0
aI9
aI0
aaa(lp3875
(lp3876
I21
aI21
aI-1
aa(lp3877
I21
aI21
aI180
aaa(lp3878
(lp3879
I15
aI20
aI-1
aa(lp3880
I15
aI20
aI0
aaa(lp3881
(lp3882
I1
aI6
aI-1
aaa(lp3883
(lp3884
I23
aI15
aI270
aa(lp3885
I22
aI15
aI270
aa(lp3886
I21
aI15
aI270
aa(lp3887
I20
aI15
aI270
aa(lp3888
I19
aI15
aI270
aaa(lp3889
(lp3890
I23
aI17
aI90
aa(lp3891
I23
aI17
aI180
aaa(lp3892
(lp3893
I19
aI24
aI0
aa(lp3894
I19
aI23
aI0
aaa(lp3895
(lp3896
I19
aI19
aI0
aa(lp3897
I19
aI18
aI0
aa(lp3898
I19
aI18
aI90
aaa(lp3899
(lp3900
I23
aI21
aI180
aaa(lp3901
(lp3902
I23
aI23
aI90
aa(lp3903
I23
aI23
aI0
aaa(lp3904
(lp3905
I19
aI24
aI180
aa(lp3906
I19
aI24
aI90
aaa(lp3907
(lp3908
I24
aI19
aI180
aa(lp3909
I24
aI20
aI180
aa(lp3910
I24
aI21
aI180
aaa(lp3911
(lp3912
I20
aI18
aI0
aa(lp3913
I20
aI17
aI0
aa(lp3914
I20
aI17
aI90
aaa(lp3915
(lp3916
I1
aI9
aI0
aa(lp3917
I1
aI8
aI0
aa(lp3918
I1
aI7
aI0
aaa(lp3919
(lp3920
I22
aI16
aI180
aa(lp3921
I22
aI17
aI180
aaa(lp3922
(lp3923
I23
aI23
aI90
aa(lp3924
I23
aI23
aI0
aaa(lp3925
(lp3926
I2
aI8
aI270
aa(lp3927
I2
aI8
aI180
aaa(lp3928
(lp3929
I19
aI18
aI180
aa(lp3930
I19
aI19
aI180
aa(lp3931
I19
aI19
aI270
aa(lp3932
I18
aI19
aI270
aaa(lp3933
(lp3934
I20
aI18
aI180
aa(lp3935
I20
aI18
aI270
aaa(lp3936
(lp3937
I2
aI7
aI-1
aa(lp3938
I2
aI7
aI270
aaa(lp3939
(lp3940
I22
aI17
aI0
aa(lp3941
I22
aI16
aI0
aa(lp3942
I22
aI16
aI90
aa(lp3943
I23
aI16
aI90
aaa(lp3944
(lp3945
I0
aI7
aI180
aa(lp3946
I0
aI8
aI180
aa(lp3947
I0
aI9
aI180
aa(lp3948
I0
aI10
aI180
aa(lp3949
I0
aI11
aI180
aaa(lp3950
(lp3951
I1
aI9
aI0
aa(lp3952
I1
aI8
aI0
aa(lp3953
I1
aI7
aI0
aa(lp3954
I1
aI6
aI0
aa(lp3955
I1
aI5
aI0
aaa(lp3956
(lp3957
I0
aI11
aI0
aa(lp3958
I0
aI10
aI0
aa(lp3959
I0
aI9
aI0
aa(lp3960
I0
aI9
aI90
aa(lp3961
I1
aI9
aI90
aa(lp3962
I2
aI9
aI90
aa(lp3963
I2
aI9
aI180
aa(lp3964
I2
aI9
aI270
aa(lp3965
I1
aI9
aI270
aa(lp3966
I1
aI9
aI0
aa(lp3967
I1
aI8
aI0
aa(lp3968
I1
aI7
aI0
aaa(lp3969
(lp3970
I21
aI23
aI-1
aa(lp3971
I21
aI23
aI0
aaa(lp3972
(lp3973
I21
aI21
aI270
aa(lp3974
I21
aI21
aI180
aaa(lp3975
(lp3976
I21
aI21
aI-1
aa(lp3977
I21
aI21
aI90
aaa(lp3978
(lp3979
I19
aI19
aI0
aa(lp3980
I19
aI18
aI0
aa(lp3981
I19
aI18
aI90
aaa(lp3982
(lp3983
I23
aI17
aI180
aa(lp3984
I23
aI18
aI180
aaa(lp3985
(lp3986
I18
aI16
aI270
aa(lp3987
I18
aI16
aI180
aaa(lp3988
(lp3989
I20
aI17
aI0
aa(lp3990
I20
aI16
aI0
aaa(lp3991
(lp3992
I1
aI6
aI-1
aa(lp3993
I1
aI6
aI180
aa(lp3994
I1
aI7
aI180
aaa(lp3995
(lp3996
I17
aI18
aI0
aa(lp3997
I17
aI17
aI0
aaa(lp3998
(lp3999
I24
aI21
aI180
aaa(lp4000
(lp4001
I23
aI15
aI270
aa(lp4002
I22
aI15
aI270
aa(lp4003
I21
aI15
aI270
aa(lp4004
I20
aI15
aI270
aa(lp4005
I19
aI15
aI270
aa(lp4006
I19
aI15
aI180
aaa(lp4007
(lp4008
I24
aI23
aI0
aa(lp4009
I24
aI22
aI0
aa(lp4010
I24
aI21
aI0
aaa(lp4011
(lp4012
I17
aI17
aI90
aa(lp4013
I18
aI17
aI90
aaa(lp4014
(lp4015
I21
aI17
aI270
aa(lp4016
I20
aI17
aI270
aaa(lp4017
(lp4018
I21
aI23
aI270
aa(lp4019
I21
aI23
aI0
aaa(lp4020
(lp4021
I21
aI23
aI0
aa(lp4022
I21
aI23
aI90
aaa(lp4023
(lp4024
I20
aI18
aI180
aa(lp4025
I20
aI18
aI270
aa(lp4026
I19
aI18
aI270
aa(lp4027
I18
aI18
aI270
aa(lp4028
I17
aI18
aI270
aa(lp4029
I16
aI18
aI270
aaa(lp4030
(lp4031
I21
aI21
aI90
aa(lp4032
I22
aI21
aI90
aa(lp4033
I23
aI21
aI90
aa(lp4034
I24
aI21
aI90
aaa(lp4035
(lp4036
I23
aI21
aI180
aaa(lp4037
(lp4038
I15
aI20
aI180
aaa(lp4039
(lp4040
I18
aI17
aI270
aa(lp4041
I17
aI17
aI270
aaa(lp4042
(lp4043
I20
aI17
aI270
aa(lp4044
I20
aI17
aI180
aaa(lp4045
(lp4046
I19
aI19
aI0
aa(lp4047
I19
aI18
aI0
aaa(lp4048
(lp4049
I0
aI11
aI0
aa(lp4050
I0
aI10
aI0
aa(lp4051
I0
aI9
aI0
aa(lp4052
I0
aI8
aI0
aa(lp4053
I0
aI8
aI90
aaa(lp4054
(lp4055
I3
aI8
aI0
aa(lp4056
I3
aI7
aI0
aa(lp4057
I3
aI6
aI0
aaa(lp4058
(lp4059
I22
aI16
aI90
aa(lp4060
I23
aI16
aI90
aaa(lp4061
(lp4062
I0
aI7
aI0
aa(lp4063
I0
aI7
aI90
aaa(lp4064
(lp4065
I21
aI23
aI180
aa(lp4066
I21
aI24
aI180
aa(lp4067
I21
aI24
aI270
aa(lp4068
I20
aI24
aI270
aa(lp4069
I19
aI24
aI270
aa(lp4070
I19
aI24
aI0
aa(lp4071
I19
aI23
aI0
aaa(lp4072
(lp4073
I20
aI17
aI180
aa(lp4074
I20
aI18
aI180
aaa(lp4075
(lp4076
I0
aI11
aI90
aa(lp4077
I1
aI11
aI90
aaa(lp4078
(lp4079
I21
aI24
aI270
aa(lp4080
I20
aI24
aI270
aa(lp4081
I19
aI24
aI270
aaa(lp4082
(lp4083
I15
aI20
aI-1
aa(lp4084
I15
aI20
aI0
aa(lp4085
I15
aI19
aI0
aa(lp4086
I15
aI18
aI0
aaa(lp4087
(lp4088
I17
aI17
aI-1
aa(lp4089
I17
aI17
aI180
aaa(lp4090
(lp4091
I0
aI11
aI180
aa(lp4092
I0
aI11
aI90
aaa(lp4093
(lp4094
I23
aI18
aI180
aa(lp4095
I23
aI19
aI180
aa(lp4096
I23
aI20
aI180
aa(lp4097
I23
aI21
aI180
aa(lp4098
I23
aI21
aI270
aa(lp4099
I22
aI21
aI270
aa(lp4100
I21
aI21
aI270
aa(lp4101
I21
aI21
aI180
aa(lp4102
I21
aI22
aI180
aa(lp4103
I21
aI23
aI180
aa(lp4104
I21
aI24
aI180
aa(lp4105
I21
aI24
aI270
aa(lp4106
I20
aI24
aI270
aa(lp4107
I19
aI24
aI270
aa(lp4108
I19
aI24
aI0
aa(lp4109
I19
aI23
aI0
aaa(lp4110
(lp4111
I0
aI11
aI180
aa(lp4112
I0
aI11
aI90
aa(lp4113
I1
aI11
aI90
aaa(lp4114
(lp4115
I17
aI17
aI180
aa(lp4116
I17
aI18
aI180
aaa(lp4117
(lp4118
I19
aI19
aI0
aa(lp4119
I19
aI18
aI0
aa(lp4120
I19
aI18
aI90
aa(lp4121
I20
aI18
aI90
aa(lp4122
I20
aI18
aI0
aa(lp4123
I20
aI17
aI0
aa(lp4124
I20
aI16
aI0
aa(lp4125
I20
aI16
aI270
aa(lp4126
I20
aI16
aI180
aa(lp4127
I20
aI17
aI180
aa(lp4128
I20
aI17
aI90
aa(lp4129
I21
aI17
aI90
aa(lp4130
I22
aI17
aI90
aa(lp4131
I22
aI17
aI0
aa(lp4132
I22
aI16
aI0
aa(lp4133
I22
aI16
aI90
aa(lp4134
I23
aI16
aI90
aaa(lp4135
(lp4136
I18
aI19
aI-1
aa(lp4137
I18
aI19
aI90
aa(lp4138
I19
aI19
aI90
aaa(lp4139
(lp4140
I1
aI11
aI-1
aa(lp4141
I1
aI11
aI270
aa(lp4142
I0
aI11
aI270
aa(lp4143
I0
aI11
aI0
aa(lp4144
I0
aI10
aI0
aa(lp4145
I0
aI9
aI0
aa(lp4146
I0
aI8
aI0
aa(lp4147
I0
aI7
aI0
aa(lp4148
I0
aI6
aI0
aa(lp4149
I0
aI5
aI0
aaa(lp4150
(lp4151
I22
aI17
aI0
aa(lp4152
I22
aI16
aI0
aaa(lp4153
(lp4154
I1
aI10
aI270
aa(lp4155
I0
aI10
aI270
aaa(lp4156
(lp4157
I20
aI16
aI270
aa(lp4158
I19
aI16
aI270
aaa(lp4159
(lp4160
I20
aI18
aI270
aa(lp4161
I19
aI18
aI270
aa(lp4162
I19
aI18
aI180
aaa(lp4163
(lp4164
I23
aI16
aI180
aaa(lp4165
(lp4166
I20
aI17
aI270
aa(lp4167
I20
aI17
aI180
aaa(lp4168
(lp4169
I19
aI16
aI270
aa(lp4170
I18
aI16
aI270
aaa(lp4171
(lp4172
I1
aI7
aI270
aa(lp4173
I1
aI7
aI180
aaa(lp4174
(lp4175
I23
aI17
aI270
aa(lp4176
I22
aI17
aI270
aaa(lp4177
(lp4178
I20
aI17
aI90
aa(lp4179
I21
aI17
aI90
aa(lp4180
I22
aI17
aI90
aa(lp4181
I22
aI17
aI0
aa(lp4182
I22
aI16
aI0
aaa(lp4183
(lp4184
I15
aI20
aI-1
aa(lp4185
I15
aI20
aI0
aa(lp4186
I15
aI19
aI0
aaa(lp4187
(lp4188
I19
aI16
aI90
aa(lp4189
I20
aI16
aI90
aa(lp4190
I20
aI16
aI180
aaa(lp4191
(lp4192
I20
aI17
aI180
aa(lp4193
I20
aI18
aI180
aaa(lp4194
(lp4195
I22
aI21
aI270
aa(lp4196
I21
aI21
aI270
aaa(lp4197
(lp4198
I0
aI5
aI270
aa(lp4199
I0
aI5
aI180
aa(lp4200
I0
aI6
aI180
aa(lp4201
I0
aI7
aI180
aa(lp4202
I0
aI8
aI180
aa(lp4203
I0
aI9
aI180
aa(lp4204
I0
aI10
aI180
aa(lp4205
I0
aI11
aI180
aaa(lp4206
(lp4207
I3
aI7
aI270
aaa(lp4208
(lp4209
I0
aI8
aI90
aa(lp4210
I1
aI8
aI90
aa(lp4211
I2
aI8
aI90
aa(lp4212
I3
aI8
aI90
aaa(lp4213
(lp4214
I22
aI17
aI-1
aa(lp4215
I22
aI17
aI90
aaa(lp4216
(lp4217
I23
aI16
aI90
aaa(lp4218
(lp4219
I17
aI17
aI-1
aa(lp4220
I17
aI17
aI180
aaa(lp4221
(lp4222
I1
aI6
aI-1
aa(lp4223
I1
aI6
aI180
aa(lp4224
I1
aI7
aI180
aa(lp4225
I1
aI8
aI180
aa(lp4226
I1
aI9
aI180
aa(lp4227
I1
aI9
aI270
aa(lp4228
I0
aI9
aI270
aaa(lp4229
(lp4230
I0
aI8
aI0
aa(lp4231
I0
aI8
aI90
aa(lp4232
I1
aI8
aI90
aa(lp4233
I2
aI8
aI90
aa(lp4234
I3
aI8
aI90
aaa(lp4235
(lp4236
I20
aI17
aI0
aa(lp4237
I20
aI17
aI90
aa(lp4238
I21
aI17
aI90
aa(lp4239
I22
aI17
aI90
aaa(lp4240
(lp4241
I1
aI11
aI270
aa(lp4242
I0
aI11
aI270
aaa(lp4243
(lp4244
I17
aI17
aI180
aa(lp4245
I17
aI18
aI180
aa(lp4246
I17
aI18
aI270
aaa(lp4247
(lp4248
I19
aI18
aI180
aa(lp4249
I19
aI19
aI180
aa(lp4250
I19
aI19
aI270
aa(lp4251
I18
aI19
aI270
aaa(lp4252
(lp4253
I21
aI17
aI90
aa(lp4254
I22
aI17
aI90
aaa(lp4255
(lp4256
I0
aI11
aI0
aa(lp4257
I0
aI10
aI0
aa(lp4258
I0
aI9
aI0
aa(lp4259
I0
aI8
aI0
aa(lp4260
I0
aI7
aI0
aaa(lp4261
(lp4262
I18
aI17
aI180
aa(lp4263
I18
aI17
aI270
aaa(lp4264
(lp4265
I19
aI16
aI-1
aa(lp4266
I19
aI16
aI270
aa(lp4267
I18
aI16
aI270
aa(lp4268
I18
aI16
aI180
aa(lp4269
I18
aI17
aI180
aa(lp4270
I18
aI17
aI270
aa(lp4271
I17
aI17
aI270
aa(lp4272
I17
aI17
aI180
aa(lp4273
I17
aI18
aI180
aa(lp4274
I17
aI19
aI180
aa(lp4275
I17
aI19
aI270
aa(lp4276
I17
aI19
aI0
aa(lp4277
I17
aI18
aI0
aa(lp4278
I17
aI18
aI270
aa(lp4279
I16
aI18
aI270
aaa(lp4280
(lp4281
I23
aI21
aI90
aa(lp4282
I23
aI21
aI0
aa(lp4283
I23
aI20
aI0
aa(lp4284
I23
aI19
aI0
aa(lp4285
I23
aI18
aI0
aaa(lp4286
(lp4287
I20
aI17
aI0
aaa(lp4288
(lp4289
I2
aI5
aI90
aa(lp4290
I3
aI5
aI90
aaa(lp4291
(lp4292
I19
aI18
aI180
aa(lp4293
I19
aI19
aI180
aaa(lp4294
(lp4295
I19
aI19
aI180
aa(lp4296
I19
aI19
aI270
aaa(lp4297
(lp4298
I21
aI21
aI-1
aa(lp4299
I21
aI21
aI180
aaa(lp4300
(lp4301
I2
aI7
aI-1
aa(lp4302
I2
aI7
aI0
aa(lp4303
I2
aI6
aI0
aa(lp4304
I2
aI5
aI0
aa(lp4305
I2
aI5
aI270
aa(lp4306
I2
aI5
aI180
aa(lp4307
I2
aI5
aI90
aa(lp4308
I3
aI5
aI90
aa(lp4309
I3
aI5
aI180
aa(lp4310
I3
aI6
aI180
aa(lp4311
I3
aI7
aI180
aa(lp4312
I3
aI8
aI180
aaa(lp4313
(lp4314
I16
aI18
aI270
aaa(lp4315
(lp4316
I0
aI5
aI270
aa(lp4317
I0
aI5
aI180
aaa(lp4318
(lp4319
I19
aI19
aI270
aa(lp4320
I18
aI19
aI270
aaa(lp4321
(lp4322
I1
aI11
aI-1
aa(lp4323
I1
aI11
aI270
aa(lp4324
I0
aI11
aI270
aaa(lp4325
(lp4326
I0
aI5
aI90
aa(lp4327
I1
aI5
aI90
aa(lp4328
I2
aI5
aI90
aa(lp4329
I3
aI5
aI90
aaa(lp4330
(lp4331
I21
aI24
aI90
aa(lp4332
I21
aI24
aI0
aaa(lp4333
(lp4334
I20
aI17
aI270
aa(lp4335
I20
aI17
aI180
aaa(lp4336
(lp4337
I20
aI18
aI90
aa(lp4338
I20
aI18
aI0
aaa(lp4339
(lp4340
I22
aI16
aI270
aa(lp4341
I22
aI16
aI180
aa(lp4342
I22
aI17
aI180
aa(lp4343
I22
aI17
aI270
aa(lp4344
I21
aI17
aI270
aa(lp4345
I20
aI17
aI270
aaa(lp4346
(lp4347
I21
aI17
aI270
aa(lp4348
I20
aI17
aI270
aaa(lp4349
(lp4350
I1
aI6
aI270
aa(lp4351
I0
aI6
aI270
aaa(lp4352
(lp4353
I23
aI18
aI-1
aa(lp4354
I23
aI18
aI180
aaa(lp4355
(lp4356
I16
aI18
aI270
aaa(lp4357
(lp4358
I23
aI21
aI270
aa(lp4359
I23
aI21
aI0
aaa(lp4360
(lp4361
I3
aI8
aI-1
aa(lp4362
I3
aI8
aI0
aa(lp4363
I3
aI7
aI0
aa(lp4364
I3
aI6
aI0
aaa(lp4365
(lp4366
I15
aI20
aI-1
aa(lp4367
I15
aI20
aI0
aa(lp4368
I15
aI19
aI0
aa(lp4369
I15
aI18
aI0
aaa(lp4370
(lp4371
I0
aI7
aI270
aa(lp4372
I0
aI7
aI180
aaa(lp4373
(lp4374
I20
aI17
aI0
aaa(lp4375
(lp4376
I16
aI18
aI-1
aa(lp4377
I16
aI18
aI90
aa(lp4378
I17
aI18
aI90
aa(lp4379
I18
aI18
aI90
aa(lp4380
I19
aI18
aI90
aa(lp4381
I19
aI18
aI180
aaa(lp4382
(lp4383
I23
aI19
aI90
aa(lp4384
I24
aI19
aI90
aaa(lp4385
(lp4386
I0
aI6
aI90
aa(lp4387
I1
aI6
aI90
aa(lp4388
I2
aI6
aI90
aa(lp4389
I3
aI6
aI90
aaa(lp4390
(lp4391
I20
aI17
aI180
aa(lp4392
I20
aI18
aI180
aa(lp4393
I20
aI18
aI270
aaa(lp4394
(lp4395
I18
aI19
aI-1
aa(lp4396
I18
aI19
aI90
aa(lp4397
I19
aI19
aI90
aa(lp4398
I19
aI19
aI0
aaa(lp4399
(lp4400
I19
aI24
aI180
aa(lp4401
I19
aI24
aI90
aa(lp4402
I20
aI24
aI90
aa(lp4403
I21
aI24
aI90
aaa(lp4404
(lp4405
I18
aI16
aI90
aa(lp4406
I19
aI16
aI90
aaa(lp4407
(lp4408
I21
aI21
aI90
aa(lp4409
I22
aI21
aI90
aa(lp4410
I23
aI21
aI90
aa(lp4411
I24
aI21
aI90
aaa(lp4412
(lp4413
I23
aI15
aI180
aa(lp4414
I23
aI16
aI180
aaa(lp4415
(lp4416
I20
aI18
aI270
aa(lp4417
I19
aI18
aI270
aa(lp4418
I18
aI18
aI270
aa(lp4419
I17
aI18
aI270
aa(lp4420
I16
aI18
aI270
aaa(lp4421
(lp4422
I19
aI18
aI180
aa(lp4423
I19
aI19
aI180
aa(lp4424
I19
aI19
aI270
aa(lp4425
I18
aI19
aI270
aaa(lp4426
(lp4427
I23
aI16
aI270
aa(lp4428
I22
aI16
aI270
aaa(lp4429
(lp4430
I20
aI18
aI180
aa(lp4431
I20
aI18
aI270
aaa(lp4432
(lp4433
I0
aI11
aI180
aa(lp4434
I0
aI11
aI90
aaa(lp4435
(lp4436
I20
aI16
aI0
aa(lp4437
I20
aI16
aI270
aa(lp4438
I19
aI16
aI270
aaa(lp4439
(lp4440
I21
aI21
aI-1
aa(lp4441
I21
aI21
aI180
aa(lp4442
I21
aI22
aI180
aa(lp4443
I21
aI23
aI180
aaa(lp4444
(lp4445
I2
aI7
aI0
aa(lp4446
I2
aI6
aI0
aa(lp4447
I2
aI5
aI0
aaa(lp4448
(lp4449
I19
aI23
aI180
aa(lp4450
I19
aI24
aI180
aaa(lp4451
(lp4452
I2
aI7
aI270
aa(lp4453
I1
aI7
aI270
aa(lp4454
I0
aI7
aI270
aa(lp4455
I0
aI7
aI0
aa(lp4456
I0
aI6
aI0
aa(lp4457
I0
aI5
aI0
aa(lp4458
I0
aI5
aI90
aa(lp4459
I1
aI5
aI90
aa(lp4460
I2
aI5
aI90
aa(lp4461
I3
aI5
aI90
aa(lp4462
I3
aI5
aI180
aa(lp4463
I3
aI6
aI180
aa(lp4464
I3
aI7
aI180
aa(lp4465
I3
aI8
aI180
aaa(lp4466
(lp4467
I2
aI7
aI-1
aa(lp4468
I2
aI7
aI270
aaa(lp4469
(lp4470
I19
aI16
aI270
aaa(lp4471
(lp4472
I15
aI20
aI-1
aa(lp4473
I15
aI20
aI0
aa(lp4474
I15
aI19
aI0
aa(lp4475
I15
aI18
aI0
aa(lp4476
I15
aI17
aI0
aa(lp4477
I15
aI17
aI90
aa(lp4478
I16
aI17
aI90
aa(lp4479
I17
aI17
aI90
aa(lp4480
I18
aI17
aI90
aa(lp4481
I18
aI17
aI0
aa(lp4482
I18
aI16
aI0
aa(lp4483
I18
aI16
aI270
aa(lp4484
I18
aI16
aI180
aa(lp4485
I18
aI16
aI90
aa(lp4486
I19
aI16
aI90
aa(lp4487
I20
aI16
aI90
aa(lp4488
I20
aI16
aI180
aa(lp4489
I20
aI17
aI180
aa(lp4490
I20
aI17
aI90
aa(lp4491
I21
aI17
aI90
aa(lp4492
I22
aI17
aI90
aa(lp4493
I22
aI17
aI0
aa(lp4494
I22
aI16
aI0
aa(lp4495
I22
aI16
aI90
aa(lp4496
I23
aI16
aI90
aaa(lp4497
(lp4498
I19
aI19
aI180
aa(lp4499
I19
aI19
aI270
aaa(lp4500
(lp4501
I0
aI5
aI90
aa(lp4502
I1
aI5
aI90
aa(lp4503
I2
aI5
aI90
aa(lp4504
I3
aI5
aI90
aaa(lp4505
(lp4506
I21
aI23
aI90
aaa(lp4507
(lp4508
I1
aI9
aI-1
aa(lp4509
I1
aI9
aI0
aaa(lp4510
(lp4511
I0
aI7
aI90
aa(lp4512
I1
aI7
aI90
aa(lp4513
I2
aI7
aI90
aaa(lp4514
(lp4515
I20
aI17
aI90
aaa(lp4516
(lp4517
I23
aI23
aI270
aa(lp4518
I22
aI23
aI270
aa(lp4519
I21
aI23
aI270
aaa(lp4520
(lp4521
I22
aI17
aI-1
aa(lp4522
I22
aI17
aI90
aa(lp4523
I23
aI17
aI90
aa(lp4524
I23
aI17
aI180
aa(lp4525
I23
aI18
aI180
aa(lp4526
I23
aI19
aI180
aa(lp4527
I23
aI20
aI180
aa(lp4528
I23
aI21
aI180
aa(lp4529
I23
aI21
aI270
aa(lp4530
I22
aI21
aI270
aa(lp4531
I21
aI21
aI270
aaa(lp4532
(lp4533
I23
aI21
aI270
aa(lp4534
I23
aI21
aI180
aaa(lp4535
(lp4536
I19
aI16
aI-1
aa(lp4537
I19
aI16
aI90
aaa(lp4538
(lp4539
I15
aI19
aI0
aaa(lp4540
(lp4541
I19
aI18
aI270
aa(lp4542
I18
aI18
aI270
aa(lp4543
I17
aI18
aI270
aa(lp4544
I16
aI18
aI270
aaa(lp4545
(lp4546
I23
aI18
aI180
aa(lp4547
I23
aI19
aI180
aa(lp4548
I23
aI20
aI180
aa(lp4549
I23
aI21
aI180
aaa(lp4550
(lp4551
I21
aI17
aI-1
aa(lp4552
I21
aI17
aI90
aaa(lp4553
(lp4554
I19
aI16
aI-1
aa(lp4555
I19
aI16
aI0
aaa(lp4556
(lp4557
I22
aI17
aI270
aa(lp4558
I21
aI17
aI270
aa(lp4559
I20
aI17
aI270
aaa(lp4560
(lp4561
I21
aI21
aI90
aa(lp4562
I22
aI21
aI90
aa(lp4563
I23
aI21
aI90
aa(lp4564
I24
aI21
aI90
aaa(lp4565
(lp4566
I1
aI6
aI0
aaa(lp4567
(lp4568
I1
aI11
aI-1
aa(lp4569
I1
aI11
aI270
aaa(lp4570
(lp4571
I17
aI17
aI180
aa(lp4572
I17
aI18
aI180
aaa(lp4573
(lp4574
I19
aI19
aI0
aa(lp4575
I19
aI18
aI0
aaa(lp4576
(lp4577
I22
aI16
aI270
aa(lp4578
I22
aI16
aI180
aaa(lp4579
(lp4580
I2
aI7
aI270
aaa(lp4581
(lp4582
I21
aI23
aI180
aaa(lp4583
(lp4584
I0
aI6
aI0
aa(lp4585
I0
aI6
aI90
aaa(lp4586
(lp4587
I19
aI16
aI90
aa(lp4588
I20
aI16
aI90
aaa(lp4589
(lp4590
I0
aI11
aI90
aa(lp4591
I1
aI11
aI90
aaa(lp4592
(lp4593
I3
aI5
aI-1
aa(lp4594
I3
aI5
aI270
aa(lp4595
I2
aI5
aI270
aa(lp4596
I1
aI5
aI270
aa(lp4597
I0
aI5
aI270
aaa(lp4598
(lp4599
I23
aI21
aI90
aaa(lp4600
(lp4601
I1
aI6
aI-1
aa(lp4602
I1
aI6
aI180
aaa(lp4603
(lp4604
I19
aI24
aI90
aa(lp4605
I20
aI24
aI90
aa(lp4606
I21
aI24
aI90
aaa(lp4607
(lp4608
I23
aI21
aI180
aa(lp4609
I23
aI21
aI90
aaa(lp4610
(lp4611
I23
aI17
aI180
aa(lp4612
I23
aI18
aI180
aa(lp4613
I23
aI19
aI180
aa(lp4614
I23
aI20
aI180
aa(lp4615
I23
aI21
aI180
aa(lp4616
I23
aI22
aI180
aa(lp4617
I23
aI23
aI180
aaa(lp4618
(lp4619
I19
aI24
aI0
aa(lp4620
I19
aI23
aI0
aaa(lp4621
(lp4622
I23
aI21
aI0
aa(lp4623
I23
aI20
aI0
aa(lp4624
I23
aI19
aI0
aa(lp4625
I23
aI18
aI0
aa(lp4626
I23
aI17
aI0
aaa(lp4627
(lp4628
I1
aI11
aI-1
aa(lp4629
I1
aI11
aI270
aa(lp4630
I0
aI11
aI270
aaa(lp4631
(lp4632
I1
aI9
aI180
aaa(lp4633
(lp4634
I1
aI9
aI0
aaa(lp4635
(lp4636
I19
aI23
aI-1
aa(lp4637
I19
aI23
aI180
aa(lp4638
I19
aI24
aI180
aaa(lp4639
(lp4640
I2
aI7
aI270
aa(lp4641
I1
aI7
aI270
aa(lp4642
I0
aI7
aI270
aaa(lp4643
(lp4644
I19
aI24
aI180
aa(lp4645
I19
aI24
aI90
aaa(lp4646
(lp4647
I3
aI8
aI-1
aa(lp4648
I3
aI8
aI270
aa(lp4649
I2
aI8
aI270
aa(lp4650
I2
aI8
aI180
aa(lp4651
I2
aI9
aI180
aa(lp4652
I2
aI9
aI270
aa(lp4653
I1
aI9
aI270
aa(lp4654
I1
aI9
aI0
aa(lp4655
I1
aI8
aI0
aa(lp4656
I1
aI7
aI0
aa(lp4657
I1
aI6
aI0
aaa(lp4658
(lp4659
I20
aI16
aI180
aa(lp4660
I20
aI17
aI180
aa(lp4661
I20
aI17
aI90
aa(lp4662
I21
aI17
aI90
aaa(lp4663
(lp4664
I19
aI15
aI90
aa(lp4665
I20
aI15
aI90
aa(lp4666
I21
aI15
aI90
aa(lp4667
I22
aI15
aI90
aa(lp4668
I23
aI15
aI90
aaa(lp4669
(lp4670
I2
aI7
aI-1
aa(lp4671
I2
aI7
aI0
aa(lp4672
I2
aI6
aI0
aa(lp4673
I2
aI6
aI270
aa(lp4674
I1
aI6
aI270
aaa(lp4675
(lp4676
I23
aI18
aI180
aa(lp4677
I23
aI19
aI180
aa(lp4678
I23
aI19
aI90
aaa(lp4679
(lp4680
I21
aI23
aI0
aa(lp4681
I21
aI22
aI0
aa(lp4682
I21
aI21
aI0
aaa(lp4683
(lp4684
I1
aI8
aI90
aa(lp4685
I2
aI8
aI90
aa(lp4686
I3
aI8
aI90
aaa(lp4687
(lp4688
I18
aI19
aI-1
aa(lp4689
I18
aI19
aI90
aa(lp4690
I19
aI19
aI90
aa(lp4691
I19
aI19
aI0
aaa(lp4692
(lp4693
I21
aI21
aI-1
aa(lp4694
I21
aI21
aI90
aa(lp4695
I22
aI21
aI90
aa(lp4696
I23
aI21
aI90
aaa(lp4697
(lp4698
I18
aI17
aI180
aa(lp4699
I18
aI17
aI270
aa(lp4700
I17
aI17
aI270
aa(lp4701
I16
aI17
aI270
aa(lp4702
I15
aI17
aI270
aaa(lp4703
(lp4704
I0
aI9
aI0
aa(lp4705
I0
aI9
aI90
aa(lp4706
I1
aI9
aI90
aaa(lp4707
(lp4708
I22
aI17
aI-1
aa(lp4709
I22
aI17
aI90
aaa(lp4710
(lp4711
I18
aI17
aI0
aa(lp4712
I18
aI16
aI0
aa(lp4713
I18
aI16
aI90
aaa(lp4714
(lp4715
I0
aI11
aI180
aa(lp4716
I0
aI11
aI90
aaa(lp4717
(lp4718
I23
aI16
aI-1
aa(lp4719
I23
aI16
aI270
aa(lp4720
I22
aI16
aI270
aa(lp4721
I22
aI16
aI180
aa(lp4722
I22
aI17
aI180
aa(lp4723
I22
aI17
aI270
aa(lp4724
I21
aI17
aI270
aa(lp4725
I20
aI17
aI270
aa(lp4726
I20
aI17
aI180
aa(lp4727
I20
aI18
aI180
aa(lp4728
I20
aI18
aI270
aa(lp4729
I19
aI18
aI270
aa(lp4730
I18
aI18
aI270
aa(lp4731
I17
aI18
aI270
aa(lp4732
I17
aI18
aI0
aa(lp4733
I17
aI17
aI0
aaa(lp4734
(lp4735
I20
aI17
aI180
aa(lp4736
I20
aI18
aI180
aaa(lp4737
(lp4738
I23
aI17
aI270
aa(lp4739
I22
aI17
aI270
aaa(lp4740
(lp4741
I20
aI17
aI180
aaa(lp4742
(lp4743
I21
aI24
aI180
aaa(lp4744
(lp4745
I20
aI18
aI270
aa(lp4746
I19
aI18
aI270
aa(lp4747
I18
aI18
aI270
aaa(lp4748
(lp4749
I23
aI23
aI180
aa(lp4750
I23
aI23
aI270
aaa(lp4751
(lp4752
I0
aI9
aI180
aa(lp4753
I0
aI10
aI180
aa(lp4754
I0
aI11
aI180
aaa(lp4755
(lp4756
I21
aI23
aI0
aaa(lp4757
(lp4758
I0
aI5
aI180
aa(lp4759
I0
aI6
aI180
aa(lp4760
I0
aI7
aI180
aa(lp4761
I0
aI8
aI180
aa(lp4762
I0
aI9
aI180
aaa(lp4763
(lp4764
I19
aI24
aI0
aa(lp4765
I19
aI23
aI0
aaa(lp4766
(lp4767
I23
aI23
aI0
aa(lp4768
I23
aI22
aI0
aa(lp4769
I23
aI21
aI0
aa(lp4770
I23
aI20
aI0
aa(lp4771
I23
aI19
aI0
aa(lp4772
I23
aI18
aI0
aaa(lp4773
(lp4774
I15
aI18
aI180
aa(lp4775
I15
aI19
aI180
aa(lp4776
I15
aI20
aI180
aaa(lp4777
(lp4778
I22
aI17
aI270
aaa(lp4779
(lp4780
I21
aI24
aI90
aa(lp4781
I21
aI24
aI0
aaa(lp4782
(lp4783
I16
aI18
aI180
aa(lp4784
I16
aI18
aI270
aaa(lp4785
(lp4786
I24
aI23
aI90
aaa(lp4787
(lp4788
I18
aI19
aI-1
aa(lp4789
I18
aI19
aI90
aa(lp4790
I19
aI19
aI90
aa(lp4791
I19
aI19
aI0
aa(lp4792
I19
aI18
aI0
aa(lp4793
I19
aI18
aI90
aa(lp4794
I20
aI18
aI90
aa(lp4795
I20
aI18
aI0
aa(lp4796
I20
aI17
aI0
aa(lp4797
I20
aI16
aI0
aa(lp4798
I20
aI16
aI270
aa(lp4799
I19
aI16
aI270
aaa(lp4800
(lp4801
I22
aI17
aI270
aaa(lp4802
(lp4803
I21
aI17
aI-1
aa(lp4804
I21
aI17
aI270
aaa(lp4805
(lp4806
I24
aI23
aI180
aa(lp4807
I24
aI23
aI270
aaa(lp4808
(lp4809
I0
aI11
aI270
aa(lp4810
I0
aI11
aI0
aaa(lp4811
(lp4812
I21
aI23
aI-1
aa(lp4813
I21
aI23
aI0
aaa(lp4814
(lp4815
I15
aI20
aI-1
aa(lp4816
I15
aI20
aI0
aa(lp4817
I15
aI19
aI0
aa(lp4818
I15
aI18
aI0
aa(lp4819
I15
aI17
aI0
aaa(lp4820
(lp4821
I19
aI16
aI-1
aa(lp4822
I19
aI16
aI0
aa(lp4823
I19
aI15
aI0
aa(lp4824
I19
aI15
aI90
aa(lp4825
I20
aI15
aI90
aa(lp4826
I21
aI15
aI90
aa(lp4827
I22
aI15
aI90
aa(lp4828
I23
aI15
aI90
aa(lp4829
I23
aI15
aI180
aa(lp4830
I23
aI16
aI180
aa(lp4831
I23
aI16
aI270
aa(lp4832
I22
aI16
aI270
aa(lp4833
I22
aI16
aI180
aa(lp4834
I22
aI17
aI180
aa(lp4835
I22
aI17
aI270
aa(lp4836
I21
aI17
aI270
aa(lp4837
I20
aI17
aI270
aa(lp4838
I20
aI17
aI180
aa(lp4839
I20
aI18
aI180
aaa(lp4840
(lp4841
I1
aI11
aI-1
aa(lp4842
I1
aI11
aI270
aaa(lp4843
(lp4844
I0
aI8
aI270
aaa(lp4845
(lp4846
I3
aI8
aI-1
aa(lp4847
I3
aI8
aI270
aa(lp4848
I2
aI8
aI270
aa(lp4849
I1
aI8
aI270
aa(lp4850
I0
aI8
aI270
aaa(lp4851
(lp4852
I23
aI17
aI180
aa(lp4853
I23
aI18
aI180
aaa(lp4854
(lp4855
I19
aI16
aI-1
aa(lp4856
I19
aI16
aI270
aa(lp4857
I18
aI16
aI270
aaa(lp4858
(lp4859
I16
aI18
aI-1
aa(lp4860
I16
aI18
aI90
aaa(lp4861
(lp4862
I0
aI6
aI180
aaa(lp4863
(lp4864
I23
aI18
aI180
aa(lp4865
I23
aI19
aI180
aa(lp4866
I23
aI20
aI180
aa(lp4867
I23
aI21
aI180
aa(lp4868
I23
aI21
aI270
aaa(lp4869
(lp4870
I3
aI8
aI0
aa(lp4871
I3
aI7
aI0
aaa(lp4872
(lp4873
I3
aI6
aI270
aa(lp4874
I2
aI6
aI270
aa(lp4875
I1
aI6
aI270
aaa(lp4876
(lp4877
I22
aI17
aI180
aa(lp4878
I22
aI17
aI270
aaa(lp4879
(lp4880
I15
aI18
aI0
aa(lp4881
I15
aI18
aI90
aaa(lp4882
(lp4883
I18
aI16
aI180
aaa(lp4884
(lp4885
I0
aI11
aI180
aa(lp4886
I0
aI11
aI90
aaa(lp4887
(lp4888
I23
aI18
aI-1
aa(lp4889
I23
aI18
aI90
aaa(lp4890
(lp4891
I23
aI17
aI270
aa(lp4892
I22
aI17
aI270
aaa(lp4893
(lp4894
I17
aI17
aI-1
aa(lp4895
I17
aI17
aI90
aaa(lp4896
(lp4897
I22
aI17
aI270
aaa(lp4898
(lp4899
I22
aI17
aI90
aa(lp4900
I23
aI17
aI90
aa(lp4901
I23
aI17
aI180
aaa(lp4902
(lp4903
I23
aI21
aI270
aa(lp4904
I22
aI21
aI270
aa(lp4905
I21
aI21
aI270
aaa(lp4906
(lp4907
I22
aI17
aI90
aa(lp4908
I23
aI17
aI90
aa(lp4909
I23
aI17
aI180
aaa(lp4910
(lp4911
I21
aI21
aI-1
aa(lp4912
I21
aI21
aI180
aaa(lp4913
(lp4914
I2
aI7
aI0
aaa(lp4915
(lp4916
I24
aI21
aI180
aa(lp4917
I24
aI22
aI180
aa(lp4918
I24
aI23
aI180
aaa(lp4919
(lp4920
I0
aI5
aI0
aa(lp4921
I0
aI5
aI90
aaa(lp4922
(lp4923
I0
aI11
aI180
aa(lp4924
I0
aI11
aI90
aaa(lp4925
(lp4926
I2
aI7
aI-1
aa(lp4927
I2
aI7
aI0
aaa(lp4928
(lp4929
I23
aI23
aI90
aa(lp4930
I23
aI23
aI0
aa(lp4931
I23
aI22
aI0
aa(lp4932
I23
aI21
aI0
aa(lp4933
I23
aI20
aI0
aa(lp4934
I23
aI19
aI0
aaa(lp4935
(lp4936
I20
aI16
aI180
aa(lp4937
I20
aI17
aI180
aa(lp4938
I20
aI18
aI180
aa(lp4939
I20
aI18
aI270
aaa(lp4940
(lp4941
I20
aI18
aI0
aa(lp4942
I20
aI17
aI0
aa(lp4943
I20
aI16
aI0
aa(lp4944
I20
aI16
aI270
aaa(lp4945
(lp4946
I3
aI5
aI0
aaa(lp4947
(lp4948
I15
aI20
aI-1
aa(lp4949
I15
aI20
aI0
aaa(lp4950
(lp4951
I20
aI18
aI90
aa(lp4952
I20
aI18
aI0
aaa(lp4953
(lp4954
I23
aI23
aI270
aa(lp4955
I22
aI23
aI270
aaa(lp4956
(lp4957
I21
aI23
aI270
aa(lp4958
I21
aI23
aI180
aa(lp4959
I21
aI24
aI180
aa(lp4960
I21
aI24
aI270
aa(lp4961
I20
aI24
aI270
aa(lp4962
I19
aI24
aI270
aa(lp4963
I19
aI24
aI0
aa(lp4964
I19
aI23
aI0
aaa(lp4965
(lp4966
I1
aI6
aI-1
aa(lp4967
I1
aI6
aI180
aaa(lp4968
(lp4969
I1
aI8
aI0
aa(lp4970
I1
aI7
aI0
aa(lp4971
I1
aI6
aI0
aa(lp4972
I1
aI6
aI90
aaa(lp4973
(lp4974
I0
aI9
aI270
aaa(lp4975
(lp4976
I23
aI23
aI270
aa(lp4977
I22
aI23
aI270
aa(lp4978
I21
aI23
aI270
aaa(lp4979
(lp4980
I17
aI18
aI0
aaa(lp4981
(lp4982
I23
aI21
aI90
aa(lp4983
I23
aI21
aI180
aaa(lp4984
(lp4985
I22
aI17
aI0
aa(lp4986
I22
aI16
aI0
aa(lp4987
I22
aI16
aI90
aaa(lp4988
(lp4989
I17
aI17
aI-1
aa(lp4990
I17
aI17
aI180
aa(lp4991
I17
aI18
aI180
aa(lp4992
I17
aI19
aI180
aa(lp4993
I17
aI19
aI270
aa(lp4994
I16
aI19
aI270
aa(lp4995
I16
aI19
aI0
aa(lp4996
I16
aI18
aI0
aa(lp4997
I16
aI18
aI270
aa(lp4998
I15
aI18
aI270
aa(lp4999
I14
aI18
aI270
aa(lp5000
I14
aI18
aI180
aa(lp5001
I14
aI18
aI90
aa(lp5002
I15
aI18
aI90
aa(lp5003
I16
aI18
aI90
aa(lp5004
I17
aI18
aI90
aa(lp5005
I18
aI18
aI90
aa(lp5006
I19
aI18
aI90
aa(lp5007
I20
aI18
aI90
aa(lp5008
I20
aI18
aI0
aa(lp5009
I20
aI17
aI0
aa(lp5010
I20
aI16
aI0
aa(lp5011
I20
aI16
aI270
aa(lp5012
I19
aI16
aI270
aaa(lp5013
(lp5014
I19
aI16
aI270
aaa(lp5015
(lp5016
I23
aI17
aI90
aa(lp5017
I23
aI17
aI180
aaa(lp5018
(lp5019
I17
aI18
aI0
aa(lp5020
I17
aI17
aI0
aaa(lp5021
(lp5022
I21
aI24
aI180
aa(lp5023
I21
aI24
aI270
aa(lp5024
I20
aI24
aI270
aa(lp5025
I19
aI24
aI270
aa(lp5026
I19
aI24
aI0
aa(lp5027
I19
aI23
aI0
aaa(lp5028
(lp5029
I21
aI21
aI270
aa(lp5030
I20
aI21
aI270
aa(lp5031
I20
aI21
aI0
aa(lp5032
I20
aI21
aI90
aa(lp5033
I21
aI21
aI90
aa(lp5034
I22
aI21
aI90
aa(lp5035
I23
aI21
aI90
aaa(lp5036
(lp5037
I17
aI17
aI0
aaa(lp5038
(lp5039
I21
aI23
aI0
aa(lp5040
I21
aI23
aI90
aaa(lp5041
(lp5042
I20
aI17
aI270
aa(lp5043
I20
aI17
aI180
aa(lp5044
I20
aI18
aI180
aa(lp5045
I20
aI18
aI270
aaa(lp5046
(lp5047
I0
aI9
aI0
aaa(lp5048
(lp5049
I1
aI9
aI0
aa(lp5050
I1
aI8
aI0
aa(lp5051
I1
aI7
aI0
aa(lp5052
I1
aI6
aI0
aaa(lp5053
(lp5054
I1
aI11
aI-1
aa(lp5055
I1
aI11
aI180
aa(lp5056
I1
aI12
aI180
aaa(lp5057
(lp5058
I3
aI6
aI180
aa(lp5059
I3
aI6
aI270
aa(lp5060
I2
aI6
aI270
aa(lp5061
I1
aI6
aI270
aaa(lp5062
(lp5063
I0
aI7
aI0
aa(lp5064
I0
aI7
aI90
aaa(lp5065
(lp5066
I21
aI23
aI0
aa(lp5067
I21
aI22
aI0
aa(lp5068
I21
aI21
aI0
aaa(lp5069
(lp5070
I0
aI7
aI90
aa(lp5071
I1
aI7
aI90
aa(lp5072
I2
aI7
aI90
aaa(lp5073
(lp5074
I23
aI21
aI90
aa(lp5075
I24
aI21
aI90
aaa(lp5076
(lp5077
I23
aI21
aI270
aa(lp5078
I22
aI21
aI270
aa(lp5079
I21
aI21
aI270
aa(lp5080
I20
aI21
aI270
aa(lp5081
I20
aI21
aI180
aa(lp5082
I20
aI21
aI90
aa(lp5083
I21
aI21
aI90
aa(lp5084
I22
aI21
aI90
aa(lp5085
I23
aI21
aI90
aa(lp5086
I24
aI21
aI90
aaa(lp5087
(lp5088
I15
aI18
aI90
aa(lp5089
I16
aI18
aI90
aaa(lp5090
(lp5091
I23
aI21
aI180
aaa(lp5092
(lp5093
I24
aI21
aI180
aa(lp5094
I24
aI22
aI180
aa(lp5095
I24
aI23
aI180
aaa(lp5096
(lp5097
I22
aI16
aI0
aa(lp5098
I22
aI16
aI90
aaa(lp5099
(lp5100
I3
aI8
aI-1
aa(lp5101
I3
aI8
aI270
aaa(lp5102
(lp5103
I23
aI18
aI180
aa(lp5104
I23
aI19
aI180
aa(lp5105
I23
aI20
aI180
aa(lp5106
I23
aI21
aI180
aa(lp5107
I23
aI21
aI270
aaa(lp5108
(lp5109
I1
aI6
aI0
aa(lp5110
I1
aI5
aI0
aaa(lp5111
(lp5112
I23
aI18
aI0
aaa(lp5113
(lp5114
I17
aI17
aI180
aa(lp5115
I17
aI18
aI180
aaa(lp5116
(lp5117
I1
aI5
aI270
aa(lp5118
I1
aI5
aI180
aaa(lp5119
(lp5120
I0
aI9
aI0
aa(lp5121
I0
aI8
aI0
aa(lp5122
I0
aI8
aI90
aaa(lp5123
(lp5124
I20
aI17
aI90
aaa(lp5125
(lp5126
I21
aI21
aI-1
aa(lp5127
I21
aI21
aI180
aaa(lp5128
(lp5129
I20
aI17
aI90
aa(lp5130
I21
aI17
aI90
aaa(lp5131
(lp5132
I16
aI18
aI-1
aa(lp5133
I16
aI18
aI90
aaa(lp5134
(lp5135
I17
aI16
aI270
aa(lp5136
I17
aI16
aI0
aa(lp5137
I17
aI16
aI90
aa(lp5138
I18
aI16
aI90
aa(lp5139
I19
aI16
aI90
aaa(lp5140
(lp5141
I18
aI17
aI0
aa(lp5142
I18
aI16
aI0
aa(lp5143
I18
aI16
aI90
aaa(lp5144
(lp5145
I23
aI23
aI90
aa(lp5146
I23
aI23
aI0
aaa(lp5147
(lp5148
I22
aI17
aI90
aa(lp5149
I23
aI17
aI90
aaa(lp5150
(lp5151
I15
aI18
aI90
aa(lp5152
I16
aI18
aI90
aa(lp5153
I17
aI18
aI90
aa(lp5154
I18
aI18
aI90
aa(lp5155
I19
aI18
aI90
aa(lp5156
I20
aI18
aI90
aaa(lp5157
(lp5158
I19
aI23
aI180
aa(lp5159
I19
aI24
aI180
aaa(lp5160
(lp5161
I19
aI16
aI-1
aa(lp5162
I19
aI16
aI0
aa(lp5163
I19
aI15
aI0
aa(lp5164
I19
aI15
aI270
aa(lp5165
I19
aI15
aI180
aa(lp5166
I19
aI16
aI180
aa(lp5167
I19
aI16
aI90
aa(lp5168
I20
aI16
aI90
aa(lp5169
I20
aI16
aI180
aa(lp5170
I20
aI17
aI180
aa(lp5171
I20
aI18
aI180
aa(lp5172
I20
aI18
aI270
aa(lp5173
I19
aI18
aI270
aa(lp5174
I18
aI18
aI270
aa(lp5175
I17
aI18
aI270
aa(lp5176
I17
aI18
aI180
aa(lp5177
I17
aI18
aI90
aa(lp5178
I17
aI18
aI0
aa(lp5179
I17
aI17
aI0
aaa(lp5180
(lp5181
I21
aI17
aI270
aa(lp5182
I20
aI17
aI270
aaa(lp5183
(lp5184
I21
aI21
aI0
aaa(lp5185
(lp5186
I22
aI17
aI-1
aa(lp5187
I22
aI17
aI90
aaa(lp5188
(lp5189
I0
aI11
aI180
aaa(lp5190
(lp5191
I23
aI16
aI-1
aa(lp5192
I23
aI16
aI270
aaa(lp5193
(lp5194
I20
aI18
aI180
aa(lp5195
I20
aI18
aI270
aa(lp5196
I19
aI18
aI270
aa(lp5197
I18
aI18
aI270
aa(lp5198
I17
aI18
aI270
aa(lp5199
I16
aI18
aI270
aaa(lp5200
(lp5201
I16
aI18
aI90
aa(lp5202
I17
aI18
aI90
aa(lp5203
I18
aI18
aI90
aa(lp5204
I19
aI18
aI90
aa(lp5205
I20
aI18
aI90
aaa(lp5206
(lp5207
I20
aI17
aI90
aa(lp5208
I21
aI17
aI90
aaa(lp5209
(lp5210
I19
aI19
aI0
aa(lp5211
I19
aI18
aI0
aaa(lp5212
(lp5213
I17
aI17
aI0
aaa(lp5214
(lp5215
I0
aI11
aI90
aa(lp5216
I1
aI11
aI90
aaa(lp5217
(lp5218
I16
aI18
aI-1
aa(lp5219
I16
aI18
aI180
aaa(lp5220
(lp5221
I0
aI11
aI0
aa(lp5222
I0
aI10
aI0
aa(lp5223
I0
aI9
aI0
aaa(lp5224
(lp5225
I2
aI7
aI0
aa(lp5226
I2
aI6
aI0
aaa(lp5227
(lp5228
I0
aI9
aI-1
aa(lp5229
I0
aI9
aI0
aaa(lp5230
(lp5231
I0
aI11
aI180
aa(lp5232
I0
aI11
aI90
aa(lp5233
I1
aI11
aI90
aaa(lp5234
(lp5235
I16
aI18
aI-1
aa(lp5236
I16
aI18
aI90
aaa(lp5237
(lp5238
I17
aI18
aI180
aaa(lp5239
(lp5240
I23
aI18
aI0
aa(lp5241
I23
aI17
aI0
aa(lp5242
I23
aI17
aI270
aaa(lp5243
(lp5244
I16
aI18
aI270
aa(lp5245
I15
aI18
aI270
aaa(lp5246
(lp5247
I21
aI17
aI-1
aa(lp5248
I21
aI17
aI270
aa(lp5249
I20
aI17
aI270
aa(lp5250
I20
aI17
aI180
aa(lp5251
I20
aI18
aI180
aa(lp5252
I20
aI18
aI270
aa(lp5253
I19
aI18
aI270
aa(lp5254
I18
aI18
aI270
aa(lp5255
I17
aI18
aI270
aa(lp5256
I16
aI18
aI270
aaa(lp5257
(lp5258
I0
aI9
aI180
aa(lp5259
I0
aI9
aI90
aaa(lp5260
(lp5261
I20
aI18
aI0
aa(lp5262
I20
aI17
aI0
aaa(lp5263
(lp5264
I22
aI17
aI90
aa(lp5265
I23
aI17
aI90
aa(lp5266
I23
aI17
aI180
aaa(lp5267
(lp5268
I15
aI18
aI90
aa(lp5269
I16
aI18
aI90
aa(lp5270
I17
aI18
aI90
aa(lp5271
I18
aI18
aI90
aa(lp5272
I19
aI18
aI90
aaa(lp5273
(lp5274
I19
aI19
aI0
aa(lp5275
I19
aI18
aI0
aa(lp5276
I19
aI18
aI270
aaa(lp5277
(lp5278
I20
aI18
aI180
aa(lp5279
I20
aI18
aI270
aa(lp5280
I19
aI18
aI270
aaa(lp5281
(lp5282
I24
aI19
aI180
aa(lp5283
I24
aI20
aI180
aa(lp5284
I24
aI21
aI180
aaa(lp5285
(lp5286
I0
aI11
aI0
aa(lp5287
I0
aI10
aI0
aa(lp5288
I0
aI9
aI0
aa(lp5289
I0
aI8
aI0
aa(lp5290
I0
aI7
aI0
aa(lp5291
I0
aI6
aI0
aa(lp5292
I0
aI5
aI0
aaa(lp5293
(lp5294
I19
aI16
aI-1
aa(lp5295
I19
aI16
aI270
aa(lp5296
I18
aI16
aI270
aa(lp5297
I17
aI16
aI270
aa(lp5298
I17
aI16
aI0
aa(lp5299
I17
aI16
aI90
aa(lp5300
I18
aI16
aI90
aa(lp5301
I18
aI16
aI180
aa(lp5302
I18
aI17
aI180
aa(lp5303
I18
aI17
aI270
aa(lp5304
I17
aI17
aI270
aa(lp5305
I16
aI17
aI270
aa(lp5306
I15
aI17
aI270
aa(lp5307
I15
aI17
aI180
aa(lp5308
I15
aI18
aI180
aaa(lp5309
(lp5310
I23
aI23
aI0
aa(lp5311
I23
aI22
aI0
aa(lp5312
I23
aI21
aI0
aa(lp5313
I23
aI20
aI0
aa(lp5314
I23
aI19
aI0
aa(lp5315
I23
aI18
aI0
aa(lp5316
I23
aI17
aI0
aa(lp5317
I23
aI17
aI270
aaa(lp5318
(lp5319
I17
aI18
aI90
aa(lp5320
I18
aI18
aI90
aa(lp5321
I19
aI18
aI90
aa(lp5322
I20
aI18
aI90
aaa(lp5323
(lp5324
I19
aI23
aI-1
aa(lp5325
I19
aI23
aI180
aaa(lp5326
(lp5327
I0
aI11
aI270
aa(lp5328
I0
aI11
aI0
aaa(lp5329
(lp5330
I21
aI21
aI90
aaa(lp5331
(lp5332
I18
aI18
aI270
aa(lp5333
I17
aI18
aI270
aa(lp5334
I16
aI18
aI270
aaa(lp5335
(lp5336
I0
aI6
aI180
aaa(lp5337
(lp5338
I19
aI18
aI270
aa(lp5339
I19
aI18
aI180
aaa(lp5340
(lp5341
I22
aI16
aI90
aa(lp5342
I23
aI16
aI90
aaa(lp5343
(lp5344
I1
aI7
aI0
aa(lp5345
I1
aI7
aI90
aa(lp5346
I2
aI7
aI90
aaa(lp5347
(lp5348
I0
aI7
aI0
aa(lp5349
I0
aI7
aI90
aaa(lp5350
(lp5351
I1
aI6
aI-1
aa(lp5352
I1
aI6
aI0
aaa(lp5353
(lp5354
I21
aI21
aI90
aa(lp5355
I22
aI21
aI90
aa(lp5356
I23
aI21
aI90
aaa(lp5357
(lp5358
I21
aI24
aI0
aa(lp5359
I21
aI23
aI0
aaa(lp5360
(lp5361
I23
aI16
aI270
aa(lp5362
I22
aI16
aI270
aa(lp5363
I22
aI16
aI180
aa(lp5364
I22
aI17
aI180
aa(lp5365
I22
aI17
aI270
aa(lp5366
I21
aI17
aI270
aa(lp5367
I20
aI17
aI270
aa(lp5368
I20
aI17
aI180
aa(lp5369
I20
aI18
aI180
aaa(lp5370
(lp5371
I1
aI7
aI90
aa(lp5372
I2
aI7
aI90
aaa(lp5373
(lp5374
I23
aI23
aI270
aa(lp5375
I22
aI23
aI270
aa(lp5376
I21
aI23
aI270
aaa(lp5377
(lp5378
I16
aI18
aI-1
aa(lp5379
I16
aI18
aI270
aa(lp5380
I15
aI18
aI270
aaa(lp5381
(lp5382
I24
aI21
aI90
aaa(lp5383
(lp5384
I3
aI5
aI-1
aa(lp5385
I3
aI5
aI180
aaa(lp5386
(lp5387
I15
aI20
aI0
aa(lp5388
I15
aI19
aI0
aa(lp5389
I15
aI18
aI0
aaa(lp5390
(lp5391
I21
aI23
aI270
aa(lp5392
I21
aI23
aI180
aaa(lp5393
(lp5394
I21
aI21
aI0
aa(lp5395
I21
aI21
aI270
aaa(lp5396
(lp5397
I1
aI7
aI180
aa(lp5398
I1
aI8
aI180
aa(lp5399
I1
aI9
aI180
aaa(lp5400
(lp5401
I22
aI17
aI270
aa(lp5402
I21
aI17
aI270
aa(lp5403
I20
aI17
aI270
aaa(lp5404
(lp5405
I0
aI5
aI180
aaa(lp5406
(lp5407
I23
aI23
aI0
aa(lp5408
I23
aI22
aI0
aa(lp5409
I23
aI21
aI0
aa(lp5410
I23
aI20
aI0
aaa(lp5411
(lp5412
I3
aI8
aI-1
aa(lp5413
I3
aI8
aI0
aa(lp5414
I3
aI7
aI0
aa(lp5415
I3
aI6
aI0
aa(lp5416
I3
aI5
aI0
aaa(lp5417
(lp5418
I19
aI16
aI90
aa(lp5419
I20
aI16
aI90
aaa(lp5420
(lp5421
I23
aI23
aI180
aa(lp5422
I23
aI23
aI270
aaa(lp5423
(lp5424
I21
aI21
aI90
aa(lp5425
I22
aI21
aI90
aa(lp5426
I23
aI21
aI90
aaa(lp5427
(lp5428
I20
aI17
aI0
aa(lp5429
I20
aI17
aI90
aaa(lp5430
(lp5431
I15
aI17
aI270
aa(lp5432
I15
aI17
aI180
aaa(lp5433
(lp5434
I19
aI19
aI180
aa(lp5435
I19
aI19
aI270
aaa(lp5436
(lp5437
I19
aI19
aI180
aa(lp5438
I19
aI19
aI270
aa(lp5439
I18
aI19
aI270
aaa(lp5440
(lp5441
I17
aI18
aI180
aa(lp5442
I17
aI18
aI90
aaa(lp5443
(lp5444
I19
aI24
aI0
aa(lp5445
I19
aI23
aI0
aaa(lp5446
(lp5447
I21
aI21
aI180
aa(lp5448
I21
aI21
aI90
aaa(lp5449
(lp5450
I0
aI11
aI90
aa(lp5451
I1
aI11
aI90
aaa(lp5452
(lp5453
I17
aI17
aI-1
aa(lp5454
I17
aI17
aI180
aaa(lp5455
(lp5456
I22
aI16
aI270
aa(lp5457
I22
aI16
aI180
aaa(lp5458
(lp5459
I19
aI18
aI0
aa(lp5460
I19
aI18
aI90
aaa(lp5461
(lp5462
I19
aI24
aI180
aa(lp5463
I19
aI24
aI90
aaa(lp5464
(lp5465
I2
aI7
aI-1
aa(lp5466
I2
aI7
aI0
aa(lp5467
I2
aI6
aI0
aaa(lp5468
(lp5469
I0
aI11
aI0
aa(lp5470
I0
aI10
aI0
aa(lp5471
I0
aI9
aI0
aaa(lp5472
(lp5473
I23
aI17
aI180
aa(lp5474
I23
aI18
aI180
aaa(lp5475
(lp5476
I15
aI20
aI0
aa(lp5477
I15
aI19
aI0
aa(lp5478
I15
aI18
aI0
aa(lp5479
I15
aI18
aI90
aaa(lp5480
(lp5481
I19
aI19
aI180
aa(lp5482
I19
aI19
aI270
aaa(lp5483
(lp5484
I3
aI5
aI90
aa(lp5485
I3
aI5
aI180
aa(lp5486
I3
aI6
aI180
aa(lp5487
I3
aI7
aI180
aa(lp5488
I3
aI8
aI180
aaa(lp5489
(lp5490
I20
aI18
aI180
aa(lp5491
I20
aI18
aI270
aa(lp5492
I19
aI18
aI270
aa(lp5493
I18
aI18
aI270
aa(lp5494
I17
aI18
aI270
aa(lp5495
I16
aI18
aI270
aaa(lp5496
(lp5497
I2
aI9
aI90
aa(lp5498
I2
aI9
aI0
aaa(lp5499
(lp5500
I21
aI23
aI-1
aa(lp5501
I21
aI23
aI90
aaa(lp5502
(lp5503
I23
aI16
aI90
aaa(lp5504
(lp5505
I21
aI23
aI180
aa(lp5506
I21
aI23
aI90
aa(lp5507
I22
aI23
aI90
aaa(lp5508
(lp5509
I21
aI21
aI180
aa(lp5510
I21
aI22
aI180
aa(lp5511
I21
aI23
aI180
aa(lp5512
I21
aI24
aI180
aaa(lp5513
(lp5514
I17
aI18
aI270
aa(lp5515
I17
aI18
aI0
aa(lp5516
I17
aI17
aI0
aaa(lp5517
(lp5518
I0
aI11
aI180
aa(lp5519
I0
aI11
aI90
aa(lp5520
I1
aI11
aI90
aaa(lp5521
(lp5522
I23
aI17
aI270
aa(lp5523
I22
aI17
aI270
aaa(lp5524
(lp5525
I21
aI23
aI180
aa(lp5526
I21
aI23
aI90
aaa(lp5527
(lp5528
I21
aI21
aI180
aa(lp5529
I21
aI22
aI180
aa(lp5530
I21
aI23
aI180
aaa(lp5531
(lp5532
I16
aI18
aI180
aa(lp5533
I16
aI18
aI90
aaa(lp5534
(lp5535
I20
aI18
aI90
aa(lp5536
I20
aI18
aI0
aaa(lp5537
(lp5538
I23
aI17
aI0
aa(lp5539
I23
aI17
aI270
aaa(lp5540
(lp5541
I22
aI23
aI90
aaa(lp5542
(lp5543
I3
aI6
aI0
aa(lp5544
I3
aI6
aI270
aa(lp5545
I3
aI6
aI180
aa(lp5546
I3
aI7
aI180
aa(lp5547
I3
aI7
aI270
aa(lp5548
I2
aI7
aI270
aa(lp5549
I1
aI7
aI270
aa(lp5550
I1
aI7
aI180
aaa(lp5551
(lp5552
I17
aI18
aI180
aa(lp5553
I17
aI18
aI270
aa(lp5554
I16
aI18
aI270
aaa(lp5555
(lp5556
I19
aI19
aI90
aa(lp5557
I19
aI19
aI0
aaa(lp5558
(lp5559
I19
aI24
aI180
aa(lp5560
I19
aI24
aI90
aa(lp5561
I20
aI24
aI90
aa(lp5562
I21
aI24
aI90
aaa(lp5563
(lp5564
I19
aI19
aI270
aa(lp5565
I18
aI19
aI270
aaa(lp5566
(lp5567
I24
aI21
aI-1
aa(lp5568
I24
aI21
aI270
aaa(lp5569
(lp5570
I1
aI6
aI270
aaa(lp5571
(lp5572
I19
aI19
aI180
aa(lp5573
I19
aI19
aI270
aaa(lp5574
(lp5575
I17
aI17
aI0
aaa(lp5576
(lp5577
I19
aI15
aI0
aa(lp5578
I19
aI15
aI90
aa(lp5579
I19
aI15
aI180
aa(lp5580
I19
aI16
aI180
aa(lp5581
I19
aI16
aI270
aa(lp5582
I18
aI16
aI270
aa(lp5583
I18
aI16
aI180
aa(lp5584
I18
aI17
aI180
aaa(lp5585
(lp5586
I1
aI5
aI270
aa(lp5587
I1
aI5
aI180
aaa(lp5588
(lp5589
I19
aI15
aI90
aa(lp5590
I20
aI15
aI90
aa(lp5591
I21
aI15
aI90
aa(lp5592
I22
aI15
aI90
aa(lp5593
I23
aI15
aI90
aaa(lp5594
(lp5595
I22
aI23
aI-1
aa(lp5596
I22
aI23
aI90
aaa(lp5597
(lp5598
I20
aI17
aI0
aa(lp5599
I20
aI17
aI90
aaa(lp5600
(lp5601
I24
aI23
aI270
aa(lp5602
I23
aI23
aI270
aa(lp5603
I22
aI23
aI270
aaa(lp5604
(lp5605
I21
aI17
aI270
aa(lp5606
I20
aI17
aI270
aaa(lp5607
(lp5608
I20
aI16
aI180
aa(lp5609
I20
aI17
aI180
aaa(lp5610
(lp5611
I2
aI7
aI0
aa(lp5612
I2
aI7
aI90
aaa(lp5613
(lp5614
I21
aI21
aI0
aa(lp5615
I21
aI21
aI90
aa(lp5616
I22
aI21
aI90
aa(lp5617
I23
aI21
aI90
aa(lp5618
I24
aI21
aI90
aaa(lp5619
(lp5620
I0
aI6
aI0
aa(lp5621
I0
aI6
aI90
aaa(lp5622
(lp5623
I18
aI19
aI90
aa(lp5624
I19
aI19
aI90
aa(lp5625
I19
aI19
aI0
aaa(lp5626
(lp5627
I1
aI9
aI180
aaa(lp5628
(lp5629
I24
aI21
aI270
aa(lp5630
I24
aI21
aI180
aaa(lp5631
(lp5632
I0
aI11
aI90
aa(lp5633
I1
aI11
aI90
aaa(lp5634
(lp5635
I0
aI9
aI180
aa(lp5636
I0
aI10
aI180
aa(lp5637
I0
aI11
aI180
aaa(lp5638
(lp5639
I0
aI7
aI180
aaa(lp5640
(lp5641
I17
aI18
aI90
aa(lp5642
I17
aI18
aI0
aaa(lp5643
(lp5644
I21
aI17
aI-1
aa(lp5645
I21
aI17
aI90
aa(lp5646
I22
aI17
aI90
aa(lp5647
I22
aI17
aI0
aa(lp5648
I22
aI16
aI0
aa(lp5649
I22
aI16
aI90
aa(lp5650
I23
aI16
aI90
aa(lp5651
I23
aI16
aI0
aa(lp5652
I23
aI15
aI0
aa(lp5653
I23
aI15
aI270
aa(lp5654
I22
aI15
aI270
aa(lp5655
I21
aI15
aI270
aa(lp5656
I20
aI15
aI270
aa(lp5657
I19
aI15
aI270
aa(lp5658
I19
aI15
aI180
aa(lp5659
I19
aI16
aI180
aa(lp5660
I19
aI16
aI270
aa(lp5661
I18
aI16
aI270
aa(lp5662
I18
aI16
aI180
aa(lp5663
I18
aI17
aI180
aa(lp5664
I18
aI17
aI270
aa(lp5665
I17
aI17
aI270
aaa(lp5666
(lp5667
I17
aI17
aI-1
aa(lp5668
I17
aI17
aI180
aa(lp5669
I17
aI18
aI180
aa(lp5670
I17
aI18
aI270
aa(lp5671
I16
aI18
aI270
aa(lp5672
I15
aI18
aI270
aa(lp5673
I15
aI18
aI180
aa(lp5674
I15
aI18
aI90
aa(lp5675
I16
aI18
aI90
aa(lp5676
I17
aI18
aI90
aa(lp5677
I18
aI18
aI90
aa(lp5678
I19
aI18
aI90
aa(lp5679
I20
aI18
aI90
aa(lp5680
I20
aI18
aI0
aa(lp5681
I20
aI17
aI0
aa(lp5682
I20
aI17
aI90
aa(lp5683
I21
aI17
aI90
aaa(lp5684
(lp5685
I15
aI20
aI0
aa(lp5686
I15
aI19
aI0
aa(lp5687
I15
aI18
aI0
aaa(lp5688
(lp5689
I3
aI8
aI-1
aa(lp5690
I3
aI8
aI270
aaa(lp5691
(lp5692
I0
aI12
aI0
aa(lp5693
I0
aI11
aI0
aa(lp5694
I0
aI10
aI0
aa(lp5695
I0
aI9
aI0
aa(lp5696
I0
aI8
aI0
aa(lp5697
I0
aI7
aI0
aa(lp5698
I0
aI6
aI0
aa(lp5699
I0
aI6
aI90
aaa(lp5700
(lp5701
I1
aI6
aI270
aa(lp5702
I1
aI6
aI180
aaa(lp5703
(lp5704
I19
aI16
aI90
aaa(lp5705
(lp5706
I2
aI7
aI0
aa(lp5707
I2
aI7
aI270
aaa(lp5708
(lp5709
I20
aI18
aI90
aa(lp5710
I20
aI18
aI0
aaa(lp5711
(lp5712
I20
aI18
aI180
aa(lp5713
I20
aI18
aI270
aaa(lp5714
(lp5715
I19
aI23
aI-1
aa(lp5716
I19
aI23
aI180
aaa(lp5717
(lp5718
I23
aI23
aI180
aa(lp5719
I23
aI23
aI270
aaa(lp5720
(lp5721
I19
aI19
aI90
aa(lp5722
I19
aI19
aI0
aaa(lp5723
(lp5724
I24
aI23
aI270
aa(lp5725
I23
aI23
aI270
aa(lp5726
I22
aI23
aI270
aa(lp5727
I21
aI23
aI270
aa(lp5728
I21
aI23
aI180
aa(lp5729
I21
aI24
aI180
aaa(lp5730
(lp5731
I18
aI16
aI0
aa(lp5732
I18
aI16
aI270
aa(lp5733
I17
aI16
aI270
aaa(lp5734
(lp5735
I23
aI21
aI90
aa(lp5736
I23
aI21
aI0
aaa(lp5737
(lp5738
I1
aI11
aI-1
aa(lp5739
I1
aI11
aI270
aaa(lp5740
(lp5741
I23
aI18
aI180
aaa(lp5742
(lp5743
I19
aI24
aI270
aa(lp5744
I19
aI24
aI0
aaa(lp5745
(lp5746
I1
aI9
aI0
aaa(lp5747
(lp5748
I19
aI18
aI180
aa(lp5749
I19
aI19
aI180
aa(lp5750
I19
aI19
aI270
aaa(lp5751
(lp5752
I18
aI16
aI90
aa(lp5753
I19
aI16
aI90
aaa(lp5754
(lp5755
I19
aI19
aI0
aa(lp5756
I19
aI18
aI0
aa(lp5757
I19
aI18
aI270
aaa(lp5758
(lp5759
I21
aI17
aI270
aa(lp5760
I20
aI17
aI270
aaa(lp5761
(lp5762
I1
aI9
aI270
aa(lp5763
I0
aI9
aI270
aaa(lp5764
(lp5765
I23
aI23
aI90
aa(lp5766
I23
aI23
aI0
aaa(lp5767
(lp5768
I21
aI21
aI90
aa(lp5769
I22
aI21
aI90
aa(lp5770
I23
aI21
aI90
aaa(lp5771
(lp5772
I21
aI17
aI270
aa(lp5773
I20
aI17
aI270
aaa(lp5774
(lp5775
I0
aI11
aI270
aa(lp5776
I0
aI11
aI0
aaa(lp5777
(lp5778
I22
aI23
aI270
aaa(lp5779
(lp5780
I23
aI21
aI0
aa(lp5781
I23
aI20
aI0
aa(lp5782
I23
aI19
aI0
aa(lp5783
I23
aI18
aI0
aaa(lp5784
(lp5785
I19
aI23
aI-1
aa(lp5786
I19
aI23
aI180
aa(lp5787
I19
aI24
aI180
aaa(lp5788
(lp5789
I21
aI23
aI90
aa(lp5790
I22
aI23
aI90
aa(lp5791
I23
aI23
aI90
aa(lp5792
I24
aI23
aI90
aaa(lp5793
(lp5794
I19
aI16
aI270
aa(lp5795
I18
aI16
aI270
aaa(lp5796
(lp5797
I19
aI23
aI180
aa(lp5798
I19
aI24
aI180
aaa(lp5799
(lp5800
I16
aI18
aI270
aaa(lp5801
(lp5802
I22
aI17
aI-1
aa(lp5803
I22
aI17
aI90
aa(lp5804
I23
aI17
aI90
aa(lp5805
I23
aI17
aI180
aa(lp5806
I23
aI18
aI180
aa(lp5807
I23
aI19
aI180
aa(lp5808
I23
aI20
aI180
aa(lp5809
I23
aI21
aI180
aa(lp5810
I23
aI22
aI180
aa(lp5811
I23
aI23
aI180
aa(lp5812
I23
aI23
aI270
aa(lp5813
I22
aI23
aI270
aa(lp5814
I21
aI23
aI270
aaa(lp5815
(lp5816
I17
aI18
aI270
aa(lp5817
I17
aI18
aI0
aa(lp5818
I17
aI17
aI0
aaa(lp5819
(lp5820
I22
aI23
aI-1
aa(lp5821
I22
aI23
aI270
aa(lp5822
I21
aI23
aI270
aaa(lp5823
(lp5824
I24
aI19
aI0
aa(lp5825
I24
aI19
aI270
aa(lp5826
I23
aI19
aI270
aaa(lp5827
(lp5828
I2
aI7
aI-1
aa(lp5829
I2
aI7
aI270
aaa(lp5830
(lp5831
I21
aI23
aI180
aa(lp5832
I21
aI23
aI90
aa(lp5833
I22
aI23
aI90
aaa(lp5834
(lp5835
I22
aI17
aI270
aa(lp5836
I21
aI17
aI270
aa(lp5837
I20
aI17
aI270
aa(lp5838
I20
aI17
aI180
aaa(lp5839
(lp5840
I23
aI18
aI-1
aa(lp5841
I23
aI18
aI90
aa(lp5842
I23
aI18
aI180
aaa(lp5843
(lp5844
I23
aI21
aI270
aa(lp5845
I22
aI21
aI270
aa(lp5846
I21
aI21
aI270
aaa(lp5847
(lp5848
I19
aI24
aI180
aa(lp5849
I19
aI24
aI90
aaa(lp5850
(lp5851
I21
aI17
aI-1
aa(lp5852
I21
aI17
aI90
aaa(lp5853
(lp5854
I23
aI17
aI270
aa(lp5855
I22
aI17
aI270
aaa(lp5856
(lp5857
I20
aI18
aI270
aa(lp5858
I19
aI18
aI270
aaa(lp5859
(lp5860
I21
aI23
aI90
aa(lp5861
I22
aI23
aI90
aaa(lp5862
(lp5863
I20
aI17
aI180
aa(lp5864
I20
aI18
aI180
aa(lp5865
I20
aI18
aI270
aaa(lp5866
(lp5867
I21
aI21
aI180
aa(lp5868
I21
aI22
aI180
aa(lp5869
I21
aI23
aI180
aaa(lp5870
(lp5871
I21
aI24
aI270
aa(lp5872
I20
aI24
aI270
aa(lp5873
I19
aI24
aI270
aa(lp5874
I19
aI24
aI0
aaa(lp5875
(lp5876
I20
aI18
aI0
aa(lp5877
I20
aI17
aI0
aa(lp5878
I20
aI16
aI0
aaa(lp5879
(lp5880
I15
aI20
aI0
aa(lp5881
I15
aI19
aI0
aa(lp5882
I15
aI18
aI0
aa(lp5883
I15
aI18
aI90
aa(lp5884
I16
aI18
aI90
aa(lp5885
I17
aI18
aI90
aa(lp5886
I18
aI18
aI90
aa(lp5887
I19
aI18
aI90
aa(lp5888
I20
aI18
aI90
aaa(lp5889
(lp5890
I3
aI8
aI270
aa(lp5891
I2
aI8
aI270
aa(lp5892
I1
aI8
aI270
aa(lp5893
I1
aI8
aI0
aa(lp5894
I1
aI7
aI0
aa(lp5895
I1
aI6
aI0
aaa(lp5896
(lp5897
I23
aI22
aI180
aa(lp5898
I23
aI23
aI180
aa(lp5899
I23
aI23
aI270
aaa(lp5900
(lp5901
I22
aI17
aI90
aa(lp5902
I22
aI17
aI0
aa(lp5903
I22
aI16
aI0
aa(lp5904
I22
aI16
aI90
aaa(lp5905
(lp5906
I3
aI8
aI-1
aa(lp5907
I3
aI8
aI270
aa(lp5908
I2
aI8
aI270
aa(lp5909
I1
aI8
aI270
aa(lp5910
I0
aI8
aI270
aaa(lp5911
(lp5912
I23
aI21
aI270
aa(lp5913
I22
aI21
aI270
aa(lp5914
I21
aI21
aI270
aaa(lp5915
(lp5916
I22
aI23
aI-1
aa(lp5917
I22
aI23
aI270
aaa(lp5918
(lp5919
I24
aI23
aI90
aa(lp5920
I24
aI23
aI0
aa(lp5921
I24
aI22
aI0
aa(lp5922
I24
aI21
aI0
aaa(lp5923
(lp5924
I3
aI8
aI180
aaa(lp5925
(lp5926
I20
aI18
aI270
aa(lp5927
I19
aI18
aI270
aa(lp5928
I19
aI18
aI180
aaa(lp5929
(lp5930
I15
aI17
aI0
aa(lp5931
I15
aI17
aI90
aaa(lp5932
(lp5933
I22
aI17
aI180
aa(lp5934
I22
aI17
aI270
aaa(lp5935
(lp5936
I24
aI21
aI270
aa(lp5937
I23
aI21
aI270
aa(lp5938
I22
aI21
aI270
aa(lp5939
I21
aI21
aI270
aaa(lp5940
(lp5941
I20
aI18
aI180
aa(lp5942
I20
aI18
aI270
aa(lp5943
I19
aI18
aI270
aa(lp5944
I18
aI18
aI270
aa(lp5945
I17
aI18
aI270
aa(lp5946
I16
aI18
aI270
aaa(lp5947
(lp5948
I3
aI8
aI-1
aa(lp5949
I3
aI8
aI270
aa(lp5950
I2
aI8
aI270
aa(lp5951
I1
aI8
aI270
aa(lp5952
I1
aI8
aI180
aa(lp5953
I1
aI9
aI180
aa(lp5954
I1
aI9
aI270
aa(lp5955
I0
aI9
aI270
aaa(lp5956
(lp5957
I18
aI16
aI180
aa(lp5958
I18
aI17
aI180
aaa(lp5959
(lp5960
I23
aI16
aI270
aa(lp5961
I22
aI16
aI270
aa(lp5962
I22
aI16
aI180
aaa(lp5963
(lp5964
I1
aI9
aI-1
aa(lp5965
I1
aI9
aI270
aa(lp5966
I0
aI9
aI270
aaa(lp5967
(lp5968
I19
aI18
aI0
aa(lp5969
I19
aI18
aI90
aaa(lp5970
(lp5971
I1
aI9
aI-1
aa(lp5972
I1
aI9
aI270
aaa(lp5973
(lp5974
I23
aI17
aI270
aa(lp5975
I22
aI17
aI270
aaa(lp5976
(lp5977
I1
aI9
aI-1
aa(lp5978
I1
aI9
aI0
aaa(lp5979
(lp5980
I3
aI5
aI-1
aa(lp5981
I3
aI5
aI270
aaa(lp5982
(lp5983
I23
aI16
aI0
aa(lp5984
I23
aI15
aI0
aa(lp5985
I23
aI15
aI270
aaa(lp5986
(lp5987
I0
aI9
aI0
aa(lp5988
I0
aI8
aI0
aa(lp5989
I0
aI7
aI0
aa(lp5990
I0
aI6
aI0
aa(lp5991
I0
aI5
aI0
aaa(lp5992
(lp5993
I0
aI6
aI180
aa(lp5994
I0
aI7
aI180
aa(lp5995
I0
aI8
aI180
aa(lp5996
I0
aI9
aI180
aaa(lp5997
(lp5998
I22
aI16
aI0
aa(lp5999
I22
aI16
aI90
aaa(lp6000
(lp6001
I24
aI21
aI270
aa(lp6002
I23
aI21
aI270
aa(lp6003
I22
aI21
aI270
aa(lp6004
I21
aI21
aI270
aaa(lp6005
(lp6006
I19
aI19
aI90
aa(lp6007
I19
aI19
aI0
aaa(lp6008
(lp6009
I23
aI17
aI270
aa(lp6010
I22
aI17
aI270
aaa(lp6011
(lp6012
I0
aI9
aI180
aaa(lp6013
(lp6014
I0
aI9
aI270
aa(lp6015
I0
aI9
aI180
aaa(lp6016
(lp6017
I18
aI19
aI-1
aa(lp6018
I18
aI19
aI90
aa(lp6019
I19
aI19
aI90
aaa(lp6020
(lp6021
I23
aI17
aI270
aa(lp6022
I22
aI17
aI270
aaa(lp6023
(lp6024
I22
aI17
aI90
aa(lp6025
I23
aI17
aI90
aa(lp6026
I23
aI17
aI180
aaa(lp6027
(lp6028
I20
aI17
aI180
aa(lp6029
I20
aI18
aI180
aa(lp6030
I20
aI18
aI270
aaa(lp6031
(lp6032
I21
aI17
aI270
aaa(lp6033
(lp6034
I21
aI23
aI0
aa(lp6035
I21
aI23
aI90
aaa(lp6036
(lp6037
I19
aI19
aI0
aa(lp6038
I19
aI18
aI0
aa(lp6039
I19
aI18
aI270
aa(lp6040
I18
aI18
aI270
aa(lp6041
I17
aI18
aI270
aa(lp6042
I17
aI18
aI0
aaa(lp6043
(lp6044
I0
aI11
aI90
aa(lp6045
I1
aI11
aI90
aaa(lp6046
(lp6047
I0
aI9
aI0
aaa(lp6048
(lp6049
I16
aI18
aI270
aa(lp6050
I15
aI18
aI270
aaa(lp6051
(lp6052
I21
aI17
aI90
aaa(lp6053
(lp6054
I3
aI5
aI-1
aa(lp6055
I3
aI5
aI270
aa(lp6056
I2
aI5
aI270
aa(lp6057
I1
aI5
aI270
aaa(lp6058
(lp6059
I2
aI7
aI-1
aa(lp6060
I2
aI7
aI0
aaa(lp6061
(lp6062
I17
aI17
aI-1
aa(lp6063
I17
aI17
aI180
aaa(lp6064
(lp6065
I21
aI21
aI90
aaa(lp6066
(lp6067
I17
aI17
aI180
aa(lp6068
I17
aI18
aI180
aa(lp6069
I17
aI18
aI90
aaa(lp6070
(lp6071
I17
aI18
aI0
aa(lp6072
I17
aI17
aI0
aaa(lp6073
(lp6074
I0
aI11
aI270
aa(lp6075
I0
aI11
aI0
aa(lp6076
I0
aI10
aI0
aa(lp6077
I0
aI9
aI0
aaa(lp6078
(lp6079
I19
aI23
aI180
aa(lp6080
I19
aI24
aI180
aaa(lp6081
(lp6082
I22
aI17
aI270
aa(lp6083
I21
aI17
aI270
aa(lp6084
I20
aI17
aI270
aa(lp6085
I20
aI17
aI180
aaa(lp6086
(lp6087
I2
aI7
aI-1
aa(lp6088
I2
aI7
aI270
aaa(lp6089
(lp6090
I1
aI6
aI180
aa(lp6091
I1
aI7
aI180
aaa(lp6092
(lp6093
I24
aI21
aI-1
aa(lp6094
I24
aI21
aI180
aaa(lp6095
(lp6096
I1
aI9
aI-1
aa(lp6097
I1
aI9
aI270
aa(lp6098
I0
aI9
aI270
aaa(lp6099
(lp6100
I3
aI8
aI270
aa(lp6101
I2
aI8
aI270
aa(lp6102
I1
aI8
aI270
aa(lp6103
I0
aI8
aI270
aaa(lp6104
(lp6105
I23
aI16
aI-1
aa(lp6106
I23
aI16
aI270
aaa(lp6107
(lp6108
I23
aI17
aI270
aa(lp6109
I22
aI17
aI270
aaa(lp6110
(lp6111
I20
aI17
aI0
aaa(lp6112
(lp6113
I19
aI18
aI90
aa(lp6114
I20
aI18
aI90
aaa(lp6115
(lp6116
I23
aI21
aI90
aa(lp6117
I23
aI21
aI0
aaa(lp6118
(lp6119
I21
aI21
aI90
aa(lp6120
I22
aI21
aI90
aa(lp6121
I23
aI21
aI90
aa(lp6122
I24
aI21
aI90
aaa(lp6123
(lp6124
I17
aI17
aI-1
aa(lp6125
I17
aI17
aI90
aa(lp6126
I18
aI17
aI90
aaa(lp6127
(lp6128
I21
aI21
aI180
aa(lp6129
I21
aI22
aI180
aa(lp6130
I21
aI23
aI180
aaa(lp6131
(lp6132
I0
aI7
aI180
aa(lp6133
I0
aI8
aI180
aa(lp6134
I0
aI9
aI180
aa(lp6135
I0
aI10
aI180
aa(lp6136
I0
aI11
aI180
aaa(lp6137
(lp6138
I23
aI21
aI180
aa(lp6139
I23
aI22
aI180
aa(lp6140
I23
aI23
aI180
aa(lp6141
I23
aI23
aI270
aaa(lp6142
(lp6143
I22
aI17
aI-1
aa(lp6144
I22
aI17
aI90
aaa(lp6145
(lp6146
I21
aI23
aI90
aa(lp6147
I21
aI23
aI0
aa(lp6148
I21
aI22
aI0
aa(lp6149
I21
aI21
aI0
aaa(lp6150
(lp6151
I20
aI17
aI90
aa(lp6152
I21
aI17
aI90
aa(lp6153
I22
aI17
aI90
aa(lp6154
I22
aI17
aI0
aaa(lp6155
(lp6156
I1
aI10
aI180
aa(lp6157
I1
aI10
aI270
aaa(lp6158
(lp6159
I22
aI16
aI90
aa(lp6160
I23
aI16
aI90
aaa(lp6161
(lp6162
I1
aI7
aI180
aa(lp6163
I1
aI8
aI180
aa(lp6164
I1
aI9
aI180
aaa(lp6165
(lp6166
I15
aI18
aI270
aa(lp6167
I15
aI18
aI180
aaa(lp6168
(lp6169
I15
aI18
aI180
aa(lp6170
I15
aI19
aI180
aa(lp6171
I15
aI20
aI180
aaa(lp6172
(lp6173
I23
aI21
aI180
aa(lp6174
I23
aI21
aI90
aa(lp6175
I24
aI21
aI90
aa(lp6176
I24
aI21
aI180
aa(lp6177
I24
aI21
aI270
aa(lp6178
I23
aI21
aI270
aa(lp6179
I22
aI21
aI270
aa(lp6180
I21
aI21
aI270
aaa(lp6181
(lp6182
I19
aI18
aI180
aa(lp6183
I19
aI19
aI180
aaa(lp6184
(lp6185
I22
aI17
aI-1
aa(lp6186
I22
aI17
aI90
aaa(lp6187
(lp6188
I17
aI18
aI90
aa(lp6189
I18
aI18
aI90
aa(lp6190
I19
aI18
aI90
aa(lp6191
I20
aI18
aI90
aaa(lp6192
(lp6193
I0
aI5
aI90
aa(lp6194
I1
aI5
aI90
aa(lp6195
I2
aI5
aI90
aa(lp6196
I3
aI5
aI90
aaa(lp6197
(lp6198
I0
aI9
aI-1
aa(lp6199
I0
aI9
aI0
aa(lp6200
I0
aI8
aI0
aa(lp6201
I0
aI7
aI0
aa(lp6202
I0
aI6
aI0
aaa(lp6203
(lp6204
I22
aI16
aI0
aa(lp6205
I22
aI16
aI90
aaa(lp6206
(lp6207
I22
aI16
aI180
aa(lp6208
I22
aI17
aI180
aaa(lp6209
(lp6210
I20
aI16
aI90
aa(lp6211
I20
aI16
aI180
aa(lp6212
I20
aI17
aI180
aa(lp6213
I20
aI18
aI180
aaa(lp6214
(lp6215
I21
aI17
aI-1
aa(lp6216
I21
aI17
aI270
aa(lp6217
I20
aI17
aI270
aaa(lp6218
(lp6219
I21
aI17
aI-1
aa(lp6220
I21
aI17
aI270
aaa(lp6221
(lp6222
I0
aI5
aI180
aa(lp6223
I0
aI6
aI180
aa(lp6224
I0
aI7
aI180
aa(lp6225
I0
aI8
aI180
aa(lp6226
I0
aI9
aI180
aaa(lp6227
(lp6228
I21
aI23
aI270
aa(lp6229
I21
aI23
aI180
aaa(lp6230
(lp6231
I0
aI11
aI270
aa(lp6232
I0
aI11
aI0
aaa(lp6233
(lp6234
I3
aI8
aI-1
aa(lp6235
I3
aI8
aI0
aa(lp6236
I3
aI8
aI270
aaa(lp6237
(lp6238
I3
aI5
aI-1
aa(lp6239
I3
aI5
aI180
aa(lp6240
I3
aI6
aI180
aa(lp6241
I3
aI7
aI180
aa(lp6242
I3
aI8
aI180
aaa(lp6243
(lp6244
I16
aI18
aI-1
aa(lp6245
I16
aI18
aI180
aaa(lp6246
(lp6247
I19
aI18
aI270
aa(lp6248
I18
aI18
aI270
aa(lp6249
I17
aI18
aI270
aa(lp6250
I16
aI18
aI270
aaa(lp6251
(lp6252
I1
aI11
aI270
aa(lp6253
I0
aI11
aI270
aa(lp6254
I0
aI11
aI0
aaa(lp6255
(lp6256
I23
aI16
aI-1
aa(lp6257
I23
aI16
aI270
aaa(lp6258
(lp6259
I18
aI17
aI0
aa(lp6260
I18
aI16
aI0
aaa(lp6261
(lp6262
I22
aI17
aI180
aa(lp6263
I22
aI17
aI90
aaa(lp6264
(lp6265
I20
aI18
aI0
aa(lp6266
I20
aI17
aI0
aaa(lp6267
(lp6268
I18
aI19
aI-1
aa(lp6269
I18
aI19
aI90
aa(lp6270
I19
aI19
aI90
aaa(lp6271
(lp6272
I19
aI18
aI0
aa(lp6273
I19
aI18
aI90
aaa(lp6274
(lp6275
I21
aI21
aI-1
aa(lp6276
I21
aI21
aI180
aaa(lp6277
(lp6278
I21
aI23
aI-1
aa(lp6279
I21
aI23
aI90
aa(lp6280
I21
aI23
aI180
aaa(lp6281
(lp6282
I19
aI23
aI-1
aa(lp6283
I19
aI23
aI180
aa(lp6284
I19
aI24
aI180
aa(lp6285
I19
aI24
aI90
aa(lp6286
I20
aI24
aI90
aa(lp6287
I21
aI24
aI90
aa(lp6288
I21
aI24
aI0
aaa(lp6289
(lp6290
I22
aI23
aI270
aa(lp6291
I21
aI23
aI270
aaa(lp6292
(lp6293
I1
aI8
aI180
aa(lp6294
I1
aI8
aI90
aaa(lp6295
(lp6296
I20
aI17
aI90
aa(lp6297
I21
aI17
aI90
aa(lp6298
I22
aI17
aI90
aa(lp6299
I22
aI17
aI0
aaa(lp6300
(lp6301
I16
aI18
aI270
aaa(lp6302
(lp6303
I22
aI17
aI270
aa(lp6304
I21
aI17
aI270
aa(lp6305
I20
aI17
aI270
aa(lp6306
I20
aI17
aI180
aaa(lp6307
(lp6308
I0
aI6
aI270
aa(lp6309
I0
aI6
aI180
aaa(lp6310
(lp6311
I22
aI17
aI90
aa(lp6312
I23
aI17
aI90
aa(lp6313
I23
aI17
aI180
aaa(lp6314
(lp6315
I1
aI11
aI270
aa(lp6316
I0
aI11
aI270
aa(lp6317
I0
aI11
aI0
aaa(lp6318
(lp6319
I23
aI15
aI270
aa(lp6320
I22
aI15
aI270
aa(lp6321
I21
aI15
aI270
aa(lp6322
I20
aI15
aI270
aa(lp6323
I19
aI15
aI270
aaa(lp6324
(lp6325
I17
aI18
aI270
aa(lp6326
I17
aI18
aI0
aaa(lp6327
(lp6328
I17
aI18
aI270
aa(lp6329
I16
aI18
aI270
aaa(lp6330
(lp6331
I23
aI17
aI90
aa(lp6332
I23
aI17
aI180
aaa(lp6333
(lp6334
I22
aI17
aI270
aaa(lp6335
(lp6336
I1
aI7
aI180
aa(lp6337
I1
aI7
aI90
aaa(lp6338
(lp6339
I1
aI9
aI270
aa(lp6340
I0
aI9
aI270
aa(lp6341
I0
aI9
aI0
aa(lp6342
I0
aI8
aI0
aa(lp6343
I0
aI7
aI0
aa(lp6344
I0
aI6
aI0
aa(lp6345
I0
aI5
aI0
aaa(lp6346
(lp6347
I19
aI16
aI90
aa(lp6348
I20
aI16
aI90
aa(lp6349
I20
aI16
aI180
aaa(lp6350
(lp6351
I22
aI23
aI-1
aa(lp6352
I22
aI23
aI90
aaa(lp6353
(lp6354
I20
aI18
aI180
aa(lp6355
I20
aI18
aI270
aaa(lp6356
(lp6357
I24
aI21
aI-1
aa(lp6358
I24
aI21
aI270
aa(lp6359
I23
aI21
aI270
aaa(lp6360
(lp6361
I2
aI7
aI90
aaa(lp6362
(lp6363
I21
aI21
aI90
aa(lp6364
I22
aI21
aI90
aa(lp6365
I23
aI21
aI90
aaa(lp6366
(lp6367
I1
aI6
aI90
aa(lp6368
I2
aI6
aI90
aa(lp6369
I3
aI6
aI90
aaa(lp6370
(lp6371
I3
aI7
aI0
aa(lp6372
I3
aI7
aI270
aaa(lp6373
(lp6374
I0
aI9
aI-1
aa(lp6375
I0
aI9
aI90
aa(lp6376
I1
aI9
aI90
aaa(lp6377
(lp6378
I1
aI7
aI90
aa(lp6379
I2
aI7
aI90
aaa(lp6380
(lp6381
I21
aI17
aI-1
aa(lp6382
I21
aI17
aI270
aa(lp6383
I20
aI17
aI270
aa(lp6384
I19
aI17
aI270
aa(lp6385
I19
aI17
aI180
aa(lp6386
I19
aI17
aI90
aa(lp6387
I20
aI17
aI90
aa(lp6388
I20
aI17
aI180
aa(lp6389
I20
aI18
aI180
aa(lp6390
I20
aI18
aI270
aa(lp6391
I19
aI18
aI270
aa(lp6392
I18
aI18
aI270
aa(lp6393
I17
aI18
aI270
aa(lp6394
I16
aI18
aI270
aa(lp6395
I15
aI18
aI270
aa(lp6396
I15
aI18
aI180
aa(lp6397
I15
aI19
aI180
aa(lp6398
I15
aI20
aI180
aaa(lp6399
(lp6400
I20
aI18
aI270
aa(lp6401
I19
aI18
aI270
aa(lp6402
I18
aI18
aI270
aa(lp6403
I17
aI18
aI270
aa(lp6404
I17
aI18
aI0
aaa(lp6405
(lp6406
I3
aI7
aI270
aa(lp6407
I2
aI7
aI270
aaa(lp6408
(lp6409
I21
aI22
aI90
aa(lp6410
I22
aI22
aI90
aaa(lp6411
(lp6412
I21
aI24
aI270
aa(lp6413
I20
aI24
aI270
aa(lp6414
I19
aI24
aI270
aa(lp6415
I19
aI24
aI0
aaa(lp6416
(lp6417
I3
aI5
aI-1
aa(lp6418
I3
aI5
aI180
aa(lp6419
I3
aI6
aI180
aa(lp6420
I3
aI7
aI180
aa(lp6421
I3
aI8
aI180
aaa(lp6422
(lp6423
I0
aI9
aI180
aaa(lp6424
(lp6425
I19
aI24
aI270
aa(lp6426
I19
aI24
aI0
aaa(lp6427
(lp6428
I0
aI5
aI180
aa(lp6429
I0
aI6
aI180
aa(lp6430
I0
aI7
aI180
aa(lp6431
I0
aI8
aI180
aa(lp6432
I0
aI9
aI180
aa(lp6433
I0
aI10
aI180
aa(lp6434
I0
aI11
aI180
aaa(lp6435
(lp6436
I2
aI5
aI180
aa(lp6437
I2
aI6
aI180
aa(lp6438
I2
aI7
aI180
aaa(lp6439
(lp6440
I2
aI7
aI270
aa(lp6441
I1
aI7
aI270
aa(lp6442
I0
aI7
aI270
aaa(lp6443
(lp6444
I23
aI17
aI270
aa(lp6445
I22
aI17
aI270
aaa(lp6446
(lp6447
I21
aI24
aI270
aa(lp6448
I20
aI24
aI270
aa(lp6449
I19
aI24
aI270
aaa(lp6450
(lp6451
I1
aI11
aI-1
aa(lp6452
I1
aI11
aI270
aa(lp6453
I0
aI11
aI270
aaa(lp6454
(lp6455
I3
aI7
aI0
aa(lp6456
I3
aI6
aI0
aa(lp6457
I3
aI5
aI0
aaa(lp6458
(lp6459
I3
aI5
aI-1
aa(lp6460
I3
aI5
aI270
aa(lp6461
I2
aI5
aI270
aa(lp6462
I1
aI5
aI270
aa(lp6463
I0
aI5
aI270
aaa(lp6464
(lp6465
I23
aI18
aI0
aaa(lp6466
(lp6467
I1
aI7
aI180
aa(lp6468
I1
aI8
aI180
aa(lp6469
I1
aI9
aI180
aa(lp6470
I1
aI9
aI270
aaa(lp6471
(lp6472
I21
aI24
aI180
aa(lp6473
I21
aI24
aI270
aaa(lp6474
(lp6475
I21
aI21
aI0
aa(lp6476
I21
aI21
aI90
aaa(lp6477
(lp6478
I20
aI18
aI90
aa(lp6479
I20
aI18
aI0
aa(lp6480
I20
aI17
aI0
aaa(lp6481
(lp6482
I23
aI16
aI270
aa(lp6483
I22
aI16
aI270
aaa(lp6484
(lp6485
I20
aI18
aI90
aa(lp6486
I20
aI18
aI0
aaa(lp6487
(lp6488
I17
aI17
aI-1
aa(lp6489
I17
aI17
aI270
aaa(lp6490
(lp6491
I2
aI7
aI-1
aa(lp6492
I2
aI7
aI0
aaa(lp6493
(lp6494
I21
aI23
aI-1
aa(lp6495
I21
aI23
aI90
aa(lp6496
I22
aI23
aI90
aa(lp6497
I23
aI23
aI90
aaa(lp6498
(lp6499
I19
aI18
aI270
aa(lp6500
I18
aI18
aI270
aa(lp6501
I17
aI18
aI270
aa(lp6502
I16
aI18
aI270
aaa(lp6503
(lp6504
I22
aI17
aI270
aa(lp6505
I21
aI17
aI270
aa(lp6506
I20
aI17
aI270
aaa(lp6507
(lp6508
I21
aI23
aI-1
aa(lp6509
I21
aI23
aI90
aa(lp6510
I22
aI23
aI90
aa(lp6511
I23
aI23
aI90
aa(lp6512
I24
aI23
aI90
aaa(lp6513
(lp6514
I22
aI17
aI-1
aa(lp6515
I22
aI17
aI90
aa(lp6516
I23
aI17
aI90
aa(lp6517
I23
aI17
aI180
aa(lp6518
I23
aI18
aI180
aa(lp6519
I23
aI19
aI180
aa(lp6520
I23
aI20
aI180
aa(lp6521
I23
aI21
aI180
aa(lp6522
I23
aI21
aI270
aa(lp6523
I22
aI21
aI270
aaa(lp6524
(lp6525
I23
aI17
aI270
aa(lp6526
I22
aI17
aI270
aaa(lp6527
(lp6528
I19
aI16
aI-1
aa(lp6529
I19
aI16
aI270
aaa(lp6530
(lp6531
I21
aI23
aI270
aa(lp6532
I21
aI23
aI0
aaa(lp6533
(lp6534
I0
aI7
aI0
aa(lp6535
I0
aI7
aI90
aaa(lp6536
(lp6537
I19
aI19
aI270
aa(lp6538
I18
aI19
aI270
aaa(lp6539
(lp6540
I0
aI7
aI0
aa(lp6541
I0
aI7
aI90
aa(lp6542
I1
aI7
aI90
aa(lp6543
I2
aI7
aI90
aaa(lp6544
(lp6545
I23
aI23
aI270
aa(lp6546
I22
aI23
aI270
aa(lp6547
I21
aI23
aI270
aaa(lp6548
(lp6549
I1
aI5
aI0
aa(lp6550
I1
aI5
aI90
aa(lp6551
I2
aI5
aI90
aa(lp6552
I3
aI5
aI90
aaa(lp6553
(lp6554
I23
aI18
aI-1
aa(lp6555
I23
aI18
aI180
aaa(lp6556
(lp6557
I1
aI9
aI180
aaa(lp6558
(lp6559
I2
aI8
aI180
aa(lp6560
I2
aI9
aI180
aaa(lp6561
(lp6562
I23
aI17
aI0
aa(lp6563
I23
aI17
aI270
aaa(lp6564
(lp6565
I20
aI18
aI180
aa(lp6566
I20
aI18
aI270
aaa(lp6567
(lp6568
I3
aI6
aI180
aa(lp6569
I3
aI7
aI180
aa(lp6570
I3
aI8
aI180
aaa(lp6571
(lp6572
I22
aI23
aI-1
aa(lp6573
I22
aI23
aI270
aaa(lp6574
(lp6575
I0
aI11
aI0
aa(lp6576
I0
aI10
aI0
aa(lp6577
I0
aI9
aI0
aaa(lp6578
(lp6579
I21
aI23
aI270
aa(lp6580
I21
aI23
aI180
aaa(lp6581
(lp6582
I24
aI21
aI-1
aa(lp6583
I24
aI21
aI270
aa(lp6584
I23
aI21
aI270
aaa(lp6585
(lp6586
I0
aI5
aI0
aa(lp6587
I0
aI5
aI90
aa(lp6588
I1
aI5
aI90
aa(lp6589
I2
aI5
aI90
aa(lp6590
I3
aI5
aI90
aaa(lp6591
(lp6592
I0
aI6
aI0
aa(lp6593
I0
aI6
aI90
aa(lp6594
I1
aI6
aI90
aaa(lp6595
(lp6596
I20
aI18
aI90
aa(lp6597
I20
aI18
aI0
aaa(lp6598
(lp6599
I23
aI23
aI270
aa(lp6600
I22
aI23
aI270
aaa(lp6601
(lp6602
I21
aI24
aI90
aa(lp6603
I21
aI24
aI0
aaa(lp6604
(lp6605
I2
aI7
aI270
aa(lp6606
I1
aI7
aI270
aaa(lp6607
(lp6608
I1
aI8
aI90
aa(lp6609
I2
aI8
aI90
aa(lp6610
I3
aI8
aI90
aaa(lp6611
(lp6612
I1
aI9
aI270
aa(lp6613
I0
aI9
aI270
aa(lp6614
I0
aI9
aI0
aaa(lp6615
(lp6616
I19
aI15
aI90
aa(lp6617
I20
aI15
aI90
aa(lp6618
I21
aI15
aI90
aa(lp6619
I22
aI15
aI90
aa(lp6620
I23
aI15
aI90
aaa(lp6621
(lp6622
I1
aI11
aI-1
aa(lp6623
I1
aI11
aI270
aa(lp6624
I0
aI11
aI270
aaa(lp6625
(lp6626
I2
aI6
aI270
aa(lp6627
I1
aI6
aI270
aaa(lp6628
(lp6629
I17
aI18
aI270
aa(lp6630
I17
aI18
aI0
aaa(lp6631
(lp6632
I23
aI21
aI0
aa(lp6633
I23
aI20
aI0
aa(lp6634
I23
aI19
aI0
aa(lp6635
I23
aI18
aI0
aa(lp6636
I23
aI17
aI0
aa(lp6637
I23
aI17
aI270
aaa(lp6638
(lp6639
I2
aI7
aI-1
aa(lp6640
I2
aI7
aI0
aa(lp6641
I2
aI6
aI0
aa(lp6642
I2
aI6
aI270
aa(lp6643
I1
aI6
aI270
aaa(lp6644
(lp6645
I21
aI21
aI90
aa(lp6646
I22
aI21
aI90
aa(lp6647
I23
aI21
aI90
aa(lp6648
I23
aI21
aI0
aaa(lp6649
(lp6650
I0
aI8
aI270
aa(lp6651
I0
aI8
aI180
aaa(lp6652
(lp6653
I23
aI16
aI270
aa(lp6654
I22
aI16
aI270
aa(lp6655
I22
aI16
aI180
aa(lp6656
I22
aI17
aI180
aa(lp6657
I22
aI17
aI270
aaa(lp6658
(lp6659
I23
aI23
aI0
aaa(lp6660
(lp6661
I0
aI7
aI180
aa(lp6662
I0
aI8
aI180
aa(lp6663
I0
aI9
aI180
aaa(lp6664
(lp6665
I23
aI23
aI90
aa(lp6666
I23
aI23
aI0
aaa(lp6667
(lp6668
I1
aI8
aI90
aaa(lp6669
(lp6670
I17
aI18
aI90
aa(lp6671
I18
aI18
aI90
aa(lp6672
I19
aI18
aI90
aa(lp6673
I20
aI18
aI90
aa(lp6674
I20
aI18
aI0
aaa(lp6675
(lp6676
I1
aI9
aI270
aa(lp6677
I0
aI9
aI270
aaa(lp6678
(lp6679
I20
aI18
aI90
aa(lp6680
I20
aI18
aI0
aaa(lp6681
(lp6682
I21
aI23
aI-1
aa(lp6683
I21
aI23
aI270
aaa(lp6684
(lp6685
I21
aI23
aI180
aa(lp6686
I21
aI24
aI180
aa(lp6687
I21
aI24
aI270
aaa(lp6688
(lp6689
I18
aI17
aI270
aa(lp6690
I17
aI17
aI270
aa(lp6691
I16
aI17
aI270
aa(lp6692
I15
aI17
aI270
aaa(lp6693
(lp6694
I22
aI23
aI-1
aa(lp6695
I22
aI23
aI270
aaa(lp6696
(lp6697
I22
aI23
aI90
aaa(lp6698
(lp6699
I21
aI23
aI0
aa(lp6700
I21
aI22
aI0
aa(lp6701
I21
aI21
aI0
aaa(lp6702
(lp6703
I18
aI19
aI-1
aa(lp6704
I18
aI19
aI90
aa(lp6705
I19
aI19
aI90
aa(lp6706
I19
aI19
aI0
aa(lp6707
I19
aI18
aI0
aa(lp6708
I19
aI18
aI270
aa(lp6709
I18
aI18
aI270
aa(lp6710
I17
aI18
aI270
aaa(lp6711
(lp6712
I21
aI23
aI-1
aa(lp6713
I21
aI23
aI90
aaa(lp6714
(lp6715
I22
aI17
aI90
aa(lp6716
I23
aI17
aI90
aa(lp6717
I23
aI17
aI180
aaa(lp6718
(lp6719
I22
aI17
aI270
aaa(lp6720
(lp6721
I18
aI17
aI90
aa(lp6722
I18
aI17
aI0
aaa(lp6723
(lp6724
I22
aI16
aI90
aa(lp6725
I23
aI16
aI90
aaa(lp6726
(lp6727
I23
aI17
aI270
aaa(lp6728
(lp6729
I19
aI18
aI270
aa(lp6730
I18
aI18
aI270
aa(lp6731
I17
aI18
aI270
aa(lp6732
I16
aI18
aI270
aa(lp6733
I15
aI18
aI270
aaa(lp6734
(lp6735
I20
aI18
aI0
aa(lp6736
I20
aI17
aI0
aaa(lp6737
(lp6738
I17
aI17
aI270
aa(lp6739
I17
aI17
aI180
aaa(lp6740
(lp6741
I24
aI23
aI180
aa(lp6742
I24
aI23
aI270
aa(lp6743
I23
aI23
aI270
aa(lp6744
I22
aI23
aI270
aaa(lp6745
(lp6746
I1
aI6
aI-1
aa(lp6747
I1
aI6
aI180
aaa(lp6748
(lp6749
I0
aI9
aI-1
aa(lp6750
I0
aI9
aI0
aa(lp6751
I0
aI8
aI0
aa(lp6752
I0
aI7
aI0
aaa(lp6753
(lp6754
I19
aI19
aI270
aa(lp6755
I18
aI19
aI270
aaa(lp6756
(lp6757
I17
aI18
aI90
aa(lp6758
I18
aI18
aI90
aa(lp6759
I19
aI18
aI90
aaa(lp6760
(lp6761
I0
aI6
aI270
aa(lp6762
I0
aI6
aI180
aa(lp6763
I0
aI7
aI180
aa(lp6764
I0
aI8
aI180
aa(lp6765
I0
aI9
aI180
aa(lp6766
I0
aI10
aI180
aa(lp6767
I0
aI11
aI180
aaa(lp6768
(lp6769
I0
aI11
aI90
aa(lp6770
I1
aI11
aI90
aaa(lp6771
(lp6772
I19
aI18
aI270
aa(lp6773
I19
aI18
aI180
aaa(lp6774
(lp6775
I19
aI24
aI0
aa(lp6776
I19
aI23
aI0
aaa(lp6777
(lp6778
I19
aI23
aI-1
aa(lp6779
I19
aI23
aI180
aa(lp6780
I19
aI24
aI180
aaa(lp6781
(lp6782
I2
aI7
aI270
aa(lp6783
I1
aI7
aI270
aa(lp6784
I0
aI7
aI270
aaa(lp6785
(lp6786
I23
aI16
aI0
aa(lp6787
I23
aI15
aI0
aaa(lp6788
(lp6789
I19
aI18
aI180
aa(lp6790
I19
aI19
aI180
aa(lp6791
I19
aI19
aI270
aaa(lp6792
(lp6793
I0
aI9
aI180
aa(lp6794
I0
aI10
aI180
aa(lp6795
I0
aI11
aI180
aaa(lp6796
(lp6797
I22
aI17
aI90
aa(lp6798
I22
aI17
aI0
aaa(lp6799
(lp6800
I20
aI18
aI90
aa(lp6801
I20
aI18
aI0
aaa(lp6802
(lp6803
I24
aI21
aI-1
aa(lp6804
I24
aI21
aI270
aaa(lp6805
(lp6806
I23
aI20
aI0
aa(lp6807
I23
aI19
aI0
aa(lp6808
I23
aI18
aI0
aa(lp6809
I23
aI17
aI0
aa(lp6810
I23
aI17
aI270
aaa(lp6811
(lp6812
I3
aI8
aI270
aa(lp6813
I2
aI8
aI270
aa(lp6814
I1
aI8
aI270
aa(lp6815
I1
aI8
aI0
aaa(lp6816
(lp6817
I1
aI6
aI-1
aa(lp6818
I1
aI6
aI180
aaa(lp6819
(lp6820
I19
aI24
aI180
aa(lp6821
I19
aI24
aI90
aaa(lp6822
(lp6823
I0
aI9
aI180
aaa(lp6824
(lp6825
I15
aI20
aI0
aa(lp6826
I15
aI19
aI0
aa(lp6827
I15
aI18
aI0
aaa(lp6828
(lp6829
I23
aI23
aI180
aa(lp6830
I23
aI23
aI270
aaa(lp6831
(lp6832
I3
aI8
aI90
aaa(lp6833
(lp6834
I24
aI21
aI270
aa(lp6835
I23
aI21
aI270
aa(lp6836
I22
aI21
aI270
aa(lp6837
I21
aI21
aI270
aa(lp6838
I21
aI21
aI180
aaa(lp6839
(lp6840
I20
aI17
aI0
aa(lp6841
I20
aI17
aI90
aaa(lp6842
(lp6843
I17
aI18
aI270
aa(lp6844
I16
aI18
aI270
aa(lp6845
I15
aI18
aI270
aaa(lp6846
(lp6847
I23
aI17
aI90
aa(lp6848
I23
aI17
aI180
aa(lp6849
I23
aI18
aI180
aa(lp6850
I23
aI19
aI180
aa(lp6851
I23
aI20
aI180
aa(lp6852
I23
aI21
aI180
aa(lp6853
I23
aI22
aI180
aa(lp6854
I23
aI23
aI180
aaa(lp6855
(lp6856
I18
aI16
aI90
aa(lp6857
I19
aI16
aI90
aaa(lp6858
(lp6859
I15
aI20
aI-1
aa(lp6860
I15
aI20
aI0
aa(lp6861
I15
aI19
aI0
aa(lp6862
I15
aI18
aI0
aa(lp6863
I15
aI17
aI0
aaa(lp6864
(lp6865
I3
aI8
aI0
aa(lp6866
I3
aI8
aI270
aa(lp6867
I2
aI8
aI270
aa(lp6868
I1
aI8
aI270
aa(lp6869
I0
aI8
aI270
aaa(lp6870
(lp6871
I23
aI21
aI270
aa(lp6872
I23
aI21
aI0
aaa(lp6873
(lp6874
I17
aI18
aI270
aa(lp6875
I17
aI18
aI0
aaa(lp6876
(lp6877
I20
aI17
aI180
aa(lp6878
I20
aI18
aI180
aaa(lp6879
(lp6880
I16
aI18
aI270
aaa(lp6881
(lp6882
I1
aI8
aI90
aa(lp6883
I2
aI8
aI90
aa(lp6884
I3
aI8
aI90
aaa(lp6885
(lp6886
I0
aI11
aI180
aa(lp6887
I0
aI11
aI90
aaa(lp6888
(lp6889
I19
aI16
aI-1
aa(lp6890
I19
aI16
aI90
aa(lp6891
I20
aI16
aI90
aa(lp6892
I20
aI16
aI180
aa(lp6893
I20
aI17
aI180
aa(lp6894
I20
aI17
aI90
aaa(lp6895
(lp6896
I22
aI17
aI90
aa(lp6897
I23
aI17
aI90
aaa(lp6898
(lp6899
I21
aI23
aI90
aa(lp6900
I22
aI23
aI90
aa(lp6901
I23
aI23
aI90
aaa(lp6902
(lp6903
I19
aI15
aI0
aa(lp6904
I19
aI15
aI90
aaa(lp6905
(lp6906
I16
aI18
aI90
aaa(lp6907
(lp6908
I15
aI18
aI0
aa(lp6909
I15
aI18
aI90
aaa(lp6910
(lp6911
I17
aI18
aI180
aaa(lp6912
(lp6913
I20
aI18
aI180
aa(lp6914
I20
aI18
aI270
aa(lp6915
I19
aI18
aI270
aaa(lp6916
(lp6917
I19
aI19
aI0
aa(lp6918
I19
aI18
aI0
aaa(lp6919
(lp6920
I20
aI18
aI270
aa(lp6921
I19
aI18
aI270
aa(lp6922
I18
aI18
aI270
aa(lp6923
I17
aI18
aI270
aa(lp6924
I16
aI18
aI270
aa(lp6925
I15
aI18
aI270
aa(lp6926
I15
aI18
aI180
aa(lp6927
I15
aI19
aI180
aa(lp6928
I15
aI20
aI180
aaa(lp6929
(lp6930
I0
aI9
aI0
aa(lp6931
I0
aI8
aI0
aa(lp6932
I0
aI7
aI0
aa(lp6933
I0
aI6
aI0
aa(lp6934
I0
aI5
aI0
aaa(lp6935
(lp6936
I3
aI5
aI-1
aa(lp6937
I3
aI5
aI180
aa(lp6938
I3
aI6
aI180
aa(lp6939
I3
aI7
aI180
aaa(lp6940
(lp6941
I18
aI19
aI-1
aa(lp6942
I18
aI19
aI90
aa(lp6943
I19
aI19
aI90
aaa(lp6944
(lp6945
I16
aI18
aI-1
aa(lp6946
I16
aI18
aI90
aa(lp6947
I17
aI18
aI90
aa(lp6948
I18
aI18
aI90
aaa(lp6949
(lp6950
I22
aI17
aI-1
aa(lp6951
I22
aI17
aI180
aa(lp6952
I22
aI17
aI90
aaa(lp6953
(lp6954
I19
aI18
aI180
aa(lp6955
I19
aI19
aI180
aa(lp6956
I19
aI19
aI270
aa(lp6957
I18
aI19
aI270
aaa(lp6958
(lp6959
I18
aI16
aI90
aa(lp6960
I19
aI16
aI90
aa(lp6961
I19
aI16
aI0
aaa(lp6962
(lp6963
I23
aI23
aI90
aa(lp6964
I24
aI23
aI90
aa(lp6965
I24
aI23
aI0
aa(lp6966
I24
aI23
aI270
aa(lp6967
I23
aI23
aI270
aa(lp6968
I22
aI23
aI270
aa(lp6969
I21
aI23
aI270
aa(lp6970
I21
aI23
aI180
aaa(lp6971
(lp6972
I16
aI18
aI-1
aa(lp6973
I16
aI18
aI270
aa(lp6974
I15
aI18
aI270
aa(lp6975
I15
aI18
aI0
aa(lp6976
I15
aI17
aI0
aa(lp6977
I15
aI17
aI90
aa(lp6978
I15
aI17
aI180
aa(lp6979
I15
aI18
aI180
aa(lp6980
I15
aI19
aI180
aa(lp6981
I15
aI20
aI180
aaa(lp6982
(lp6983
I21
aI22
aI180
aa(lp6984
I21
aI22
aI90
aaa(lp6985
(lp6986
I2
aI7
aI-1
aa(lp6987
I2
aI7
aI270
aaa(lp6988
(lp6989
I17
aI17
aI0
aaa(lp6990
(lp6991
I23
aI17
aI180
aa(lp6992
I23
aI18
aI180
aa(lp6993
I23
aI19
aI180
aa(lp6994
I23
aI20
aI180
aa(lp6995
I23
aI21
aI180
aa(lp6996
I23
aI22
aI180
aa(lp6997
I23
aI23
aI180
aa(lp6998
I23
aI23
aI90
aa(lp6999
I23
aI23
aI0
aa(lp7000
I23
aI23
aI270
aa(lp7001
I22
aI23
aI270
aa(lp7002
I21
aI23
aI270
aa(lp7003
I21
aI23
aI180
aa(lp7004
I21
aI24
aI180
aa(lp7005
I21
aI24
aI270
aa(lp7006
I20
aI24
aI270
aa(lp7007
I19
aI24
aI270
aa(lp7008
I19
aI24
aI0
aa(lp7009
I19
aI23
aI0
aaa(lp7010
(lp7011
I20
aI17
aI90
aaa(lp7012
(lp7013
I2
aI9
aI0
aa(lp7014
I2
aI8
aI0
aaa(lp7015
(lp7016
I23
aI19
aI0
aa(lp7017
I23
aI18
aI0
aa(lp7018
I23
aI17
aI0
aa(lp7019
I23
aI17
aI270
aa(lp7020
I22
aI17
aI270
aaa(lp7021
(lp7022
I16
aI18
aI-1
aa(lp7023
I16
aI18
aI90
aa(lp7024
I17
aI18
aI90
aa(lp7025
I18
aI18
aI90
aa(lp7026
I19
aI18
aI90
aa(lp7027
I20
aI18
aI90
aaa(lp7028
(lp7029
I21
aI17
aI270
aa(lp7030
I20
aI17
aI270
aa(lp7031
I20
aI17
aI180
aa(lp7032
I20
aI18
aI180
aaa(lp7033
(lp7034
I15
aI17
aI270
aa(lp7035
I15
aI17
aI180
aa(lp7036
I15
aI18
aI180
aa(lp7037
I15
aI19
aI180
aa(lp7038
I15
aI20
aI180
aaa(lp7039
(lp7040
I23
aI16
aI-1
aa(lp7041
I23
aI16
aI270
aaa(lp7042
(lp7043
I19
aI16
aI-1
aa(lp7044
I19
aI16
aI0
aaa(lp7045
(lp7046
I15
aI19
aI0
aa(lp7047
I15
aI18
aI0
aa(lp7048
I15
aI18
aI90
aaa(lp7049
(lp7050
I1
aI6
aI270
aa(lp7051
I0
aI6
aI270
aaa(lp7052
(lp7053
I19
aI18
aI180
aa(lp7054
I19
aI19
aI180
aaa(lp7055
(lp7056
I23
aI16
aI270
aa(lp7057
I22
aI16
aI270
aa(lp7058
I22
aI16
aI180
aaa(lp7059
(lp7060
I19
aI23
aI-1
aa(lp7061
I19
aI23
aI180
aaa(lp7062
(lp7063
I1
aI5
aI180
aaa(lp7064
(lp7065
I19
aI24
aI90
aa(lp7066
I20
aI24
aI90
aa(lp7067
I21
aI24
aI90
aaa(lp7068
(lp7069
I3
aI8
aI-1
aa(lp7070
I3
aI8
aI0
aa(lp7071
I3
aI7
aI0
aa(lp7072
I3
aI6
aI0
aa(lp7073
I3
aI5
aI0
aa(lp7074
I3
aI5
aI270
aa(lp7075
I2
aI5
aI270
aa(lp7076
I1
aI5
aI270
aa(lp7077
I0
aI5
aI270
aa(lp7078
I0
aI5
aI180
aa(lp7079
I0
aI6
aI180
aa(lp7080
I0
aI7
aI180
aa(lp7081
I0
aI8
aI180
aa(lp7082
I0
aI9
aI180
aa(lp7083
I0
aI10
aI180
aa(lp7084
I0
aI11
aI180
aaa(lp7085
(lp7086
I19
aI24
aI90
aa(lp7087
I20
aI24
aI90
aa(lp7088
I21
aI24
aI90
aaa(lp7089
(lp7090
I23
aI16
aI-1
aa(lp7091
I23
aI16
aI0
aaa(lp7092
(lp7093
I20
aI18
aI270
aa(lp7094
I19
aI18
aI270
aaa(lp7095
(lp7096
I23
aI17
aI90
aa(lp7097
I23
aI17
aI180
aa(lp7098
I23
aI18
aI180
aaa(lp7099
(lp7100
I15
aI20
aI-1
aa(lp7101
I15
aI20
aI0
aa(lp7102
I15
aI19
aI0
aa(lp7103
I15
aI18
aI0
aa(lp7104
I15
aI17
aI0
aaa(lp7105
(lp7106
I19
aI24
aI270
aa(lp7107
I19
aI24
aI0
aa(lp7108
I19
aI23
aI0
aaa(lp7109
(lp7110
I23
aI18
aI0
aa(lp7111
I23
aI17
aI0
aaa(lp7112
(lp7113
I22
aI17
aI90
aa(lp7114
I23
aI17
aI90
aa(lp7115
I23
aI17
aI180
aa(lp7116
I23
aI18
aI180
aa(lp7117
I23
aI19
aI180
aa(lp7118
I23
aI20
aI180
aa(lp7119
I23
aI21
aI180
aaa(lp7120
(lp7121
I1
aI6
aI270
aaa(lp7122
(lp7123
I3
aI8
aI-1
aa(lp7124
I3
aI8
aI0
aaa(lp7125
(lp7126
I19
aI24
aI180
aa(lp7127
I19
aI24
aI90
aa(lp7128
I20
aI24
aI90
aa(lp7129
I21
aI24
aI90
aaa(lp7130
(lp7131
I23
aI18
aI-1
aa(lp7132
I23
aI18
aI90
aaa(lp7133
(lp7134
I19
aI24
aI0
aa(lp7135
I19
aI23
aI0
aaa(lp7136
(lp7137
I17
aI17
aI-1
aa(lp7138
I17
aI17
aI180
aaa(lp7139
(lp7140
I2
aI7
aI90
aa(lp7141
I3
aI7
aI90
aa(lp7142
I3
aI7
aI180
aa(lp7143
I3
aI8
aI180
aaa(lp7144
(lp7145
I22
aI23
aI90
aaa(lp7146
(lp7147
I2
aI7
aI-1
aa(lp7148
I2
aI7
aI270
aa(lp7149
I1
aI7
aI270
aaa(lp7150
(lp7151
I19
aI18
aI180
aa(lp7152
I19
aI19
aI180
aaa(lp7153
(lp7154
I0
aI5
aI90
aa(lp7155
I1
aI5
aI90
aa(lp7156
I2
aI5
aI90
aa(lp7157
I3
aI5
aI90
aaa(lp7158
(lp7159
I22
aI16
aI180
aa(lp7160
I22
aI17
aI180
aa(lp7161
I22
aI17
aI270
aaa(lp7162
(lp7163
I20
aI18
aI270
aa(lp7164
I19
aI18
aI270
aa(lp7165
I18
aI18
aI270
aa(lp7166
I17
aI18
aI270
aa(lp7167
I17
aI18
aI0
aaa(lp7168
(lp7169
I15
aI20
aI-1
aa(lp7170
I15
aI20
aI0
aa(lp7171
I15
aI19
aI0
aa(lp7172
I15
aI18
aI0
aa(lp7173
I15
aI17
aI0
aaa(lp7174
(lp7175
I21
aI24
aI90
aa(lp7176
I21
aI24
aI0
aaa(lp7177
(lp7178
I20
aI17
aI180
aa(lp7179
I20
aI18
aI180
aaa(lp7180
(lp7181
I23
aI23
aI180
aa(lp7182
I23
aI23
aI270
aa(lp7183
I22
aI23
aI270
aaa(lp7184
(lp7185
I23
aI23
aI270
aa(lp7186
I22
aI23
aI270
aa(lp7187
I21
aI23
aI270
aaa(lp7188
(lp7189
I22
aI23
aI-1
aa(lp7190
I22
aI23
aI270
aaa(lp7191
(lp7192
I0
aI5
aI90
aa(lp7193
I1
aI5
aI90
aa(lp7194
I2
aI5
aI90
aa(lp7195
I3
aI5
aI90
aaa(lp7196
(lp7197
I19
aI16
aI0
aaa(lp7198
(lp7199
I23
aI16
aI-1
aa(lp7200
I23
aI16
aI270
aa(lp7201
I22
aI16
aI270
aaa(lp7202
(lp7203
I23
aI17
aI270
aa(lp7204
I22
aI17
aI270
aaa(lp7205
(lp7206
I22
aI17
aI0
aa(lp7207
I22
aI16
aI0
aaa(lp7208
(lp7209
I19
aI16
aI-1
aa(lp7210
I19
aI16
aI270
aa(lp7211
I18
aI16
aI270
aa(lp7212
I17
aI16
aI270
aa(lp7213
I17
aI16
aI0
aa(lp7214
I17
aI16
aI90
aa(lp7215
I18
aI16
aI90
aa(lp7216
I18
aI16
aI180
aa(lp7217
I18
aI17
aI180
aaa(lp7218
(lp7219
I23
aI21
aI0
aa(lp7220
I23
aI20
aI0
aa(lp7221
I23
aI19
aI0
aa(lp7222
I23
aI18
aI0
aa(lp7223
I23
aI17
aI0
aaa(lp7224
(lp7225
I3
aI5
aI-1
aa(lp7226
I3
aI5
aI270
aaa(lp7227
(lp7228
I1
aI6
aI-1
aa(lp7229
I1
aI6
aI180
aaa(lp7230
(lp7231
I19
aI24
aI180
aa(lp7232
I19
aI24
aI90
aaa(lp7233
(lp7234
I1
aI11
aI270
aa(lp7235
I0
aI11
aI270
aaa(lp7236
(lp7237
I23
aI19
aI90
aa(lp7238
I24
aI19
aI90
aa(lp7239
I24
aI19
aI180
aa(lp7240
I24
aI20
aI180
aa(lp7241
I24
aI21
aI180
aaa(lp7242
(lp7243
I21
aI21
aI-1
aa(lp7244
I21
aI21
aI180
aaa(lp7245
(lp7246
I21
aI23
aI180
aa(lp7247
I21
aI24
aI180
aaa(lp7248
(lp7249
I22
aI17
aI0
aa(lp7250
I22
aI16
aI0
aaa(lp7251
(lp7252
I21
aI21
aI-1
aa(lp7253
I21
aI21
aI90
aaa(lp7254
(lp7255
I23
aI17
aI270
aa(lp7256
I22
aI17
aI270
aaa(lp7257
(lp7258
I22
aI23
aI270
aa(lp7259
I21
aI23
aI270
aaa(lp7260
(lp7261
I23
aI21
aI0
aa(lp7262
I23
aI20
aI0
aa(lp7263
I23
aI19
aI0
aa(lp7264
I23
aI18
aI0
aa(lp7265
I23
aI17
aI0
aaa(lp7266
(lp7267
I24
aI21
aI90
aaa(lp7268
(lp7269
I23
aI21
aI90
aa(lp7270
I23
aI21
aI0
aaa(lp7271
(lp7272
I0
aI5
aI180
aa(lp7273
I0
aI6
aI180
aa(lp7274
I0
aI7
aI180
aa(lp7275
I0
aI8
aI180
aa(lp7276
I0
aI9
aI180
aa(lp7277
I0
aI10
aI180
aa(lp7278
I0
aI11
aI180
aaa(lp7279
(lp7280
I2
aI5
aI0
aa(lp7281
I2
aI5
aI90
aa(lp7282
I3
aI5
aI90
aaa(lp7283
(lp7284
I20
aI18
aI0
aa(lp7285
I20
aI17
aI0
aaa(lp7286
(lp7287
I23
aI17
aI0
aa(lp7288
I23
aI17
aI270
aaa(lp7289
(lp7290
I0
aI8
aI270
aa(lp7291
I0
aI8
aI180
aaa(lp7292
(lp7293
I22
aI16
aI90
aa(lp7294
I23
aI16
aI90
aaa(lp7295
(lp7296
I21
aI24
aI0
aaa(lp7297
(lp7298
I0
aI6
aI90
aaa(lp7299
(lp7300
I21
aI23
aI-1
aa(lp7301
I21
aI23
aI90
aaa(lp7302
(lp7303
I22
aI16
aI90
aa(lp7304
I23
aI16
aI90
aaa(lp7305
(lp7306
I23
aI21
aI90
aaa(lp7307
(lp7308
I16
aI18
aI-1
aa(lp7309
I16
aI18
aI90
aa(lp7310
I17
aI18
aI90
aa(lp7311
I18
aI18
aI90
aa(lp7312
I19
aI18
aI90
aaa(lp7313
(lp7314
I19
aI19
aI0
aa(lp7315
I19
aI18
aI0
aaa(lp7316
(lp7317
I22
aI17
aI180
aa(lp7318
I22
aI17
aI270
aa(lp7319
I21
aI17
aI270
aa(lp7320
I20
aI17
aI270
aa(lp7321
I20
aI17
aI180
aa(lp7322
I20
aI18
aI180
aaa(lp7323
(lp7324
I23
aI17
aI0
aa(lp7325
I23
aI17
aI270
aa(lp7326
I22
aI17
aI270
aaa(lp7327
(lp7328
I24
aI23
aI90
aa(lp7329
I24
aI23
aI0
aaa(lp7330
(lp7331
I0
aI9
aI-1
aa(lp7332
I0
aI9
aI90
aaa(lp7333
(lp7334
I19
aI18
aI180
aa(lp7335
I19
aI19
aI180
aaa(lp7336
(lp7337
I19
aI18
aI180
aa(lp7338
I19
aI19
aI180
aa(lp7339
I19
aI19
aI270
aa(lp7340
I18
aI19
aI270
aaa(lp7341
(lp7342
I15
aI20
aI0
aa(lp7343
I15
aI19
aI0
aa(lp7344
I15
aI18
aI0
aa(lp7345
I15
aI18
aI90
aaa(lp7346
(lp7347
I21
aI21
aI-1
aa(lp7348
I21
aI21
aI180
aa(lp7349
I21
aI22
aI180
aa(lp7350
I21
aI23
aI180
aa(lp7351
I21
aI24
aI180
aaa(lp7352
(lp7353
I21
aI23
aI90
aaa(lp7354
(lp7355
I19
aI24
aI270
aa(lp7356
I19
aI24
aI0
aaa(lp7357
(lp7358
I21
aI24
aI90
aa(lp7359
I21
aI24
aI0
aa(lp7360
I21
aI23
aI0
aa(lp7361
I21
aI23
aI90
aaa(lp7362
(lp7363
I1
aI11
aI-1
aa(lp7364
I1
aI11
aI270
aaa(lp7365
(lp7366
I15
aI20
aI-1
aa(lp7367
I15
aI20
aI0
aa(lp7368
I15
aI19
aI0
aaa(lp7369
(lp7370
I19
aI18
aI270
aa(lp7371
I18
aI18
aI270
aa(lp7372
I17
aI18
aI270
aa(lp7373
I16
aI18
aI270
aaa(lp7374
(lp7375
I20
aI17
aI180
aaa(lp7376
(lp7377
I21
aI24
aI90
aa(lp7378
I21
aI24
aI0
aaa(lp7379
(lp7380
I0
aI11
aI270
aa(lp7381
I0
aI11
aI0
aaa(lp7382
(lp7383
I19
aI18
aI90
aa(lp7384
I19
aI18
aI180
aaa(lp7385
(lp7386
I21
aI17
aI-1
aa(lp7387
I21
aI17
aI270
aaa(lp7388
(lp7389
I24
aI21
aI0
aaa(lp7390
(lp7391
I22
aI23
aI-1
aa(lp7392
I22
aI23
aI270
aaa(lp7393
(lp7394
I0
aI11
aI0
aa(lp7395
I0
aI10
aI0
aa(lp7396
I0
aI9
aI0
aa(lp7397
I0
aI9
aI90
aaa(lp7398
(lp7399
I21
aI21
aI0
aa(lp7400
I21
aI21
aI90
aaa(lp7401
(lp7402
I1
aI6
aI180
aa(lp7403
I1
aI7
aI180
aa(lp7404
I1
aI8
aI180
aa(lp7405
I1
aI9
aI180
aaa(lp7406
(lp7407
I18
aI19
aI-1
aa(lp7408
I18
aI19
aI90
aa(lp7409
I19
aI19
aI90
aa(lp7410
I19
aI19
aI0
aaa(lp7411
(lp7412
I20
aI18
aI90
aa(lp7413
I20
aI18
aI0
aa(lp7414
I20
aI17
aI0
aa(lp7415
I20
aI16
aI0
aaa(lp7416
(lp7417
I1
aI6
aI-1
aa(lp7418
I1
aI6
aI180
aaa(lp7419
(lp7420
I18
aI16
aI0
aa(lp7421
I18
aI16
aI90
aa(lp7422
I19
aI16
aI90
aaa(lp7423
(lp7424
I17
aI17
aI-1
aa(lp7425
I17
aI17
aI270
aa(lp7426
I16
aI17
aI270
aa(lp7427
I15
aI17
aI270
aa(lp7428
I15
aI17
aI180
aa(lp7429
I15
aI18
aI180
aa(lp7430
I15
aI19
aI180
aa(lp7431
I15
aI20
aI180
aaa(lp7432
(lp7433
I23
aI21
aI270
aa(lp7434
I22
aI21
aI270
aa(lp7435
I21
aI21
aI270
aaa(lp7436
(lp7437
I0
aI9
aI270
aaa(lp7438
(lp7439
I22
aI16
aI180
aa(lp7440
I22
aI17
aI180
aaa(lp7441
(lp7442
I22
aI23
aI-1
aa(lp7443
I22
aI23
aI270
aa(lp7444
I21
aI23
aI270
aaa(lp7445
(lp7446
I15
aI18
aI0
aa(lp7447
I15
aI18
aI90
aaa(lp7448
(lp7449
I3
aI6
aI270
aa(lp7450
I2
aI6
aI270
aa(lp7451
I1
aI6
aI270
aa(lp7452
I1
aI6
aI180
aaa(lp7453
(lp7454
I22
aI17
aI-1
aa(lp7455
I22
aI17
aI180
aa(lp7456
I22
aI17
aI90
aaa(lp7457
(lp7458
I20
aI18
aI180
aa(lp7459
I20
aI18
aI270
aaa(lp7460
(lp7461
I16
aI18
aI270
aa(lp7462
I15
aI18
aI270
aa(lp7463
I15
aI18
aI180
aaa(lp7464
(lp7465
I18
aI18
aI90
aa(lp7466
I19
aI18
aI90
aa(lp7467
I20
aI18
aI90
aa(lp7468
I20
aI18
aI0
aaa(lp7469
(lp7470
I19
aI24
aI0
aa(lp7471
I19
aI23
aI0
aaa(lp7472
(lp7473
I19
aI19
aI0
aa(lp7474
I19
aI18
aI0
aaa(lp7475
(lp7476
I19
aI16
aI-1
aa(lp7477
I19
aI16
aI270
aaa(lp7478
(lp7479
I22
aI17
aI90
aa(lp7480
I23
aI17
aI90
aaa(lp7481
(lp7482
I19
aI24
aI90
aa(lp7483
I20
aI24
aI90
aa(lp7484
I21
aI24
aI90
aaa(lp7485
(lp7486
I21
aI24
aI270
aa(lp7487
I20
aI24
aI270
aa(lp7488
I19
aI24
aI270
aaa(lp7489
(lp7490
I22
aI17
aI90
aa(lp7491
I22
aI17
aI0
aaa(lp7492
(lp7493
I1
aI5
aI270
aa(lp7494
I1
aI5
aI180
aa(lp7495
I1
aI6
aI180
aaa(lp7496
(lp7497
I1
aI6
aI180
aaa(lp7498
(lp7499
I0
aI9
aI-1
aa(lp7500
I0
aI9
aI0
aa(lp7501
I0
aI8
aI0
aa(lp7502
I0
aI7
aI0
aa(lp7503
I0
aI6
aI0
aaa(lp7504
(lp7505
I17
aI17
aI-1
aa(lp7506
I17
aI17
aI180
aaa(lp7507
(lp7508
I19
aI24
aI90
aa(lp7509
I20
aI24
aI90
aa(lp7510
I21
aI24
aI90
aaa(lp7511
(lp7512
I19
aI23
aI180
aa(lp7513
I19
aI24
aI180
aaa(lp7514
(lp7515
I21
aI21
aI90
aa(lp7516
I22
aI21
aI90
aa(lp7517
I23
aI21
aI90
aa(lp7518
I24
aI21
aI90
aaa(lp7519
(lp7520
I16
aI18
aI90
aa(lp7521
I17
aI18
aI90
aa(lp7522
I18
aI18
aI90
aa(lp7523
I19
aI18
aI90
aa(lp7524
I19
aI18
aI180
aaa(lp7525
(lp7526
I21
aI21
aI0
aa(lp7527
I21
aI21
aI90
aa(lp7528
I22
aI21
aI90
aa(lp7529
I23
aI21
aI90
aaa(lp7530
(lp7531
I23
aI17
aI0
aa(lp7532
I23
aI17
aI270
aaa(lp7533
(lp7534
I1
aI7
aI0
aa(lp7535
I1
aI6
aI0
aaa(lp7536
(lp7537
I1
aI5
aI180
aa(lp7538
I1
aI6
aI180
aaa(lp7539
(lp7540
I23
aI17
aI0
aa(lp7541
I23
aI17
aI270
aaa(lp7542
(lp7543
I19
aI16
aI270
aa(lp7544
I18
aI16
aI270
aaa(lp7545
(lp7546
I21
aI23
aI270
aaa(lp7547
(lp7548
I23
aI23
aI270
aa(lp7549
I22
aI23
aI270
aa(lp7550
I21
aI23
aI270
aaa(lp7551
(lp7552
I23
aI17
aI180
aa(lp7553
I23
aI18
aI180
aa(lp7554
I23
aI19
aI180
aaa(lp7555
(lp7556
I0
aI6
aI0
aa(lp7557
I0
aI6
aI90
aaa(lp7558
(lp7559
I22
aI17
aI-1
aa(lp7560
I22
aI17
aI270
aa(lp7561
I21
aI17
aI270
aaa(lp7562
(lp7563
I1
aI11
aI-1
aa(lp7564
I1
aI11
aI270
aaa(lp7565
(lp7566
I0
aI9
aI90
aaa(lp7567
(lp7568
I21
aI17
aI90
aa(lp7569
I22
aI17
aI90
aaa(lp7570
(lp7571
I23
aI18
aI180
aa(lp7572
I23
aI19
aI180
aa(lp7573
I23
aI20
aI180
aa(lp7574
I23
aI21
aI180
aaa(lp7575
(lp7576
I23
aI21
aI180
aa(lp7577
I23
aI21
aI270
aaa(lp7578
(lp7579
I23
aI17
aI270
aa(lp7580
I22
aI17
aI270
aaa(lp7581
(lp7582
I20
aI18
aI270
aa(lp7583
I19
aI18
aI270
aa(lp7584
I18
aI18
aI270
aa(lp7585
I17
aI18
aI270
aa(lp7586
I16
aI18
aI270
aa(lp7587
I15
aI18
aI270
aaa(lp7588
(lp7589
I23
aI16
aI270
aa(lp7590
I22
aI16
aI270
aaa(lp7591
(lp7592
I3
aI6
aI180
aa(lp7593
I3
aI6
aI270
aaa(lp7594
(lp7595
I1
aI9
aI0
aa(lp7596
I1
aI8
aI0
aa(lp7597
I1
aI7
aI0
aa(lp7598
I1
aI6
aI0
aaa(lp7599
(lp7600
I24
aI21
aI180
aa(lp7601
I24
aI22
aI180
aa(lp7602
I24
aI23
aI180
aaa(lp7603
(lp7604
I18
aI19
aI90
aa(lp7605
I19
aI19
aI90
aaa(lp7606
(lp7607
I23
aI15
aI90
aa(lp7608
I23
aI15
aI180
aaa(lp7609
(lp7610
I21
aI21
aI90
aa(lp7611
I22
aI21
aI90
aa(lp7612
I23
aI21
aI90
aaa(lp7613
(lp7614
I20
aI18
aI270
aa(lp7615
I19
aI18
aI270
aa(lp7616
I19
aI18
aI180
aaa(lp7617
(lp7618
I1
aI9
aI270
aa(lp7619
I0
aI9
aI270
aaa(lp7620
(lp7621
I19
aI16
aI0
aaa(lp7622
(lp7623
I19
aI23
aI-1
aa(lp7624
I19
aI23
aI180
aaa(lp7625
(lp7626
I0
aI11
aI270
aa(lp7627
I0
aI11
aI0
aaa(lp7628
(lp7629
I16
aI18
aI90
aa(lp7630
I17
aI18
aI90
aa(lp7631
I18
aI18
aI90
aa(lp7632
I19
aI18
aI90
aa(lp7633
I20
aI18
aI90
aaa(lp7634
(lp7635
I18
aI17
aI270
aa(lp7636
I17
aI17
aI270
aaa(lp7637
(lp7638
I20
aI16
aI270
aa(lp7639
I19
aI16
aI270
aaa(lp7640
(lp7641
I15
aI20
aI-1
aa(lp7642
I15
aI20
aI0
aaa(lp7643
(lp7644
I1
aI9
aI-1
aa(lp7645
I1
aI9
aI0
aaa(lp7646
(lp7647
I0
aI11
aI270
aa(lp7648
I0
aI11
aI0
aaa(lp7649
(lp7650
I19
aI16
aI90
aaa(lp7651
(lp7652
I24
aI21
aI-1
aa(lp7653
I24
aI21
aI270
aa(lp7654
I23
aI21
aI270
aaa(lp7655
(lp7656
I15
aI17
aI90
aa(lp7657
I16
aI17
aI90
aa(lp7658
I17
aI17
aI90
aaa(lp7659
(lp7660
I1
aI9
aI90
aaa(lp7661
(lp7662
I15
aI18
aI270
aa(lp7663
I15
aI18
aI180
aaa(lp7664
(lp7665
I19
aI19
aI270
aa(lp7666
I18
aI19
aI270
aaa(lp7667
(lp7668
I23
aI17
aI180
aa(lp7669
I23
aI18
aI180
aa(lp7670
I23
aI19
aI180
aa(lp7671
I23
aI20
aI180
aa(lp7672
I23
aI21
aI180
aa(lp7673
I23
aI22
aI180
aa(lp7674
I23
aI23
aI180
aaa(lp7675
(lp7676
I21
aI24
aI90
aa(lp7677
I21
aI24
aI0
aa(lp7678
I21
aI23
aI0
aaa(lp7679
(lp7680
I20
aI16
aI180
aa(lp7681
I20
aI17
aI180
aa(lp7682
I20
aI17
aI90
aaa(lp7683
(lp7684
I19
aI19
aI180
aa(lp7685
I19
aI19
aI270
aa(lp7686
I18
aI19
aI270
aaa(lp7687
(lp7688
I21
aI23
aI270
aa(lp7689
I21
aI23
aI180
aaa(lp7690
(lp7691
I23
aI23
aI180
aa(lp7692
I23
aI23
aI270
aaa(lp7693
(lp7694
I20
aI18
aI270
aaa(lp7695
(lp7696
I21
aI23
aI270
aaa(lp7697
(lp7698
I20
aI18
aI90
aa(lp7699
I20
aI18
aI0
aaa(lp7700
(lp7701
I1
aI6
aI-1
aa(lp7702
I1
aI6
aI180
aaa(lp7703
(lp7704
I0
aI9
aI90
aa(lp7705
I0
aI9
aI180
aaa(lp7706
(lp7707
I17
aI18
aI180
aa(lp7708
I17
aI18
aI90
aaa(lp7709
(lp7710
I0
aI9
aI180
aaa(lp7711
(lp7712
I18
aI19
aI90
aa(lp7713
I19
aI19
aI90
aa(lp7714
I19
aI19
aI0
aaa(lp7715
(lp7716
I20
aI18
aI270
aa(lp7717
I19
aI18
aI270
aa(lp7718
I18
aI18
aI270
aaa(lp7719
(lp7720
I23
aI17
aI90
aa(lp7721
I23
aI17
aI180
aaa(lp7722
(lp7723
I22
aI17
aI0
aa(lp7724
I22
aI16
aI0
aaa(lp7725
(lp7726
I23
aI21
aI90
aaa(lp7727
(lp7728
I15
aI20
aI-1
aa(lp7729
I15
aI20
aI0
aa(lp7730
I15
aI19
aI0
aa(lp7731
I15
aI18
aI0
aaa(lp7732
(lp7733
I0
aI6
aI90
aa(lp7734
I0
aI6
aI180
aa(lp7735
I0
aI7
aI180
aa(lp7736
I0
aI7
aI90
aa(lp7737
I1
aI7
aI90
aa(lp7738
I1
aI7
aI0
aa(lp7739
I1
aI6
aI0
aaa(lp7740
(lp7741
I17
aI17
aI-1
aa(lp7742
I17
aI17
aI180
aa(lp7743
I17
aI17
aI270
aa(lp7744
I16
aI17
aI270
aa(lp7745
I15
aI17
aI270
aaa(lp7746
(lp7747
I2
aI7
aI-1
aa(lp7748
I2
aI7
aI0
aa(lp7749
I2
aI6
aI0
aa(lp7750
I2
aI5
aI0
aa(lp7751
I2
aI5
aI90
aa(lp7752
I2
aI5
aI180
aa(lp7753
I2
aI5
aI270
aa(lp7754
I1
aI5
aI270
aa(lp7755
I0
aI5
aI270
aa(lp7756
I0
aI5
aI180
aa(lp7757
I0
aI6
aI180
aa(lp7758
I0
aI7
aI180
aa(lp7759
I0
aI8
aI180
aa(lp7760
I0
aI9
aI180
aa(lp7761
I0
aI10
aI180
aa(lp7762
I0
aI11
aI180
aaa(lp7763
(lp7764
I22
aI17
aI270
aa(lp7765
I21
aI17
aI270
aa(lp7766
I20
aI17
aI270
aaa(lp7767
(lp7768
I23
aI23
aI180
aa(lp7769
I23
aI23
aI270
aaa(lp7770
(lp7771
I19
aI15
aI270
aa(lp7772
I19
aI15
aI180
aaa(lp7773
(lp7774
I22
aI23
aI270
aa(lp7775
I21
aI23
aI270
aaa(lp7776
(lp7777
I21
aI17
aI-1
aa(lp7778
I21
aI17
aI90
aa(lp7779
I22
aI17
aI90
aa(lp7780
I22
aI17
aI0
aa(lp7781
I22
aI16
aI0
aa(lp7782
I22
aI16
aI90
aa(lp7783
I23
aI16
aI90
aa(lp7784
I23
aI16
aI0
aa(lp7785
I23
aI15
aI0
aa(lp7786
I23
aI15
aI270
aa(lp7787
I22
aI15
aI270
aa(lp7788
I21
aI15
aI270
aa(lp7789
I20
aI15
aI270
aa(lp7790
I19
aI15
aI270
aa(lp7791
I19
aI15
aI180
aa(lp7792
I19
aI16
aI180
aa(lp7793
I19
aI16
aI90
aa(lp7794
I20
aI16
aI90
aa(lp7795
I20
aI16
aI180
aa(lp7796
I20
aI17
aI180
aa(lp7797
I20
aI18
aI180
aaa(lp7798
(lp7799
I20
aI18
aI90
aa(lp7800
I20
aI18
aI0
aaa(lp7801
(lp7802
I19
aI23
aI-1
aa(lp7803
I19
aI23
aI180
aa(lp7804
I19
aI24
aI180
aa(lp7805
I19
aI24
aI90
aaa(lp7806
(lp7807
I23
aI18
aI-1
aa(lp7808
I23
aI18
aI90
aa(lp7809
I23
aI18
aI180
aaa(lp7810
(lp7811
I15
aI18
aI180
aa(lp7812
I15
aI19
aI180
aa(lp7813
I15
aI20
aI180
aaa(lp7814
(lp7815
I20
aI18
aI0
aa(lp7816
I20
aI17
aI0
aa(lp7817
I20
aI17
aI90
aa(lp7818
I21
aI17
aI90
aa(lp7819
I22
aI17
aI90
aa(lp7820
I22
aI17
aI0
aaa(lp7821
(lp7822
I22
aI17
aI-1
aa(lp7823
I22
aI17
aI90
aaa(lp7824
(lp7825
I15
aI18
aI270
aa(lp7826
I15
aI18
aI180
aa(lp7827
I15
aI19
aI180
aaa(lp7828
(lp7829
I21
aI17
aI-1
aa(lp7830
I21
aI17
aI270
aaa(lp7831
(lp7832
I19
aI19
aI90
aa(lp7833
I19
aI19
aI0
aaa(lp7834
(lp7835
I23
aI16
aI270
aa(lp7836
I22
aI16
aI270
aaa(lp7837
(lp7838
I19
aI18
aI90
aa(lp7839
I19
aI18
aI180
aa(lp7840
I19
aI19
aI180
aa(lp7841
I19
aI19
aI270
aaa(lp7842
(lp7843
I19
aI23
aI-1
aa(lp7844
I19
aI23
aI180
aa(lp7845
I19
aI24
aI180
aaa(lp7846
(lp7847
I22
aI17
aI270
aa(lp7848
I21
aI17
aI270
aaa(lp7849
(lp7850
I23
aI17
aI0
aa(lp7851
I23
aI17
aI270
aaa(lp7852
(lp7853
I24
aI23
aI0
aa(lp7854
I24
aI22
aI0
aa(lp7855
I24
aI21
aI0
aaa(lp7856
(lp7857
I20
aI17
aI0
aa(lp7858
I20
aI16
aI0
aaa(lp7859
(lp7860
I23
aI16
aI270
aa(lp7861
I22
aI16
aI270
aaa(lp7862
(lp7863
I23
aI21
aI180
aaa(lp7864
(lp7865
I21
aI21
aI-1
aa(lp7866
I21
aI21
aI180
aaa(lp7867
(lp7868
I15
aI20
aI-1
aa(lp7869
I15
aI20
aI0
aaa(lp7870
(lp7871
I19
aI18
aI90
aa(lp7872
I20
aI18
aI90
aa(lp7873
I20
aI18
aI0
aaa(lp7874
(lp7875
I20
aI18
aI0
aa(lp7876
I20
aI17
aI0
aaa(lp7877
(lp7878
I21
aI21
aI180
aa(lp7879
I21
aI21
aI90
aaa(lp7880
(lp7881
I23
aI17
aI90
aa(lp7882
I23
aI17
aI180
aaa(lp7883
(lp7884
I0
aI9
aI-1
aa(lp7885
I0
aI9
aI0
aaa(lp7886
(lp7887
I0
aI9
aI180
aa(lp7888
I0
aI10
aI180
aa(lp7889
I0
aI11
aI180
aa(lp7890
I0
aI11
aI90
aa(lp7891
I1
aI11
aI90
aaa(lp7892
(lp7893
I2
aI7
aI270
aa(lp7894
I1
aI7
aI270
aa(lp7895
I0
aI7
aI270
aaa(lp7896
(lp7897
I21
aI23
aI90
aa(lp7898
I22
aI23
aI90
aaa(lp7899
(lp7900
I20
aI17
aI270
aa(lp7901
I20
aI17
aI180
aaa(lp7902
(lp7903
I23
aI16
aI-1
aa(lp7904
I23
aI16
aI0
aaa(lp7905
(lp7906
I15
aI17
aI90
aa(lp7907
I16
aI17
aI90
aa(lp7908
I17
aI17
aI90
aa(lp7909
I18
aI17
aI90
aaa(lp7910
(lp7911
I17
aI18
aI180
aa(lp7912
I17
aI18
aI90
aaa(lp7913
(lp7914
I21
aI23
aI-1
aa(lp7915
I21
aI23
aI0
aa(lp7916
I21
aI22
aI0
aa(lp7917
I21
aI21
aI0
aaa(lp7918
(lp7919
I23
aI21
aI270
aa(lp7920
I22
aI21
aI270
aa(lp7921
I21
aI21
aI270
aa(lp7922
I21
aI21
aI180
aa(lp7923
I21
aI22
aI180
aa(lp7924
I21
aI23
aI180
aa(lp7925
I21
aI24
aI180
aa(lp7926
I21
aI24
aI270
aa(lp7927
I20
aI24
aI270
aa(lp7928
I19
aI24
aI270
aa(lp7929
I19
aI24
aI0
aa(lp7930
I19
aI23
aI0
aaa(lp7931
(lp7932
I20
aI17
aI180
aa(lp7933
I20
aI18
aI180
aaa(lp7934
(lp7935
I19
aI24
aI90
aa(lp7936
I20
aI24
aI90
aa(lp7937
I21
aI24
aI90
aa(lp7938
I21
aI24
aI0
aaa(lp7939
(lp7940
I18
aI18
aI90
aa(lp7941
I19
aI18
aI90
aa(lp7942
I19
aI18
aI180
aaa(lp7943
(lp7944
I19
aI18
aI180
aa(lp7945
I19
aI19
aI180
aaa(lp7946
(lp7947
I20
aI18
aI180
aa(lp7948
I20
aI18
aI270
aaa(lp7949
(lp7950
I3
aI5
aI90
aaa(lp7951
(lp7952
I23
aI16
aI-1
aa(lp7953
I23
aI16
aI270
aaa(lp7954
(lp7955
I1
aI11
aI-1
aa(lp7956
I1
aI11
aI270
aaa(lp7957
(lp7958
I0
aI10
aI180
aa(lp7959
I0
aI11
aI180
aa(lp7960
I0
aI11
aI90
aaa(lp7961
(lp7962
I0
aI11
aI270
aa(lp7963
I0
aI11
aI0
aaa(lp7964
(lp7965
I18
aI18
aI270
aa(lp7966
I17
aI18
aI270
aaa(lp7967
(lp7968
I20
aI17
aI90
aa(lp7969
I21
aI17
aI90
aaa(lp7970
(lp7971
I18
aI19
aI-1
aa(lp7972
I18
aI19
aI90
aaa(lp7973
(lp7974
I20
aI17
aI0
aaa(lp7975
(lp7976
I3
aI8
aI-1
aa(lp7977
I3
aI8
aI0
aa(lp7978
I3
aI7
aI0
aaa(lp7979
(lp7980
I0
aI11
aI0
aa(lp7981
I0
aI10
aI0
aa(lp7982
I0
aI9
aI0
aaa(lp7983
(lp7984
I0
aI7
aI0
aa(lp7985
I0
aI7
aI90
aaa(lp7986
(lp7987
I20
aI16
aI270
aa(lp7988
I19
aI16
aI270
aaa(lp7989
(lp7990
I0
aI5
aI0
aa(lp7991
I0
aI5
aI90
aaa(lp7992
(lp7993
I16
aI18
aI-1
aa(lp7994
I16
aI18
aI90
aaa(lp7995
(lp7996
I18
aI19
aI-1
aa(lp7997
I18
aI19
aI90
aa(lp7998
I19
aI19
aI90
aa(lp7999
I19
aI19
aI0
aa(lp8000
I19
aI18
aI0
aa(lp8001
I19
aI18
aI90
aa(lp8002
I20
aI18
aI90
aa(lp8003
I20
aI18
aI0
aa(lp8004
I20
aI17
aI0
aa(lp8005
I20
aI17
aI90
aa(lp8006
I21
aI17
aI90
aaa(lp8007
(lp8008
I23
aI15
aI180
aa(lp8009
I23
aI16
aI180
aaa(lp8010
(lp8011
I23
aI17
aI180
aa(lp8012
I23
aI18
aI180
aa(lp8013
I23
aI19
aI180
aa(lp8014
I23
aI20
aI180
aa(lp8015
I23
aI21
aI180
aa(lp8016
I23
aI22
aI180
aa(lp8017
I23
aI23
aI180
aaa(lp8018
(lp8019
I24
aI19
aI180
aa(lp8020
I24
aI20
aI180
aa(lp8021
I24
aI21
aI180
aaa(lp8022
(lp8023
I23
aI17
aI180
aa(lp8024
I23
aI18
aI180
aa(lp8025
I23
aI19
aI180
aa(lp8026
I23
aI19
aI90
aaa(lp8027
(lp8028
I23
aI21
aI90
aaa(lp8029
(lp8030
I23
aI23
aI270
aa(lp8031
I22
aI23
aI270
aa(lp8032
I21
aI23
aI270
aaa(lp8033
(lp8034
I24
aI23
aI180
aa(lp8035
I24
aI23
aI270
aaa(lp8036
(lp8037
I23
aI20
aI0
aa(lp8038
I23
aI19
aI0
aaa(lp8039
(lp8040
I21
aI23
aI-1
aa(lp8041
I21
aI23
aI90
aa(lp8042
I22
aI23
aI90
aaa(lp8043
(lp8044
I17
aI17
aI-1
aa(lp8045
I17
aI17
aI180
aa(lp8046
I17
aI18
aI180
aaa(lp8047
(lp8048
I0
aI9
aI-1
aa(lp8049
I0
aI9
aI0
aaa(lp8050
(lp8051
I19
aI18
aI270
aa(lp8052
I19
aI18
aI180
aa(lp8053
I19
aI19
aI180
aa(lp8054
I19
aI19
aI270
aaa(lp8055
(lp8056
I15
aI17
aI180
aa(lp8057
I15
aI18
aI180
aa(lp8058
I15
aI19
aI180
aa(lp8059
I15
aI20
aI180
aaa(lp8060
(lp8061
I15
aI17
aI180
aa(lp8062
I15
aI18
aI180
aa(lp8063
I15
aI19
aI180
aa(lp8064
I15
aI20
aI180
aaa(lp8065
(lp8066
I19
aI16
aI90
aa(lp8067
I20
aI16
aI90
aa(lp8068
I20
aI16
aI180
aaa(lp8069
(lp8070
I19
aI18
aI270
aa(lp8071
I18
aI18
aI270
aa(lp8072
I17
aI18
aI270
aa(lp8073
I16
aI18
aI270
aaa(lp8074
(lp8075
I23
aI17
aI270
aa(lp8076
I22
aI17
aI270
aaa(lp8077
(lp8078
I1
aI9
aI180
aaa(lp8079
(lp8080
I21
aI21
aI-1
aa(lp8081
I21
aI21
aI90
aaa(lp8082
(lp8083
I23
aI21
aI270
aa(lp8084
I23
aI21
aI0
aa(lp8085
I23
aI20
aI0
aa(lp8086
I23
aI19
aI0
aa(lp8087
I23
aI18
aI0
aa(lp8088
I23
aI17
aI0
aaa(lp8089
(lp8090
I20
aI17
aI90
aa(lp8091
I21
aI17
aI90
aa(lp8092
I22
aI17
aI90
aaa(lp8093
(lp8094
I2
aI7
aI0
aa(lp8095
I2
aI6
aI0
aaa(lp8096
(lp8097
I21
aI21
aI180
aa(lp8098
I21
aI22
aI180
aa(lp8099
I21
aI23
aI180
aa(lp8100
I21
aI24
aI180
aaa(lp8101
(lp8102
I23
aI15
aI270
aa(lp8103
I22
aI15
aI270
aa(lp8104
I21
aI15
aI270
aa(lp8105
I20
aI15
aI270
aa(lp8106
I19
aI15
aI270
aa(lp8107
I19
aI15
aI180
aaa(lp8108
(lp8109
I18
aI19
aI270
aaa(lp8110
(lp8111
I22
aI16
aI90
aa(lp8112
I23
aI16
aI90
aaa(lp8113
(lp8114
I0
aI6
aI0
aa(lp8115
I0
aI6
aI90
aaa(lp8116
(lp8117
I23
aI16
aI-1
aa(lp8118
I23
aI16
aI270
aa(lp8119
I22
aI16
aI270
aa(lp8120
I22
aI16
aI180
aaa(lp8121
(lp8122
I20
aI18
aI90
aa(lp8123
I20
aI18
aI0
aa(lp8124
I20
aI17
aI0
aaa(lp8125
(lp8126
I17
aI17
aI-1
aa(lp8127
I17
aI17
aI180
aaa(lp8128
(lp8129
I16
aI18
aI-1
aa(lp8130
I16
aI18
aI90
aaa(lp8131
(lp8132
I20
aI17
aI90
aaa(lp8133
(lp8134
I23
aI17
aI0
aa(lp8135
I23
aI17
aI270
aa(lp8136
I22
aI17
aI270
aaa(lp8137
(lp8138
I1
aI9
aI270
aaa(lp8139
(lp8140
I23
aI17
aI0
aa(lp8141
I23
aI17
aI270
aaa(lp8142
(lp8143
I20
aI18
aI90
aa(lp8144
I20
aI18
aI0
aaa(lp8145
(lp8146
I22
aI16
aI180
aa(lp8147
I22
aI17
aI180
aaa(lp8148
(lp8149
I22
aI17
aI90
aa(lp8150
I23
aI17
aI90
aa(lp8151
I23
aI17
aI180
aaa(lp8152
(lp8153
I21
aI23
aI270
aa(lp8154
I21
aI23
aI0
aaa(lp8155
(lp8156
I23
aI23
aI90
aa(lp8157
I23
aI23
aI0
aaa(lp8158
(lp8159
I22
aI17
aI-1
aa(lp8160
I22
aI17
aI90
aa(lp8161
I23
aI17
aI90
aaa(lp8162
(lp8163
I23
aI23
aI90
aa(lp8164
I23
aI23
aI0
aaa(lp8165
(lp8166
I0
aI8
aI180
aa(lp8167
I0
aI9
aI180
aaa(lp8168
(lp8169
I1
aI5
aI0
aa(lp8170
I1
aI5
aI90
aaa(lp8171
(lp8172
I21
aI21
aI-1
aa(lp8173
I21
aI21
aI180
aa(lp8174
I21
aI22
aI180
aa(lp8175
I21
aI23
aI180
aaa(lp8176
(lp8177
I24
aI21
aI-1
aa(lp8178
I24
aI21
aI270
aa(lp8179
I23
aI21
aI270
aaa(lp8180
(lp8181
I23
aI18
aI-1
aa(lp8182
I23
aI18
aI180
aaa(lp8183
(lp8184
I22
aI17
aI270
aaa(lp8185
(lp8186
I0
aI11
aI90
aa(lp8187
I1
aI11
aI90
aaa(lp8188
(lp8189
I19
aI15
aI270
aa(lp8190
I19
aI15
aI180
aa(lp8191
I19
aI16
aI180
aa(lp8192
I19
aI16
aI270
aaa(lp8193
(lp8194
I22
aI17
aI90
aa(lp8195
I22
aI17
aI0
aaa(lp8196
(lp8197
I19
aI24
aI180
aa(lp8198
I19
aI24
aI90
aa(lp8199
I20
aI24
aI90
aa(lp8200
I21
aI24
aI90
aaa(lp8201
(lp8202
I21
aI21
aI180
aa(lp8203
I21
aI22
aI180
aa(lp8204
I21
aI23
aI180
aaa(lp8205
(lp8206
I3
aI7
aI0
aa(lp8207
I3
aI7
aI270
aaa(lp8208
(lp8209
I20
aI17
aI180
aa(lp8210
I20
aI18
aI180
aaa(lp8211
(lp8212
I0
aI11
aI0
aa(lp8213
I0
aI10
aI0
aa(lp8214
I0
aI9
aI0
aa(lp8215
I0
aI8
aI0
aaa(lp8216
(lp8217
I21
aI21
aI180
aa(lp8218
I21
aI22
aI180
aa(lp8219
I21
aI23
aI180
aa(lp8220
I21
aI24
aI180
aaa(lp8221
(lp8222
I1
aI7
aI180
aaa(lp8223
(lp8224
I21
aI17
aI270
aa(lp8225
I20
aI17
aI270
aa(lp8226
I20
aI17
aI180
aaa(lp8227
(lp8228
I22
aI17
aI0
aa(lp8229
I22
aI16
aI0
aaa(lp8230
(lp8231
I22
aI23
aI270
aa(lp8232
I21
aI23
aI270
aaa(lp8233
(lp8234
I21
aI21
aI-1
aa(lp8235
I21
aI21
aI180
aa(lp8236
I21
aI22
aI180
aaa(lp8237
(lp8238
I20
aI18
aI0
aa(lp8239
I20
aI17
aI0
aaa(lp8240
(lp8241
I20
aI17
aI90
aa(lp8242
I21
aI17
aI90
aa(lp8243
I22
aI17
aI90
aaa(lp8244
(lp8245
I19
aI18
aI90
aa(lp8246
I19
aI18
aI180
aaa(lp8247
(lp8248
I22
aI17
aI90
aa(lp8249
I22
aI17
aI0
aa(lp8250
I22
aI16
aI0
aaa(lp8251
(lp8252
I1
aI11
aI-1
aa(lp8253
I1
aI11
aI270
aaa(lp8254
(lp8255
I0
aI9
aI180
aaa(lp8256
(lp8257
I0
aI8
aI270
aa(lp8258
I0
aI8
aI180
aaa(lp8259
(lp8260
I1
aI7
aI180
aa(lp8261
I1
aI8
aI180
aa(lp8262
I1
aI9
aI180
aa(lp8263
I1
aI10
aI180
aaa(lp8264
(lp8265
I15
aI18
aI180
aa(lp8266
I15
aI19
aI180
aa(lp8267
I15
aI20
aI180
aaa(lp8268
(lp8269
I23
aI15
aI180
aa(lp8270
I23
aI16
aI180
aaa(lp8271
(lp8272
I0
aI5
aI0
aa(lp8273
I0
aI5
aI90
aaa(lp8274
(lp8275
I19
aI18
aI180
aa(lp8276
I19
aI19
aI180
aa(lp8277
I19
aI19
aI270
aa(lp8278
I18
aI19
aI270
aaa(lp8279
(lp8280
I24
aI21
aI-1
aa(lp8281
I24
aI21
aI270
aa(lp8282
I23
aI21
aI270
aaa(lp8283
(lp8284
I19
aI23
aI-1
aa(lp8285
I19
aI23
aI180
aa(lp8286
I19
aI24
aI180
aa(lp8287
I19
aI24
aI90
aa(lp8288
I20
aI24
aI90
aa(lp8289
I21
aI24
aI90
aa(lp8290
I21
aI24
aI0
aaa(lp8291
(lp8292
I23
aI19
aI90
aa(lp8293
I24
aI19
aI90
aa(lp8294
I24
aI19
aI180
aaa(lp8295
(lp8296
I3
aI8
aI180
aaa(lp8297
(lp8298
I21
aI23
aI180
aa(lp8299
I21
aI24
aI180
aa(lp8300
I21
aI24
aI270
aaa(lp8301
(lp8302
I20
aI18
aI0
aa(lp8303
I20
aI17
aI0
aaa(lp8304
(lp8305
I21
aI24
aI0
aa(lp8306
I21
aI23
aI0
aaa(lp8307
(lp8308
I22
aI17
aI270
aa(lp8309
I21
aI17
aI270
aaa(lp8310
(lp8311
I15
aI18
aI270
aaa(lp8312
(lp8313
I19
aI18
aI180
aa(lp8314
I19
aI19
aI180
aa(lp8315
I19
aI19
aI270
aaa(lp8316
(lp8317
I20
aI17
aI270
aa(lp8318
I20
aI17
aI180
aaa(lp8319
(lp8320
I0
aI9
aI90
aaa(lp8321
(lp8322
I23
aI22
aI270
aa(lp8323
I22
aI22
aI270
aa(lp8324
I21
aI22
aI270
aaa(lp8325
(lp8326
I22
aI17
aI-1
aa(lp8327
I22
aI17
aI90
aaa(lp8328
(lp8329
I24
aI23
aI90
aa(lp8330
I24
aI23
aI0
aaa(lp8331
(lp8332
I0
aI9
aI180
aa(lp8333
I0
aI10
aI180
aa(lp8334
I0
aI11
aI180
aaa(lp8335
(lp8336
I23
aI18
aI90
aa(lp8337
I23
aI18
aI180
aaa(lp8338
(lp8339
I21
aI23
aI270
aa(lp8340
I21
aI23
aI180
aaa(lp8341
(lp8342
I18
aI19
aI-1
aa(lp8343
I18
aI19
aI90
aaa(lp8344
(lp8345
I20
aI18
aI270
aa(lp8346
I19
aI18
aI270
aa(lp8347
I18
aI18
aI270
aaa(lp8348
(lp8349
I20
aI17
aI180
aa(lp8350
I20
aI18
aI180
aaa(lp8351
(lp8352
I20
aI18
aI180
aa(lp8353
I20
aI18
aI270
aa(lp8354
I19
aI18
aI270
aa(lp8355
I18
aI18
aI270
aa(lp8356
I17
aI18
aI270
aa(lp8357
I16
aI18
aI270
aa(lp8358
I15
aI18
aI270
aaa(lp8359
(lp8360
I0
aI9
aI0
aa(lp8361
I0
aI9
aI90
aaa(lp8362
(lp8363
I20
aI16
aI180
aaa(lp8364
(lp8365
I23
aI18
aI-1
aa(lp8366
I23
aI18
aI90
aaa(lp8367
(lp8368
I22
aI16
aI0
aa(lp8369
I22
aI16
aI90
aaa(lp8370
(lp8371
I21
aI21
aI-1
aa(lp8372
I21
aI21
aI180
aaa(lp8373
(lp8374
I23
aI23
aI0
aa(lp8375
I23
aI22
aI0
aa(lp8376
I23
aI21
aI0
aa(lp8377
I23
aI21
aI90
aaa(lp8378
(lp8379
I20
aI18
aI0
aa(lp8380
I20
aI17
aI0
aa(lp8381
I20
aI17
aI90
aa(lp8382
I21
aI17
aI90
aaa(lp8383
(lp8384
I19
aI24
aI0
aa(lp8385
I19
aI23
aI0
aaa(lp8386
(lp8387
I20
aI17
aI180
aa(lp8388
I20
aI18
aI180
aa(lp8389
I20
aI18
aI270
aaa(lp8390
(lp8391
I19
aI19
aI270
aa(lp8392
I18
aI19
aI270
aaa(lp8393
(lp8394
I1
aI5
aI90
aa(lp8395
I2
aI5
aI90
aa(lp8396
I3
aI5
aI90
aaa(lp8397
(lp8398
I22
aI23
aI-1
aa(lp8399
I22
aI23
aI270
aaa(lp8400
(lp8401
I19
aI23
aI180
aa(lp8402
I19
aI24
aI180
aaa(lp8403
(lp8404
I23
aI21
aI90
aa(lp8405
I23
aI21
aI0
aaa(lp8406
(lp8407
I21
aI24
aI270
aa(lp8408
I20
aI24
aI270
aa(lp8409
I19
aI24
aI270
aaa(lp8410
(lp8411
I23
aI21
aI270
aaa(lp8412
(lp8413
I21
aI23
aI-1
aa(lp8414
I21
aI23
aI0
aa(lp8415
I21
aI22
aI0
aa(lp8416
I21
aI21
aI0
aaa(lp8417
(lp8418
I23
aI18
aI-1
aa(lp8419
I23
aI18
aI0
aaa(lp8420
(lp8421
I24
aI21
aI270
aa(lp8422
I23
aI21
aI270
aa(lp8423
I22
aI21
aI270
aaa(lp8424
(lp8425
I15
aI18
aI270
aa(lp8426
I15
aI18
aI180
aa(lp8427
I15
aI19
aI180
aa(lp8428
I15
aI20
aI180
aaa(lp8429
(lp8430
I21
aI23
aI270
aaa(lp8431
(lp8432
I22
aI17
aI0
aa(lp8433
I22
aI16
aI0
aaa(lp8434
(lp8435
I19
aI18
aI180
aa(lp8436
I19
aI19
aI180
aaa(lp8437
(lp8438
I0
aI11
aI270
aa(lp8439
I0
aI11
aI0
aaa(lp8440
(lp8441
I24
aI21
aI270
aa(lp8442
I23
aI21
aI270
aaa(lp8443
(lp8444
I23
aI18
aI180
aa(lp8445
I23
aI19
aI180
aa(lp8446
I23
aI20
aI180
aa(lp8447
I23
aI21
aI180
aaa(lp8448
(lp8449
I19
aI16
aI0
aa(lp8450
I19
aI15
aI0
aaa(lp8451
(lp8452
I20
aI18
aI0
aa(lp8453
I20
aI17
aI0
aaa(lp8454
(lp8455
I2
aI7
aI-1
aa(lp8456
I2
aI7
aI270
aaa(lp8457
(lp8458
I1
aI9
aI0
aa(lp8459
I1
aI8
aI0
aa(lp8460
I1
aI7
aI0
aa(lp8461
I1
aI6
aI0
aa(lp8462
I1
aI5
aI0
aaa(lp8463
(lp8464
I21
aI24
aI180
aa(lp8465
I21
aI24
aI270
aa(lp8466
I20
aI24
aI270
aa(lp8467
I19
aI24
aI270
aa(lp8468
I19
aI24
aI0
aa(lp8469
I19
aI23
aI0
aaa(lp8470
(lp8471
I22
aI16
aI180
aa(lp8472
I22
aI17
aI180
aaa(lp8473
(lp8474
I24
aI21
aI-1
aa(lp8475
I24
aI21
aI270
aaa(lp8476
(lp8477
I20
aI17
aI90
aa(lp8478
I21
aI17
aI90
aaa(lp8479
(lp8480
I2
aI8
aI90
aa(lp8481
I3
aI8
aI90
aaa(lp8482
(lp8483
I20
aI18
aI0
aa(lp8484
I20
aI17
aI0
aa(lp8485
I20
aI16
aI0
aaa(lp8486
(lp8487
I21
aI23
aI90
aa(lp8488
I22
aI23
aI90
aa(lp8489
I23
aI23
aI90
aaa(lp8490
(lp8491
I18
aI17
aI0
aa(lp8492
I18
aI16
aI0
aa(lp8493
I18
aI16
aI90
aaa(lp8494
(lp8495
I21
aI23
aI0
aaa(lp8496
(lp8497
I19
aI18
aI0
aa(lp8498
I19
aI18
aI90
aaa(lp8499
(lp8500
I19
aI15
aI180
aa(lp8501
I19
aI16
aI180
aaa(lp8502
(lp8503
I21
aI21
aI90
aa(lp8504
I22
aI21
aI90
aa(lp8505
I23
aI21
aI90
aaa(lp8506
(lp8507
I2
aI5
aI0
aaa(lp8508
(lp8509
I22
aI16
aI180
aa(lp8510
I22
aI17
aI180
aaa(lp8511
(lp8512
I0
aI8
aI270
aa(lp8513
I0
aI8
aI180
aa(lp8514
I0
aI9
aI180
aaa(lp8515
(lp8516
I15
aI18
aI90
aa(lp8517
I16
aI18
aI90
aa(lp8518
I17
aI18
aI90
aa(lp8519
I18
aI18
aI90
aa(lp8520
I19
aI18
aI90
aaa(lp8521
(lp8522
I15
aI18
aI270
aa(lp8523
I15
aI18
aI180
aaa(lp8524
(lp8525
I23
aI16
aI270
aa(lp8526
I22
aI16
aI270
aa(lp8527
I22
aI16
aI180
aaa(lp8528
(lp8529
I19
aI19
aI270
aa(lp8530
I18
aI19
aI270
aaa(lp8531
(lp8532
I16
aI18
aI-1
aa(lp8533
I16
aI18
aI90
aa(lp8534
I17
aI18
aI90
aa(lp8535
I18
aI18
aI90
aa(lp8536
I19
aI18
aI90
aa(lp8537
I20
aI18
aI90
aa(lp8538
I20
aI18
aI0
aa(lp8539
I20
aI17
aI0
aa(lp8540
I20
aI16
aI0
aa(lp8541
I20
aI16
aI270
aa(lp8542
I19
aI16
aI270
aaa(lp8543
(lp8544
I23
aI21
aI270
aa(lp8545
I22
aI21
aI270
aa(lp8546
I21
aI21
aI270
aa(lp8547
I21
aI21
aI180
aaa(lp8548
(lp8549
I3
aI7
aI270
aa(lp8550
I2
aI7
aI270
aaa(lp8551
(lp8552
I21
aI17
aI-1
aa(lp8553
I21
aI17
aI270
aaa(lp8554
(lp8555
I19
aI16
aI270
aa(lp8556
I18
aI16
aI270
aa(lp8557
I18
aI16
aI180
aa(lp8558
I18
aI17
aI180
aa(lp8559
I18
aI17
aI270
aaa(lp8560
(lp8561
I15
aI17
aI0
aa(lp8562
I15
aI17
aI90
aaa(lp8563
(lp8564
I1
aI7
aI270
aa(lp8565
I1
aI7
aI0
aa(lp8566
I1
aI6
aI0
aaa(lp8567
(lp8568
I15
aI18
aI270
aa(lp8569
I15
aI18
aI180
aa(lp8570
I15
aI19
aI180
aa(lp8571
I15
aI20
aI180
aaa(lp8572
(lp8573
I19
aI24
aI180
aa(lp8574
I19
aI24
aI90
aaa(lp8575
(lp8576
I15
aI17
aI0
aaa(lp8577
(lp8578
I17
aI17
aI180
aa(lp8579
I17
aI18
aI180
aaa(lp8580
(lp8581
I3
aI7
aI180
aa(lp8582
I3
aI7
aI270
aa(lp8583
I2
aI7
aI270
aa(lp8584
I1
aI7
aI270
aa(lp8585
I1
aI7
aI180
aa(lp8586
I1
aI8
aI180
aa(lp8587
I1
aI9
aI180
aaa(lp8588
(lp8589
I20
aI18
aI180
aa(lp8590
I20
aI18
aI270
aa(lp8591
I19
aI18
aI270
aa(lp8592
I18
aI18
aI270
aa(lp8593
I17
aI18
aI270
aa(lp8594
I16
aI18
aI270
aa(lp8595
I15
aI18
aI270
aaa(lp8596
(lp8597
I2
aI6
aI0
aa(lp8598
I2
aI6
aI270
aa(lp8599
I1
aI6
aI270
aa(lp8600
I1
aI6
aI180
aa(lp8601
I1
aI7
aI180
aa(lp8602
I1
aI8
aI180
aa(lp8603
I1
aI9
aI180
aaa(lp8604
(lp8605
I21
aI21
aI0
aa(lp8606
I21
aI21
aI90
aaa(lp8607
(lp8608
I21
aI24
aI90
aa(lp8609
I21
aI24
aI0
aa(lp8610
I21
aI23
aI0
aa(lp8611
I21
aI22
aI0
aa(lp8612
I21
aI21
aI0
aaa(lp8613
(lp8614
I0
aI11
aI90
aa(lp8615
I1
aI11
aI90
aaa(lp8616
(lp8617
I21
aI17
aI270
aa(lp8618
I20
aI17
aI270
aaa(lp8619
(lp8620
I15
aI20
aI-1
aa(lp8621
I15
aI20
aI0
aaa(lp8622
(lp8623
I20
aI17
aI0
aa(lp8624
I20
aI17
aI90
aa(lp8625
I21
aI17
aI90
aaa(lp8626
(lp8627
I0
aI5
aI0
aa(lp8628
I0
aI5
aI90
aa(lp8629
I1
aI5
aI90
aa(lp8630
I2
aI5
aI90
aa(lp8631
I3
aI5
aI90
aaa(lp8632
(lp8633
I23
aI23
aI180
aa(lp8634
I23
aI23
aI270
aaa(lp8635
(lp8636
I22
aI17
aI90
aa(lp8637
I23
aI17
aI90
aaa(lp8638
(lp8639
I17
aI17
aI0
aaa(lp8640
(lp8641
I21
aI23
aI90
aa(lp8642
I22
aI23
aI90
aaa(lp8643
(lp8644
I23
aI16
aI-1
aa(lp8645
I23
aI16
aI270
aaa(lp8646
(lp8647
I22
aI23
aI270
aaa(lp8648
(lp8649
I21
aI23
aI90
aa(lp8650
I22
aI23
aI90
aa(lp8651
I23
aI23
aI90
aa(lp8652
I24
aI23
aI90
aaa(lp8653
(lp8654
I21
aI21
aI90
aa(lp8655
I22
aI21
aI90
aa(lp8656
I23
aI21
aI90
aaa(lp8657
(lp8658
I15
aI20
aI-1
aa(lp8659
I15
aI20
aI0
aaa(lp8660
(lp8661
I20
aI18
aI180
aa(lp8662
I20
aI18
aI270
aa(lp8663
I19
aI18
aI270
aa(lp8664
I18
aI18
aI270
aa(lp8665
I17
aI18
aI270
aaa(lp8666
(lp8667
I17
aI18
aI180
aa(lp8668
I17
aI18
aI270
aaa(lp8669
(lp8670
I0
aI6
aI0
aa(lp8671
I0
aI6
aI90
aaa(lp8672
(lp8673
I20
aI17
aI270
aa(lp8674
I20
aI17
aI180
aaa(lp8675
(lp8676
I23
aI23
aI0
aa(lp8677
I23
aI22
aI0
aa(lp8678
I23
aI21
aI0
aa(lp8679
I23
aI20
aI0
aa(lp8680
I23
aI19
aI0
aa(lp8681
I23
aI18
aI0
aa(lp8682
I23
aI17
aI0
aaa(lp8683
(lp8684
I21
aI24
aI180
aa(lp8685
I21
aI24
aI270
aaa(lp8686
(lp8687
I17
aI17
aI-1
aa(lp8688
I17
aI17
aI180
aa(lp8689
I17
aI18
aI180
aaa(lp8690
(lp8691
I19
aI23
aI-1
aa(lp8692
I19
aI23
aI180
aaa(lp8693
(lp8694
I22
aI17
aI180
aa(lp8695
I22
aI17
aI270
aaa(lp8696
(lp8697
I0
aI5
aI0
aa(lp8698
I0
aI5
aI90
aa(lp8699
I1
aI5
aI90
aaa(lp8700
(lp8701
I15
aI20
aI-1
aa(lp8702
I15
aI20
aI0
aa(lp8703
I15
aI19
aI0
aa(lp8704
I15
aI18
aI0
aa(lp8705
I15
aI18
aI90
aaa(lp8706
(lp8707
I1
aI6
aI180
aa(lp8708
I1
aI7
aI180
aa(lp8709
I1
aI8
aI180
aaa(lp8710
(lp8711
I19
aI19
aI0
aa(lp8712
I19
aI18
aI0
aaa(lp8713
(lp8714
I23
aI17
aI270
aa(lp8715
I22
aI17
aI270
aaa(lp8716
(lp8717
I3
aI5
aI-1
aa(lp8718
I3
aI5
aI180
aaa(lp8719
(lp8720
I16
aI18
aI-1
aa(lp8721
I16
aI18
aI90
aa(lp8722
I17
aI18
aI90
aaa(lp8723
(lp8724
I18
aI19
aI-1
aa(lp8725
I18
aI19
aI90
aaa(lp8726
(lp8727
I0
aI8
aI90
aa(lp8728
I1
aI8
aI90
aa(lp8729
I2
aI8
aI90
aa(lp8730
I3
aI8
aI90
aaa(lp8731
(lp8732
I23
aI15
aI0
aa(lp8733
I23
aI15
aI270
aa(lp8734
I22
aI15
aI270
aa(lp8735
I21
aI15
aI270
aa(lp8736
I20
aI15
aI270
aa(lp8737
I19
aI15
aI270
aaa(lp8738
(lp8739
I0
aI8
aI180
aa(lp8740
I0
aI9
aI180
aa(lp8741
I0
aI10
aI180
aa(lp8742
I0
aI11
aI180
aaa(lp8743
(lp8744
I3
aI5
aI270
aa(lp8745
I2
aI5
aI270
aa(lp8746
I1
aI5
aI270
aa(lp8747
I0
aI5
aI270
aaa(lp8748
(lp8749
I15
aI17
aI90
aa(lp8750
I16
aI17
aI90
aa(lp8751
I17
aI17
aI90
aa(lp8752
I18
aI17
aI90
aaa(lp8753
(lp8754
I16
aI18
aI-1
aa(lp8755
I16
aI18
aI180
aa(lp8756
I16
aI18
aI90
aaa(lp8757
(lp8758
I18
aI19
aI-1
aa(lp8759
I18
aI19
aI90
aa(lp8760
I19
aI19
aI90
aa(lp8761
I19
aI19
aI180
aa(lp8762
I19
aI20
aI180
aa(lp8763
I19
aI20
aI90
aa(lp8764
I19
aI20
aI0
aa(lp8765
I19
aI19
aI0
aa(lp8766
I19
aI18
aI0
aa(lp8767
I19
aI18
aI90
aa(lp8768
I20
aI18
aI90
aa(lp8769
I20
aI18
aI0
aa(lp8770
I20
aI17
aI0
aa(lp8771
I20
aI17
aI90
aa(lp8772
I21
aI17
aI90
aaa(lp8773
(lp8774
I0
aI11
aI0
aa(lp8775
I0
aI10
aI0
aa(lp8776
I0
aI9
aI0
aa(lp8777
I0
aI8
aI0
aa(lp8778
I0
aI7
aI0
aaa(lp8779
(lp8780
I21
aI23
aI180
aaa(lp8781
(lp8782
I22
aI16
aI270
aa(lp8783
I22
aI16
aI180
aaa(lp8784
(lp8785
I15
aI19
aI0
aa(lp8786
I15
aI18
aI0
aa(lp8787
I15
aI17
aI0
aaa(lp8788
(lp8789
I17
aI18
aI270
aaa(lp8790
(lp8791
I0
aI5
aI180
aaa(lp8792
(lp8793
I22
aI16
aI90
aa(lp8794
I23
aI16
aI90
aaa(lp8795
(lp8796
I2
aI7
aI90
aaa(lp8797
(lp8798
I0
aI6
aI270
aa(lp8799
I0
aI6
aI180
aaa(lp8800
(lp8801
I1
aI9
aI180
aa(lp8802
I1
aI10
aI180
aa(lp8803
I1
aI10
aI270
aa(lp8804
I0
aI10
aI270
aaa(lp8805
(lp8806
I23
aI17
aI180
aa(lp8807
I23
aI18
aI180
aa(lp8808
I23
aI19
aI180
aa(lp8809
I23
aI20
aI180
aa(lp8810
I23
aI21
aI180
aa(lp8811
I23
aI22
aI180
aa(lp8812
I23
aI23
aI180
aaa(lp8813
(lp8814
I24
aI21
aI-1
aa(lp8815
I24
aI21
aI270
aa(lp8816
I23
aI21
aI270
aa(lp8817
I22
aI21
aI270
aaa(lp8818
(lp8819
I23
aI23
aI0
aa(lp8820
I23
aI22
aI0
aa(lp8821
I23
aI21
aI0
aa(lp8822
I23
aI20
aI0
aa(lp8823
I23
aI19
aI0
aa(lp8824
I23
aI18
aI0
aaa(lp8825
(lp8826
I15
aI18
aI270
aa(lp8827
I15
aI18
aI180
aaa(lp8828
(lp8829
I18
aI19
aI-1
aa(lp8830
I18
aI19
aI90
aaa(lp8831
(lp8832
I4
aI8
aI90
aa(lp8833
I4
aI8
aI0
aa(lp8834
I4
aI8
aI270
aa(lp8835
I3
aI8
aI270
aa(lp8836
I3
aI8
aI0
aa(lp8837
I3
aI7
aI0
aa(lp8838
I3
aI6
aI0
aa(lp8839
I3
aI5
aI0
aaa(lp8840
(lp8841
I15
aI20
aI-1
aa(lp8842
I15
aI20
aI0
aaa(lp8843
(lp8844
I0
aI9
aI180
aa(lp8845
I0
aI9
aI90
aa(lp8846
I1
aI9
aI90
aaa(lp8847
(lp8848
I0
aI9
aI180
aaa(lp8849
(lp8850
I24
aI23
aI180
aa(lp8851
I24
aI23
aI270
aa(lp8852
I23
aI23
aI270
aa(lp8853
I22
aI23
aI270
aaa(lp8854
(lp8855
I21
aI24
aI90
aa(lp8856
I21
aI24
aI0
aaa(lp8857
(lp8858
I21
aI24
aI270
aa(lp8859
I20
aI24
aI270
aa(lp8860
I19
aI24
aI270
aaa(lp8861
(lp8862
I19
aI18
aI270
aa(lp8863
I19
aI18
aI180
aaa(lp8864
(lp8865
I23
aI19
aI180
aa(lp8866
I23
aI19
aI90
aaa(lp8867
(lp8868
I21
aI23
aI270
aa(lp8869
I21
aI23
aI0
aaa(lp8870
(lp8871
I17
aI17
aI270
aaa(lp8872
(lp8873
I0
aI11
aI90
aa(lp8874
I1
aI11
aI90
aaa(lp8875
(lp8876
I1
aI9
aI0
aaa(lp8877
(lp8878
I20
aI17
aI90
aa(lp8879
I21
aI17
aI90
aa(lp8880
I22
aI17
aI90
aaa(lp8881
(lp8882
I20
aI18
aI0
aa(lp8883
I20
aI17
aI0
aaa(lp8884
(lp8885
I19
aI16
aI0
aaa(lp8886
(lp8887
I19
aI15
aI270
aa(lp8888
I19
aI15
aI180
aa(lp8889
I19
aI16
aI180
aaa(lp8890
(lp8891
I18
aI16
aI0
aa(lp8892
I18
aI16
aI90
aa(lp8893
I19
aI16
aI90
aaa(lp8894
(lp8895
I1
aI6
aI-1
aa(lp8896
I1
aI6
aI180
aa(lp8897
I1
aI7
aI180
aaa(lp8898
(lp8899
I24
aI21
aI0
aa(lp8900
I24
aI20
aI0
aa(lp8901
I24
aI19
aI0
aaa(lp8902
(lp8903
I20
aI18
aI90
aa(lp8904
I20
aI18
aI0
aa(lp8905
I20
aI17
aI0
aaa(lp8906
(lp8907
I0
aI11
aI90
aa(lp8908
I1
aI11
aI90
aaa(lp8909
(lp8910
I1
aI6
aI90
aaa(lp8911
(lp8912
I22
aI16
aI90
aa(lp8913
I23
aI16
aI90
aaa(lp8914
(lp8915
I0
aI11
aI180
aa(lp8916
I0
aI11
aI90
aaa(lp8917
(lp8918
I1
aI9
aI-1
aa(lp8919
I1
aI9
aI0
aaa(lp8920
(lp8921
I0
aI7
aI90
aa(lp8922
I1
aI7
aI90
aa(lp8923
I2
aI7
aI90
aaa(lp8924
(lp8925
I21
aI21
aI270
aa(lp8926
I21
aI21
aI180
aa(lp8927
I21
aI22
aI180
aa(lp8928
I21
aI23
aI180
aa(lp8929
I21
aI24
aI180
aa(lp8930
I21
aI24
aI270
aaa(lp8931
(lp8932
I19
aI19
aI180
aa(lp8933
I19
aI19
aI270
aaa(lp8934
(lp8935
I20
aI17
aI180
aa(lp8936
I20
aI18
aI180
aaa(lp8937
(lp8938
I16
aI18
aI180
aa(lp8939
I16
aI18
aI90
aaa(lp8940
(lp8941
I18
aI19
aI90
aa(lp8942
I19
aI19
aI90
aa(lp8943
I19
aI19
aI0
aaa(lp8944
(lp8945
I0
aI9
aI-1
aa(lp8946
I0
aI9
aI90
aaa(lp8947
(lp8948
I23
aI23
aI180
aa(lp8949
I23
aI23
aI270
aaa(lp8950
(lp8951
I21
aI23
aI-1
aa(lp8952
I21
aI23
aI90
aaa(lp8953
(lp8954
I22
aI16
aI90
aa(lp8955
I23
aI16
aI90
aa(lp8956
I23
aI16
aI0
aa(lp8957
I23
aI15
aI0
aa(lp8958
I23
aI15
aI270
aaa(lp8959
(lp8960
I23
aI23
aI90
aa(lp8961
I23
aI23
aI0
aa(lp8962
I23
aI22
aI0
aa(lp8963
I23
aI21
aI0
aa(lp8964
I23
aI20
aI0
aa(lp8965
I23
aI19
aI0
aaa(lp8966
(lp8967
I17
aI17
aI-1
aa(lp8968
I17
aI17
aI90
aa(lp8969
I18
aI17
aI90
aaa(lp8970
(lp8971
I21
aI21
aI0
aa(lp8972
I21
aI21
aI90
aaa(lp8973
(lp8974
I1
aI6
aI-1
aa(lp8975
I1
aI6
aI270
aaa(lp8976
(lp8977
I24
aI21
aI270
aa(lp8978
I23
aI21
aI270
aa(lp8979
I22
aI21
aI270
aa(lp8980
I21
aI21
aI270
aaa(lp8981
(lp8982
I19
aI19
aI270
aa(lp8983
I18
aI19
aI270
aaa(lp8984
(lp8985
I19
aI23
aI-1
aa(lp8986
I19
aI23
aI180
aa(lp8987
I19
aI24
aI180
aaa(lp8988
(lp8989
I19
aI18
aI0
aa(lp8990
I19
aI18
aI90
aaa(lp8991
(lp8992
I23
aI23
aI90
aa(lp8993
I23
aI23
aI0
aa(lp8994
I23
aI22
aI0
aa(lp8995
I23
aI21
aI0
aa(lp8996
I23
aI20
aI0
aa(lp8997
I23
aI19
aI0
aa(lp8998
I23
aI18
aI0
aaa(lp8999
(lp9000
I2
aI6
aI270
aa(lp9001
I1
aI6
aI270
aa(lp9002
I0
aI6
aI270
aaa(lp9003
(lp9004
I20
aI17
aI270
aa(lp9005
I20
aI17
aI180
aaa(lp9006
(lp9007
I23
aI21
aI270
aa(lp9008
I22
aI21
aI270
aa(lp9009
I21
aI21
aI270
aa(lp9010
I21
aI21
aI180
aaa(lp9011
(lp9012
I18
aI18
aI270
aa(lp9013
I17
aI18
aI270
aa(lp9014
I17
aI18
aI0
aa(lp9015
I17
aI17
aI0
aaa(lp9016
(lp9017
I23
aI18
aI180
aa(lp9018
I23
aI19
aI180
aa(lp9019
I23
aI20
aI180
aa(lp9020
I23
aI21
aI180
aa(lp9021
I23
aI22
aI180
aa(lp9022
I23
aI23
aI180
aaa(lp9023
(lp9024
I0
aI5
aI180
aa(lp9025
I0
aI6
aI180
aa(lp9026
I0
aI7
aI180
aaa(lp9027
(lp9028
I19
aI16
aI-1
aa(lp9029
I19
aI16
aI0
aaa(lp9030
(lp9031
I19
aI16
aI0
aa(lp9032
I19
aI16
aI90
aa(lp9033
I20
aI16
aI90
aa(lp9034
I20
aI16
aI180
aa(lp9035
I20
aI17
aI180
aaa(lp9036
(lp9037
I23
aI18
aI-1
aa(lp9038
I23
aI18
aI180
aaa(lp9039
(lp9040
I3
aI7
aI180
aa(lp9041
I3
aI7
aI270
aaa(lp9042
(lp9043
I2
aI5
aI90
aa(lp9044
I3
aI5
aI90
aaa(lp9045
(lp9046
I23
aI16
aI90
aaa(lp9047
(lp9048
I22
aI16
aI90
aa(lp9049
I23
aI16
aI90
aaa(lp9050
(lp9051
I19
aI18
aI270
aa(lp9052
I18
aI18
aI270
aaa(lp9053
(lp9054
I19
aI24
aI0
aa(lp9055
I19
aI23
aI0
aaa(lp9056
(lp9057
I2
aI7
aI90
aaa(lp9058
(lp9059
I22
aI17
aI90
aa(lp9060
I23
aI17
aI90
aa(lp9061
I23
aI17
aI180
aaa(lp9062
(lp9063
I19
aI18
aI270
aa(lp9064
I18
aI18
aI270
aa(lp9065
I17
aI18
aI270
aa(lp9066
I16
aI18
aI270
aa(lp9067
I15
aI18
aI270
aaa(lp9068
(lp9069
I20
aI17
aI90
aa(lp9070
I21
aI17
aI90
aaa(lp9071
(lp9072
I23
aI18
aI180
aa(lp9073
I23
aI19
aI180
aaa(lp9074
(lp9075
I23
aI18
aI-1
aa(lp9076
I23
aI18
aI180
aa(lp9077
I23
aI19
aI180
aa(lp9078
I23
aI20
aI180
aa(lp9079
I23
aI21
aI180
aa(lp9080
I23
aI21
aI270
aa(lp9081
I22
aI21
aI270
aa(lp9082
I21
aI21
aI270
aaa(lp9083
(lp9084
I15
aI18
aI270
aa(lp9085
I15
aI18
aI180
aa(lp9086
I15
aI19
aI180
aa(lp9087
I15
aI20
aI180
aaa(lp9088
(lp9089
I22
aI17
aI90
aa(lp9090
I23
aI17
aI90
aa(lp9091
I23
aI17
aI180
aaa(lp9092
(lp9093
I16
aI18
aI-1
aa(lp9094
I16
aI18
aI180
aaa(lp9095
(lp9096
I17
aI17
aI-1
aa(lp9097
I17
aI17
aI180
aaa(lp9098
(lp9099
I23
aI16
aI-1
aa(lp9100
I23
aI16
aI270
aa(lp9101
I22
aI16
aI270
aaa(lp9102
(lp9103
I17
aI17
aI0
aaa(lp9104
(lp9105
I0
aI8
aI270
aa(lp9106
I0
aI8
aI180
aaa(lp9107
(lp9108
I1
aI6
aI-1
aa(lp9109
I1
aI6
aI270
aaa(lp9110
(lp9111
I19
aI16
aI-1
aa(lp9112
I19
aI16
aI90
aaa(lp9113
(lp9114
I15
aI18
aI180
aa(lp9115
I15
aI19
aI180
aa(lp9116
I15
aI20
aI180
aaa(lp9117
(lp9118
I21
aI21
aI-1
aa(lp9119
I21
aI21
aI90
aaa(lp9120
(lp9121
I3
aI8
aI-1
aa(lp9122
I3
aI8
aI0
aaa(lp9123
(lp9124
I17
aI17
aI180
aa(lp9125
I17
aI18
aI180
aaa(lp9126
(lp9127
I16
aI18
aI270
aa(lp9128
I15
aI18
aI270
aaa(lp9129
(lp9130
I15
aI17
aI90
aa(lp9131
I16
aI17
aI90
aa(lp9132
I17
aI17
aI90
aaa(lp9133
(lp9134
I22
aI23
aI90
aa(lp9135
I23
aI23
aI90
aa(lp9136
I23
aI23
aI0
aaa(lp9137
(lp9138
I23
aI18
aI-1
aa(lp9139
I23
aI18
aI90
aa(lp9140
I23
aI18
aI180
aaa(lp9141
(lp9142
I1
aI11
aI-1
aa(lp9143
I1
aI11
aI270
aa(lp9144
I0
aI11
aI270
aa(lp9145
I0
aI11
aI0
aaa(lp9146
(lp9147
I21
aI21
aI-1
aa(lp9148
I21
aI21
aI90
aa(lp9149
I22
aI21
aI90
aa(lp9150
I23
aI21
aI90
aaa(lp9151
(lp9152
I0
aI9
aI-1
aa(lp9153
I0
aI9
aI90
aaa(lp9154
(lp9155
I19
aI23
aI-1
aa(lp9156
I19
aI23
aI180
aaa(lp9157
(lp9158
I23
aI21
aI0
aa(lp9159
I23
aI20
aI0
aa(lp9160
I23
aI19
aI0
aa(lp9161
I23
aI18
aI0
aaa(lp9162
(lp9163
I21
aI17
aI270
aa(lp9164
I20
aI17
aI270
aa(lp9165
I20
aI17
aI0
aa(lp9166
I20
aI16
aI0
aaa(lp9167
(lp9168
I21
aI17
aI-1
aa(lp9169
I21
aI17
aI270
aaa(lp9170
(lp9171
I21
aI21
aI90
aa(lp9172
I22
aI21
aI90
aa(lp9173
I23
aI21
aI90
aaa(lp9174
(lp9175
I19
aI24
aI270
aa(lp9176
I19
aI24
aI0
aaa(lp9177
(lp9178
I16
aI18
aI90
aa(lp9179
I17
aI18
aI90
aa(lp9180
I18
aI18
aI90
aaa.