(lp1
(lp2
I7
aI6
aI6
aI7
aI0
aI0
aI0
aI1
aI1
aa(lp3
I3
aI3
aI4
aI3
aI0
aI0
aI0
aI0
aI1
aa(lp4
I12
aI7
aI6
aI12
aI0
aI0
aI0
aI2
aI1
aa(lp5
I9
aI6
aI6
aI9
aI1
aI0
aI0
aI1
aI1
aa(lp6
I5
aI5
aI4
aI5
aI0
aI0
aI0
aI0
aI1
aa(lp7
I18
aI9
aI6
aI18
aI1
aI0
aI0
aI4
aI1
aa(lp8
I3
aI3
aI4
aI3
aI0
aI0
aI0
aI0
aI1
aa(lp9
I2
aI2
aI4
aI2
aI0
aI0
aI0
aI0
aI0
aa(lp10
I12
aI4
aI6
aI12
aI2
aI0
aI0
aI2
aI0
aa(lp11
I2
aI2
aI4
aI2
aI0
aI0
aI0
aI0
aI0
aa(lp12
I6
aI3
aI6
aI6
aI0
aI0
aI0
aI1
aI0
aa(lp13
I10
aI6
aI6
aI10
aI1
aI0
aI0
aI1
aI1
aa(lp14
I0
aI1
aI2
aI0
aI0
aI0
aI0
aI0
aI0
aa(lp15
I7
aI3
aI6
aI7
aI1
aI0
aI0
aI1
aI0
aa(lp16
I16
aI9
aI6
aI16
aI1
aI0
aI0
aI3
aI0
aa(lp17
I10
aI4
aI6
aI10
aI1
aI0
aI0
aI2
aI0
aa(lp18
I3
aI3
aI4
aI3
aI0
aI0
aI0
aI0
aI1
aa(lp19
I9
aI7
aI6
aI9
aI0
aI0
aI0
aI1
aI1
aa(lp20
I2
aI2
aI4
aI2
aI0
aI0
aI0
aI0
aI0
aa(lp21
I7
aI3
aI6
aI7
aI1
aI0
aI0
aI1
aI0
aa(lp22
I9
aI6
aI6
aI9
aI0
aI0
aI0
aI1
aI1
aa(lp23
I2
aI2
aI4
aI2
aI0
aI0
aI0
aI0
aI0
aa(lp24
I16
aI11
aI6
aI16
aI1
aI1
aI0
aI2
aI1
aa(lp25
I9
aI4
aI6
aI9
aI1
aI0
aI0
aI1
aI0
aa(lp26
I5
aI3
aI6
aI5
aI0
aI1
aI0
aI1
aI0
aa(lp27
I3
aI3
aI4
aI3
aI0
aI0
aI0
aI0
aI1
aa(lp28
I2
aI2
aI4
aI2
aI0
aI0
aI0
aI0
aI0
aa(lp29
I5
aI5
aI4
aI5
aI0
aI0
aI0
aI0
aI1
aa(lp30
I10
aI6
aI6
aI10
aI1
aI0
aI0
aI1
aI1
aa(lp31
I3
aI3
aI4
aI3
aI0
aI0
aI0
aI0
aI1
aa(lp32
I15
aI9
aI6
aI15
aI1
aI0
aI0
aI2
aI1
aa(lp33
I6
aI5
aI6
aI6
aI0
aI1
aI0
aI1
aI0
aa(lp34
I3
aI3
aI4
aI3
aI0
aI0
aI0
aI0
aI1
aa(lp35
I6
aI3
aI6
aI6
aI0
aI0
aI0
aI1
aI0
aa(lp36
I14
aI6
aI6
aI14
aI2
aI0
aI0
aI2
aI0
aa(lp37
I16
aI9
aI6
aI16
aI1
aI0
aI0
aI2
aI1
aa(lp38
I13
aI6
aI6
aI13
aI1
aI0
aI0
aI2
aI0
aa(lp39
I16
aI7
aI6
aI16
aI2
aI0
aI0
aI2
aI0
aa(lp40
I15
aI7
aI6
aI15
aI1
aI0
aI0
aI2
aI0
aa(lp41
I2
aI2
aI4
aI2
aI0
aI0
aI0
aI0
aI0
aa(lp42
I2
aI2
aI4
aI2
aI0
aI0
aI0
aI0
aI0
aa(lp43
I23
aI12
aI6
aI23
aI2
aI0
aI0
aI3
aI1
aa(lp44
I14
aI7
aI6
aI14
aI0
aI0
aI0
aI2
aI0
aa(lp45
I3
aI3
aI4
aI3
aI0
aI0
aI0
aI0
aI1
aa(lp46
I10
aI6
aI6
aI10
aI1
aI0
aI0
aI1
aI1
aa(lp47
I2
aI2
aI4
aI2
aI0
aI0
aI0
aI0
aI0
aa(lp48
I9
aI6
aI6
aI9
aI0
aI0
aI0
aI1
aI1
aa(lp49
I12
aI7
aI6
aI12
aI1
aI0
aI0
aI2
aI1
aa(lp50
I9
aI4
aI6
aI9
aI1
aI0
aI0
aI1
aI0
aa(lp51
I3
aI3
aI4
aI3
aI0
aI0
aI0
aI0
aI1
aa(lp52
I9
aI6
aI6
aI9
aI1
aI0
aI0
aI1
aI1
aa(lp53
I6
aI3
aI6
aI6
aI0
aI0
aI0
aI1
aI0
aa(lp54
I2
aI2
aI4
aI2
aI0
aI0
aI0
aI0
aI0
aa(lp55
I15
aI7
aI6
aI15
aI1
aI0
aI0
aI2
aI0
aa(lp56
I2
aI2
aI4
aI2
aI0
aI0
aI0
aI0
aI0
aa(lp57
I3
aI3
aI4
aI3
aI0
aI0
aI0
aI0
aI1
aa(lp58
I5
aI3
aI6
aI5
aI0
aI0
aI0
aI1
aI0
aa(lp59
I13
aI7
aI6
aI13
aI0
aI0
aI0
aI2
aI1
aa(lp60
I10
aI6
aI6
aI10
aI1
aI0
aI0
aI1
aI1
aa(lp61
I17
aI8
aI6
aI17
aI2
aI0
aI0
aI3
aI1
aa(lp62
I7
aI3
aI6
aI7
aI1
aI0
aI0
aI1
aI0
aa(lp63
I3
aI3
aI4
aI3
aI0
aI0
aI0
aI0
aI1
aa(lp64
I16
aI8
aI6
aI16
aI0
aI0
aI0
aI3
aI1
aa(lp65
I9
aI6
aI6
aI9
aI1
aI0
aI0
aI1
aI1
aa(lp66
I7
aI6
aI6
aI7
aI0
aI0
aI0
aI1
aI1
aa(lp67
I2
aI2
aI4
aI2
aI0
aI0
aI0
aI0
aI0
aa(lp68
I3
aI3
aI4
aI3
aI0
aI0
aI0
aI0
aI1
aa(lp69
I16
aI7
aI6
aI16
aI0
aI0
aI0
aI3
aI0
aa(lp70
I0
aI1
aI2
aI0
aI0
aI0
aI0
aI0
aI0
aa(lp71
I19
aI10
aI6
aI19
aI2
aI0
aI0
aI3
aI1
aa(lp72
I5
aI3
aI6
aI5
aI0
aI0
aI0
aI1
aI0
aa(lp73
I2
aI2
aI4
aI2
aI0
aI0
aI0
aI0
aI0
aa(lp74
I3
aI3
aI4
aI3
aI0
aI0
aI0
aI0
aI1
aa(lp75
I2
aI2
aI4
aI2
aI0
aI0
aI0
aI0
aI0
aa(lp76
I3
aI3
aI4
aI3
aI0
aI0
aI0
aI0
aI1
aa(lp77
I9
aI4
aI6
aI9
aI1
aI0
aI0
aI1
aI0
aa(lp78
I3
aI3
aI4
aI3
aI0
aI0
aI0
aI0
aI1
aa(lp79
I2
aI2
aI4
aI2
aI0
aI0
aI0
aI0
aI0
aa(lp80
I2
aI2
aI4
aI2
aI0
aI0
aI0
aI0
aI0
aa(lp81
I2
aI2
aI4
aI2
aI0
aI0
aI0
aI0
aI0
aa(lp82
I10
aI6
aI6
aI10
aI1
aI0
aI0
aI1
aI1
aa(lp83
I7
aI3
aI6
aI7
aI1
aI0
aI0
aI1
aI0
aa(lp84
I16
aI7
aI6
aI16
aI0
aI0
aI0
aI3
aI0
aa(lp85
I3
aI3
aI4
aI3
aI0
aI0
aI0
aI0
aI1
aa(lp86
I16
aI9
aI6
aI16
aI1
aI0
aI0
aI2
aI1
aa(lp87
I10
aI7
aI6
aI10
aI1
aI0
aI0
aI1
aI1
aa(lp88
I19
aI10
aI6
aI19
aI1
aI0
aI0
aI3
aI0
aa(lp89
I17
aI12
aI6
aI17
aI0
aI0
aI0
aI2
aI2
aa(lp90
I8
aI6
aI6
aI8
aI0
aI0
aI0
aI1
aI1
aa(lp91
I3
aI3
aI4
aI3
aI0
aI0
aI0
aI0
aI1
aa(lp92
I14
aI9
aI6
aI14
aI0
aI0
aI0
aI2
aI1
aa(lp93
I10
aI6
aI6
aI10
aI1
aI0
aI0
aI1
aI1
aa(lp94
I3
aI3
aI4
aI3
aI0
aI0
aI0
aI0
aI1
aa(lp95
I12
aI7
aI6
aI12
aI1
aI0
aI0
aI2
aI1
aa(lp96
I16
aI5
aI6
aI16
aI2
aI0
aI0
aI3
aI0
aa(lp97
I2
aI2
aI4
aI2
aI0
aI0
aI0
aI0
aI0
aa(lp98
I19
aI10
aI6
aI19
aI1
aI0
aI0
aI3
aI0
aa(lp99
I0
aI1
aI2
aI0
aI0
aI0
aI0
aI0
aI0
aa(lp100
I8
aI4
aI6
aI8
aI0
aI0
aI0
aI1
aI0
aa(lp101
I18
aI10
aI6
aI18
aI0
aI0
aI0
aI3
aI0
aa(lp102
I3
aI3
aI4
aI3
aI0
aI0
aI0
aI0
aI1
aa(lp103
I12
aI9
aI6
aI12
aI0
aI0
aI0
aI2
aI1
aa(lp104
I5
aI3
aI6
aI5
aI0
aI0
aI0
aI1
aI0
aa(lp105
I19
aI10
aI6
aI19
aI0
aI0
aI0
aI3
aI1
aa(lp106
I19
aI10
aI6
aI19
aI2
aI1
aI0
aI3
aI1
aa(lp107
I10
aI6
aI6
aI10
aI1
aI0
aI0
aI1
aI1
aa(lp108
I12
aI7
aI6
aI12
aI1
aI0
aI0
aI2
aI1
aa(lp109
I17
aI8
aI6
aI17
aI2
aI0
aI0
aI3
aI1
aa(lp110
I18
aI11
aI6
aI18
aI1
aI0
aI0
aI2
aI1
aa(lp111
I7
aI3
aI6
aI7
aI1
aI0
aI0
aI1
aI0
aa(lp112
I2
aI2
aI4
aI2
aI0
aI0
aI0
aI0
aI0
aa(lp113
I24
aI11
aI6
aI24
aI2
aI0
aI0
aI4
aI0
aa(lp114
I3
aI3
aI4
aI3
aI0
aI0
aI0
aI0
aI1
aa(lp115
I5
aI3
aI6
aI5
aI0
aI1
aI0
aI1
aI0
aa(lp116
I3
aI3
aI4
aI3
aI0
aI0
aI0
aI0
aI1
aa(lp117
I18
aI10
aI6
aI18
aI0
aI0
aI0
aI3
aI0
aa(lp118
I16
aI7
aI6
aI16
aI2
aI0
aI0
aI2
aI0
aa(lp119
I3
aI3
aI4
aI3
aI0
aI0
aI0
aI0
aI1
aa(lp120
I16
aI9
aI6
aI16
aI2
aI0
aI0
aI2
aI1
aa(lp121
I6
aI3
aI6
aI6
aI0
aI0
aI0
aI1
aI0
aa(lp122
I10
aI6
aI6
aI10
aI1
aI0
aI0
aI1
aI1
aa(lp123
I15
aI9
aI6
aI15
aI0
aI0
aI0
aI2
aI1
aa(lp124
I3
aI3
aI4
aI3
aI0
aI0
aI0
aI0
aI1
aa(lp125
I3
aI3
aI4
aI3
aI0
aI0
aI0
aI0
aI1
aa(lp126
I3
aI3
aI4
aI3
aI0
aI0
aI0
aI0
aI1
aa(lp127
I7
aI6
aI6
aI7
aI0
aI0
aI0
aI1
aI1
aa(lp128
I6
aI3
aI6
aI6
aI0
aI0
aI0
aI1
aI0
aa(lp129
I8
aI4
aI6
aI8
aI0
aI0
aI0
aI1
aI0
aa(lp130
I3
aI3
aI4
aI3
aI0
aI0
aI0
aI0
aI1
aa(lp131
I12
aI7
aI6
aI12
aI1
aI0
aI0
aI2
aI1
aa(lp132
I12
aI7
aI6
aI12
aI1
aI0
aI0
aI2
aI1
aa(lp133
I12
aI9
aI6
aI12
aI0
aI0
aI0
aI1
aI2
aa(lp134
I12
aI4
aI6
aI12
aI2
aI0
aI0
aI2
aI0
aa(lp135
I10
aI4
aI6
aI10
aI1
aI0
aI0
aI2
aI0
aa(lp136
I16
aI9
aI6
aI16
aI1
aI0
aI0
aI2
aI1
aa(lp137
I3
aI3
aI4
aI3
aI0
aI0
aI0
aI0
aI1
aa(lp138
I25
aI12
aI6
aI25
aI1
aI0
aI0
aI5
aI0
aa(lp139
I2
aI2
aI4
aI2
aI0
aI0
aI0
aI0
aI0
aa(lp140
I9
aI6
aI6
aI9
aI0
aI0
aI0
aI1
aI1
aa(lp141
I5
aI4
aI6
aI5
aI0
aI0
aI0
aI1
aI0
aa(lp142
I16
aI9
aI6
aI16
aI1
aI0
aI0
aI2
aI1
aa(lp143
I22
aI14
aI6
aI22
aI2
aI0
aI0
aI3
aI2
aa(lp144
I16
aI8
aI6
aI16
aI0
aI0
aI0
aI3
aI1
aa(lp145
I8
aI4
aI6
aI8
aI0
aI0
aI0
aI1
aI0
aa(lp146
I19
aI12
aI6
aI19
aI2
aI0
aI0
aI2
aI2
aa(lp147
I13
aI9
aI6
aI13
aI0
aI0
aI0
aI2
aI1
aa(lp148
I9
aI6
aI6
aI9
aI0
aI0
aI0
aI1
aI1
aa(lp149
I0
aI0
aI1
aI0
aI0
aI0
aI0
aI0
aI0
aa(lp150
I18
aI8
aI6
aI18
aI2
aI0
aI0
aI3
aI1
aa(lp151
I7
aI3
aI6
aI7
aI1
aI0
aI0
aI1
aI0
aa(lp152
I16
aI9
aI6
aI16
aI1
aI0
aI0
aI2
aI1
aa(lp153
I7
aI3
aI6
aI7
aI1
aI0
aI0
aI1
aI0
aa(lp154
I2
aI2
aI4
aI2
aI0
aI0
aI0
aI0
aI0
aa(lp155
I10
aI6
aI6
aI10
aI1
aI0
aI0
aI1
aI1
aa(lp156
I8
aI4
aI6
aI8
aI0
aI0
aI0
aI1
aI0
aa(lp157
I2
aI2
aI4
aI2
aI0
aI0
aI0
aI0
aI0
aa(lp158
I3
aI3
aI4
aI3
aI0
aI0
aI0
aI0
aI1
aa(lp159
I9
aI6
aI6
aI9
aI1
aI0
aI0
aI1
aI1
aa(lp160
I7
aI3
aI6
aI7
aI1
aI0
aI0
aI1
aI0
aa(lp161
I2
aI2
aI4
aI2
aI0
aI0
aI0
aI0
aI0
aa(lp162
I8
aI4
aI6
aI8
aI0
aI0
aI0
aI1
aI0
aa(lp163
I3
aI3
aI4
aI3
aI0
aI0
aI0
aI0
aI1
aa(lp164
I13
aI7
aI6
aI13
aI0
aI0
aI0
aI2
aI1
aa(lp165
I2
aI2
aI4
aI2
aI0
aI0
aI0
aI0
aI0
aa(lp166
I3
aI3
aI4
aI3
aI0
aI0
aI0
aI0
aI1
aa(lp167
I13
aI7
aI6
aI13
aI0
aI0
aI0
aI2
aI1
aa(lp168
I6
aI3
aI6
aI6
aI0
aI0
aI0
aI1
aI0
aa(lp169
I3
aI3
aI4
aI3
aI0
aI0
aI0
aI0
aI1
aa(lp170
I3
aI3
aI4
aI3
aI0
aI0
aI0
aI0
aI1
aa(lp171
I5
aI5
aI4
aI5
aI0
aI0
aI0
aI0
aI1
aa(lp172
I7
aI3
aI6
aI7
aI1
aI0
aI0
aI1
aI0
aa(lp173
I16
aI9
aI6
aI16
aI2
aI0
aI0
aI2
aI1
aa(lp174
I9
aI4
aI6
aI9
aI1
aI0
aI0
aI1
aI0
aa(lp175
I3
aI3
aI4
aI3
aI0
aI0
aI0
aI0
aI1
aa(lp176
I8
aI6
aI6
aI8
aI0
aI0
aI0
aI1
aI1
aa(lp177
I2
aI2
aI4
aI2
aI0
aI0
aI0
aI0
aI0
aa(lp178
I15
aI9
aI6
aI15
aI0
aI0
aI0
aI2
aI1
aa(lp179
I19
aI10
aI6
aI19
aI1
aI0
aI0
aI3
aI0
aa(lp180
I7
aI3
aI6
aI7
aI1
aI0
aI0
aI1
aI0
aa(lp181
I16
aI5
aI6
aI16
aI2
aI0
aI0
aI3
aI0
aa(lp182
I3
aI3
aI4
aI3
aI0
aI0
aI0
aI0
aI1
aa(lp183
I3
aI3
aI4
aI3
aI0
aI0
aI0
aI0
aI1
aa(lp184
I23
aI13
aI6
aI23
aI1
aI0
aI0
aI4
aI1
aa(lp185
I2
aI2
aI4
aI2
aI0
aI0
aI0
aI0
aI0
aa(lp186
I7
aI3
aI6
aI7
aI1
aI0
aI0
aI1
aI0
aa(lp187
I18
aI11
aI6
aI18
aI1
aI0
aI0
aI2
aI1
aa(lp188
I5
aI6
aI4
aI5
aI0
aI0
aI0
aI0
aI2
aa(lp189
I24
aI13
aI6
aI24
aI1
aI0
aI0
aI4
aI1
aa(lp190
I2
aI2
aI4
aI2
aI0
aI0
aI0
aI0
aI0
aa(lp191
I13
aI9
aI6
aI13
aI0
aI0
aI0
aI2
aI1
aa(lp192
I6
aI5
aI6
aI6
aI0
aI1
aI0
aI1
aI0
aa(lp193
I9
aI6
aI6
aI9
aI0
aI0
aI0
aI1
aI1
aa(lp194
I5
aI3
aI6
aI5
aI0
aI0
aI0
aI1
aI0
aa(lp195
I10
aI4
aI6
aI10
aI1
aI0
aI0
aI2
aI0
aa(lp196
I13
aI9
aI6
aI13
aI0
aI0
aI0
aI2
aI1
aa(lp197
I13
aI6
aI6
aI13
aI1
aI0
aI0
aI2
aI0
aa(lp198
I0
aI1
aI2
aI0
aI0
aI0
aI0
aI0
aI0
aa(lp199
I8
aI4
aI6
aI8
aI0
aI0
aI0
aI1
aI0
aa(lp200
I17
aI9
aI6
aI17
aI2
aI0
aI0
aI2
aI1
aa(lp201
I8
aI4
aI6
aI8
aI0
aI0
aI0
aI1
aI0
aa(lp202
I19
aI12
aI6
aI19
aI1
aI0
aI0
aI2
aI2
aa(lp203
I17
aI9
aI6
aI17
aI2
aI0
aI0
aI2
aI1
aa(lp204
I2
aI2
aI4
aI2
aI0
aI0
aI0
aI0
aI0
aa(lp205
I12
aI6
aI6
aI12
aI0
aI0
aI0
aI2
aI0
aa(lp206
I14
aI9
aI6
aI14
aI0
aI0
aI0
aI2
aI1
aa(lp207
I13
aI6
aI6
aI13
aI1
aI0
aI0
aI2
aI0
aa(lp208
I9
aI6
aI6
aI9
aI0
aI0
aI0
aI1
aI1
aa(lp209
I15
aI9
aI6
aI15
aI0
aI0
aI0
aI2
aI1
aa(lp210
I22
aI8
aI6
aI22
aI2
aI0
aI0
aI4
aI0
aa(lp211
I10
aI6
aI6
aI10
aI1
aI0
aI0
aI1
aI1
aa(lp212
I7
aI3
aI6
aI7
aI1
aI0
aI0
aI1
aI0
aa(lp213
I5
aI5
aI4
aI5
aI0
aI0
aI0
aI0
aI1
aa(lp214
I9
aI6
aI6
aI9
aI0
aI0
aI0
aI1
aI1
aa(lp215
I12
aI4
aI6
aI12
aI2
aI0
aI0
aI2
aI0
aa(lp216
I3
aI3
aI4
aI3
aI0
aI0
aI0
aI0
aI1
aa(lp217
I4
aI8
aI4
aI4
aI0
aI0
aI0
aI0
aI2
aa(lp218
I9
aI6
aI6
aI9
aI0
aI0
aI0
aI1
aI1
aa(lp219
I7
aI6
aI6
aI7
aI0
aI0
aI0
aI1
aI1
aa(lp220
I9
aI8
aI6
aI9
aI0
aI0
aI0
aI1
aI1
aa(lp221
I3
aI3
aI4
aI3
aI0
aI0
aI0
aI0
aI1
aa(lp222
I2
aI2
aI4
aI2
aI0
aI0
aI0
aI0
aI0
aa(lp223
I3
aI3
aI4
aI3
aI0
aI0
aI0
aI0
aI1
aa(lp224
I3
aI3
aI4
aI3
aI0
aI0
aI0
aI0
aI1
aa(lp225
I0
aI0
aI1
aI0
aI0
aI0
aI0
aI0
aI0
aa(lp226
I12
aI4
aI6
aI12
aI2
aI0
aI0
aI2
aI0
aa(lp227
I2
aI2
aI4
aI2
aI0
aI0
aI0
aI0
aI0
aa(lp228
I27
aI15
aI6
aI27
aI1
aI0
aI0
aI4
aI1
aa(lp229
I5
aI5
aI4
aI5
aI0
aI0
aI0
aI0
aI1
aa(lp230
I0
aI1
aI2
aI0
aI0
aI0
aI0
aI0
aI0
aa(lp231
I14
aI5
aI6
aI14
aI1
aI0
aI0
aI2
aI0
aa(lp232
I6
aI3
aI6
aI6
aI0
aI0
aI0
aI1
aI0
aa(lp233
I3
aI3
aI4
aI3
aI0
aI0
aI0
aI0
aI1
aa(lp234
I10
aI6
aI6
aI10
aI1
aI0
aI0
aI1
aI1
aa(lp235
I13
aI7
aI6
aI13
aI0
aI0
aI0
aI2
aI1
aa(lp236
I2
aI2
aI4
aI2
aI0
aI0
aI0
aI0
aI0
aa(lp237
I3
aI3
aI4
aI3
aI0
aI0
aI0
aI0
aI1
aa(lp238
I13
aI9
aI6
aI13
aI0
aI0
aI0
aI2
aI1
aa(lp239
I3
aI3
aI4
aI3
aI0
aI0
aI0
aI0
aI1
aa(lp240
I9
aI6
aI6
aI9
aI0
aI0
aI0
aI1
aI1
aa(lp241
I13
aI6
aI6
aI13
aI1
aI0
aI0
aI2
aI0
aa(lp242
I12
aI8
aI6
aI12
aI1
aI0
aI0
aI1
aI1
aa(lp243
I16
aI9
aI6
aI16
aI2
aI0
aI0
aI2
aI1
aa(lp244
I9
aI4
aI6
aI9
aI1
aI0
aI0
aI1
aI0
aa(lp245
I12
aI7
aI6
aI12
aI1
aI0
aI0
aI2
aI1
aa(lp246
I9
aI6
aI6
aI9
aI0
aI0
aI0
aI1
aI1
aa(lp247
I14
aI6
aI6
aI14
aI2
aI0
aI0
aI2
aI0
aa(lp248
I10
aI6
aI6
aI10
aI1
aI0
aI0
aI1
aI1
aa(lp249
I3
aI3
aI4
aI3
aI0
aI0
aI0
aI0
aI1
aa(lp250
I9
aI6
aI6
aI9
aI1
aI0
aI0
aI1
aI1
aa(lp251
I24
aI11
aI6
aI24
aI2
aI0
aI0
aI4
aI0
aa(lp252
I16
aI9
aI6
aI16
aI1
aI0
aI0
aI2
aI1
aa(lp253
I12
aI7
aI6
aI12
aI0
aI0
aI0
aI2
aI1
aa(lp254
I6
aI3
aI6
aI6
aI0
aI0
aI0
aI1
aI0
aa(lp255
I6
aI3
aI6
aI6
aI0
aI0
aI0
aI1
aI0
aa(lp256
I16
aI9
aI6
aI16
aI2
aI0
aI0
aI2
aI1
aa(lp257
I7
aI6
aI6
aI7
aI0
aI0
aI0
aI1
aI1
aa(lp258
I2
aI4
aI4
aI2
aI0
aI0
aI0
aI0
aI1
aa(lp259
I2
aI2
aI4
aI2
aI0
aI0
aI0
aI0
aI0
aa(lp260
I2
aI2
aI4
aI2
aI0
aI0
aI0
aI0
aI0
aa(lp261
I2
aI2
aI4
aI2
aI0
aI0
aI0
aI0
aI0
aa(lp262
I2
aI2
aI4
aI2
aI0
aI0
aI0
aI0
aI0
aa(lp263
I3
aI3
aI4
aI3
aI0
aI0
aI0
aI0
aI1
aa(lp264
I3
aI3
aI4
aI3
aI0
aI0
aI0
aI0
aI1
aa(lp265
I3
aI3
aI4
aI3
aI0
aI0
aI0
aI0
aI1
aa(lp266
I25
aI13
aI6
aI25
aI0
aI0
aI0
aI4
aI1
aa(lp267
I7
aI3
aI6
aI7
aI1
aI0
aI0
aI1
aI0
aa(lp268
I2
aI2
aI4
aI2
aI0
aI0
aI0
aI0
aI0
aa(lp269
I3
aI3
aI4
aI3
aI0
aI0
aI0
aI0
aI1
aa(lp270
I3
aI3
aI4
aI3
aI0
aI0
aI0
aI0
aI1
aa(lp271
I2
aI5
aI4
aI2
aI0
aI0
aI0
aI0
aI1
aa(lp272
I6
aI3
aI6
aI6
aI0
aI0
aI0
aI1
aI0
aa(lp273
I3
aI3
aI4
aI3
aI0
aI0
aI0
aI0
aI1
aa(lp274
I9
aI6
aI6
aI9
aI1
aI0
aI0
aI1
aI1
aa(lp275
I3
aI3
aI4
aI3
aI0
aI0
aI0
aI0
aI1
aa(lp276
I9
aI6
aI6
aI9
aI1
aI0
aI0
aI1
aI1
aa(lp277
I7
aI3
aI6
aI7
aI1
aI0
aI0
aI1
aI0
aa(lp278
I3
aI3
aI4
aI3
aI0
aI0
aI0
aI0
aI1
aa(lp279
I7
aI6
aI6
aI7
aI0
aI0
aI0
aI1
aI1
aa(lp280
I6
aI3
aI6
aI6
aI0
aI0
aI0
aI1
aI0
aa(lp281
I0
aI0
aI1
aI0
aI0
aI0
aI0
aI0
aI0
aa(lp282
I6
aI3
aI6
aI6
aI0
aI0
aI0
aI1
aI0
aa(lp283
I2
aI2
aI4
aI2
aI0
aI0
aI0
aI0
aI0
aa(lp284
I15
aI5
aI6
aI15
aI2
aI0
aI0
aI3
aI0
aa(lp285
I10
aI6
aI6
aI10
aI1
aI0
aI0
aI1
aI1
aa(lp286
I6
aI3
aI6
aI6
aI0
aI0
aI0
aI1
aI0
aa(lp287
I3
aI3
aI4
aI3
aI0
aI0
aI0
aI0
aI1
aa(lp288
I9
aI4
aI6
aI9
aI1
aI0
aI0
aI1
aI0
aa(lp289
I2
aI2
aI4
aI2
aI0
aI0
aI0
aI0
aI0
aa(lp290
I11
aI9
aI6
aI11
aI0
aI0
aI0
aI1
aI2
aa(lp291
I9
aI6
aI6
aI9
aI1
aI0
aI0
aI1
aI1
aa(lp292
I3
aI3
aI4
aI3
aI0
aI0
aI0
aI0
aI1
aa(lp293
I6
aI12
aI4
aI6
aI0
aI0
aI0
aI0
aI3
aa(lp294
I3
aI3
aI4
aI3
aI0
aI0
aI0
aI0
aI1
aa(lp295
I7
aI6
aI6
aI7
aI0
aI0
aI0
aI1
aI1
aa(lp296
I13
aI6
aI6
aI13
aI1
aI0
aI0
aI2
aI0
aa(lp297
I6
aI3
aI6
aI6
aI0
aI0
aI0
aI1
aI0
aa(lp298
I9
aI4
aI6
aI9
aI1
aI0
aI0
aI1
aI0
aa(lp299
I12
aI7
aI6
aI12
aI1
aI0
aI0
aI2
aI1
aa(lp300
I6
aI5
aI6
aI6
aI0
aI1
aI0
aI1
aI0
aa(lp301
I14
aI6
aI6
aI14
aI2
aI0
aI0
aI2
aI0
aa(lp302
I17
aI6
aI6
aI17
aI0
aI1
aI0
aI4
aI0
aa(lp303
I5
aI5
aI4
aI5
aI0
aI0
aI0
aI0
aI1
aa(lp304
I13
aI7
aI6
aI13
aI0
aI0
aI0
aI2
aI1
aa(lp305
I19
aI12
aI6
aI19
aI0
aI0
aI0
aI3
aI0
aa(lp306
I0
aI0
aI1
aI0
aI0
aI0
aI0
aI0
aI0
aa(lp307
I6
aI3
aI6
aI6
aI0
aI0
aI0
aI1
aI0
aa(lp308
I7
aI6
aI6
aI7
aI0
aI0
aI0
aI1
aI1
aa(lp309
I9
aI4
aI6
aI9
aI1
aI0
aI0
aI1
aI0
aa(lp310
I9
aI4
aI6
aI9
aI1
aI0
aI0
aI1
aI0
aa(lp311
I10
aI6
aI6
aI10
aI1
aI0
aI0
aI1
aI1
aa(lp312
I6
aI3
aI6
aI6
aI0
aI0
aI0
aI1
aI0
aa(lp313
I18
aI10
aI6
aI18
aI0
aI0
aI0
aI3
aI0
aa(lp314
I13
aI6
aI6
aI13
aI2
aI0
aI0
aI2
aI0
aa(lp315
I0
aI0
aI1
aI0
aI0
aI0
aI0
aI0
aI0
aa(lp316
I21
aI12
aI6
aI21
aI0
aI0
aI0
aI3
aI1
aa(lp317
I5
aI5
aI4
aI5
aI0
aI0
aI0
aI0
aI1
aa(lp318
I15
aI9
aI6
aI15
aI0
aI0
aI0
aI2
aI1
aa(lp319
I16
aI9
aI6
aI16
aI2
aI0
aI0
aI2
aI1
aa(lp320
I13
aI7
aI6
aI13
aI0
aI0
aI0
aI2
aI1
aa(lp321
I15
aI7
aI6
aI15
aI1
aI2
aI0
aI3
aI0
aa(lp322
I3
aI3
aI4
aI3
aI0
aI0
aI0
aI0
aI1
aa(lp323
I7
aI3
aI6
aI7
aI1
aI0
aI0
aI1
aI0
aa(lp324
I2
aI2
aI4
aI2
aI0
aI0
aI0
aI0
aI0
aa(lp325
I7
aI3
aI6
aI7
aI1
aI0
aI0
aI1
aI0
aa(lp326
I10
aI6
aI6
aI10
aI1
aI0
aI0
aI1
aI1
aa(lp327
I9
aI4
aI6
aI9
aI1
aI0
aI0
aI1
aI0
aa(lp328
I5
aI3
aI6
aI5
aI0
aI0
aI0
aI1
aI0
aa(lp329
I2
aI2
aI4
aI2
aI0
aI0
aI0
aI0
aI0
aa(lp330
I12
aI5
aI6
aI12
aI0
aI2
aI0
aI3
aI0
aa(lp331
I13
aI7
aI6
aI13
aI0
aI0
aI0
aI2
aI1
aa(lp332
I2
aI2
aI4
aI2
aI0
aI0
aI0
aI0
aI0
aa(lp333
I3
aI3
aI4
aI3
aI0
aI0
aI0
aI0
aI1
aa(lp334
I3
aI3
aI4
aI3
aI0
aI0
aI0
aI0
aI1
aa(lp335
I9
aI6
aI6
aI9
aI0
aI0
aI0
aI1
aI1
aa(lp336
I16
aI9
aI6
aI16
aI1
aI0
aI0
aI2
aI1
aa(lp337
I2
aI2
aI4
aI2
aI0
aI0
aI0
aI0
aI0
aa(lp338
I11
aI9
aI6
aI11
aI0
aI0
aI0
aI1
aI2
aa(lp339
I9
aI6
aI6
aI9
aI0
aI0
aI0
aI1
aI1
aa(lp340
I18
aI7
aI6
aI18
aI2
aI0
aI0
aI3
aI0
aa(lp341
I12
aI7
aI6
aI12
aI1
aI1
aI0
aI2
aI1
aa(lp342
I23
aI11
aI6
aI23
aI1
aI0
aI0
aI5
aI0
aa(lp343
I5
aI5
aI4
aI5
aI0
aI0
aI0
aI0
aI1
aa(lp344
I5
aI5
aI4
aI5
aI0
aI0
aI0
aI0
aI1
aa(lp345
I8
aI4
aI6
aI8
aI0
aI0
aI0
aI1
aI0
aa(lp346
I7
aI3
aI6
aI7
aI0
aI0
aI0
aI1
aI0
aa(lp347
I10
aI6
aI6
aI10
aI1
aI0
aI0
aI1
aI1
aa(lp348
I9
aI6
aI6
aI9
aI0
aI0
aI0
aI1
aI1
aa(lp349
I3
aI3
aI4
aI3
aI0
aI0
aI0
aI0
aI1
aa(lp350
I13
aI9
aI6
aI13
aI0
aI0
aI0
aI2
aI0
aa(lp351
I9
aI4
aI6
aI9
aI1
aI0
aI0
aI1
aI0
aa(lp352
I12
aI8
aI6
aI12
aI1
aI0
aI0
aI1
aI1
aa(lp353
I3
aI3
aI4
aI3
aI0
aI0
aI0
aI0
aI1
aa(lp354
I8
aI4
aI6
aI8
aI0
aI0
aI0
aI1
aI0
aa(lp355
I16
aI7
aI6
aI16
aI2
aI0
aI0
aI2
aI0
aa(lp356
I9
aI6
aI6
aI9
aI1
aI0
aI0
aI1
aI1
aa(lp357
I3
aI3
aI4
aI3
aI0
aI0
aI0
aI0
aI1
aa(lp358
I3
aI3
aI4
aI3
aI0
aI0
aI0
aI0
aI1
aa(lp359
I2
aI3
aI4
aI2
aI0
aI0
aI0
aI0
aI1
aa(lp360
I17
aI9
aI6
aI17
aI1
aI0
aI0
aI3
aI0
aa(lp361
I8
aI6
aI6
aI8
aI0
aI0
aI0
aI1
aI1
aa(lp362
I12
aI7
aI6
aI12
aI1
aI0
aI0
aI2
aI1
aa(lp363
I2
aI2
aI4
aI2
aI0
aI0
aI0
aI0
aI0
aa(lp364
I2
aI2
aI4
aI2
aI0
aI0
aI0
aI0
aI0
aa(lp365
I21
aI10
aI6
aI21
aI1
aI0
aI0
aI4
aI0
aa(lp366
I10
aI6
aI6
aI10
aI1
aI0
aI0
aI1
aI1
aa(lp367
I2
aI2
aI4
aI2
aI0
aI0
aI0
aI0
aI0
aa(lp368
I6
aI5
aI6
aI6
aI0
aI0
aI0
aI1
aI0
aa(lp369
I12
aI8
aI6
aI12
aI1
aI0
aI0
aI1
aI1
aa(lp370
I9
aI4
aI6
aI9
aI1
aI0
aI0
aI1
aI0
aa(lp371
I9
aI4
aI6
aI9
aI1
aI0
aI0
aI1
aI0
aa(lp372
I16
aI7
aI6
aI16
aI0
aI0
aI0
aI3
aI0
aa(lp373
I0
aI0
aI1
aI0
aI0
aI0
aI0
aI0
aI0
aa(lp374
I2
aI2
aI4
aI2
aI0
aI0
aI0
aI0
aI0
aa(lp375
I9
aI4
aI6
aI9
aI1
aI0
aI0
aI1
aI0
aa(lp376
I10
aI6
aI6
aI10
aI1
aI0
aI0
aI1
aI1
aa(lp377
I7
aI3
aI6
aI7
aI1
aI0
aI0
aI1
aI0
aa(lp378
I7
aI3
aI6
aI7
aI1
aI0
aI0
aI1
aI0
aa(lp379
I16
aI8
aI6
aI16
aI0
aI0
aI0
aI3
aI1
aa(lp380
I0
aI0
aI1
aI0
aI0
aI0
aI0
aI0
aI0
aa(lp381
I7
aI4
aI6
aI7
aI1
aI0
aI0
aI1
aI0
aa(lp382
I23
aI15
aI6
aI23
aI0
aI0
aI0
aI3
aI2
aa(lp383
I0
aI1
aI2
aI0
aI0
aI0
aI0
aI0
aI0
aa(lp384
I2
aI2
aI4
aI2
aI0
aI0
aI0
aI0
aI0
aa(lp385
I2
aI2
aI4
aI2
aI0
aI0
aI0
aI0
aI0
aa(lp386
I5
aI5
aI4
aI5
aI0
aI0
aI0
aI0
aI1
aa(lp387
I22
aI11
aI6
aI22
aI1
aI0
aI0
aI5
aI0
aa(lp388
I10
aI6
aI6
aI10
aI1
aI0
aI0
aI1
aI1
aa(lp389
I6
aI3
aI6
aI6
aI0
aI0
aI0
aI1
aI0
aa(lp390
I6
aI3
aI6
aI6
aI0
aI0
aI0
aI1
aI0
aa(lp391
I2
aI2
aI4
aI2
aI0
aI0
aI0
aI0
aI0
aa(lp392
I13
aI6
aI6
aI13
aI1
aI0
aI0
aI2
aI0
aa(lp393
I9
aI5
aI6
aI9
aI1
aI0
aI0
aI1
aI0
aa(lp394
I8
aI6
aI6
aI8
aI0
aI0
aI0
aI1
aI1
aa(lp395
I11
aI9
aI6
aI11
aI0
aI0
aI0
aI1
aI2
aa(lp396
I16
aI12
aI6
aI16
aI0
aI0
aI0
aI2
aI2
aa(lp397
I9
aI6
aI6
aI9
aI0
aI0
aI0
aI1
aI1
aa(lp398
I3
aI3
aI4
aI3
aI0
aI0
aI0
aI0
aI1
aa(lp399
I5
aI3
aI6
aI5
aI0
aI0
aI0
aI1
aI0
aa(lp400
I30
aI13
aI6
aI30
aI2
aI0
aI0
aI6
aI0
aa(lp401
I6
aI3
aI6
aI6
aI0
aI0
aI0
aI1
aI0
aa(lp402
I6
aI3
aI6
aI6
aI0
aI0
aI0
aI1
aI0
aa(lp403
I14
aI9
aI6
aI14
aI0
aI1
aI0
aI2
aI0
aa(lp404
I9
aI6
aI6
aI9
aI1
aI0
aI0
aI1
aI1
aa(lp405
I3
aI3
aI4
aI3
aI0
aI0
aI0
aI0
aI1
aa(lp406
I7
aI3
aI6
aI7
aI1
aI0
aI0
aI1
aI0
aa(lp407
I5
aI5
aI4
aI5
aI0
aI0
aI0
aI0
aI1
aa(lp408
I0
aI0
aI1
aI0
aI0
aI0
aI0
aI0
aI0
aa(lp409
I8
aI6
aI6
aI8
aI0
aI0
aI0
aI1
aI1
aa(lp410
I3
aI3
aI4
aI3
aI0
aI0
aI0
aI0
aI1
aa(lp411
I7
aI3
aI6
aI7
aI1
aI0
aI0
aI1
aI0
aa(lp412
I9
aI4
aI6
aI9
aI1
aI0
aI0
aI1
aI0
aa(lp413
I13
aI6
aI6
aI13
aI2
aI0
aI0
aI2
aI0
aa(lp414
I16
aI9
aI6
aI16
aI0
aI0
aI0
aI3
aI1
aa(lp415
I21
aI13
aI6
aI21
aI1
aI0
aI0
aI3
aI2
aa(lp416
I10
aI6
aI6
aI10
aI1
aI0
aI0
aI1
aI1
aa(lp417
I2
aI2
aI4
aI2
aI0
aI0
aI0
aI0
aI0
aa(lp418
I3
aI3
aI4
aI3
aI0
aI0
aI0
aI0
aI1
aa(lp419
I8
aI4
aI6
aI8
aI0
aI2
aI0
aI2
aI0
aa(lp420
I0
aI1
aI2
aI0
aI0
aI0
aI0
aI0
aI0
aa(lp421
I12
aI6
aI6
aI12
aI0
aI0
aI0
aI2
aI0
aa(lp422
I19
aI10
aI6
aI19
aI0
aI0
aI0
aI3
aI1
aa(lp423
I3
aI3
aI4
aI3
aI0
aI0
aI0
aI0
aI1
aa(lp424
I8
aI6
aI6
aI8
aI0
aI0
aI0
aI1
aI1
aa(lp425
I7
aI3
aI6
aI7
aI1
aI0
aI0
aI1
aI0
aa(lp426
I9
aI4
aI6
aI9
aI1
aI0
aI0
aI1
aI0
aa(lp427
I8
aI4
aI6
aI8
aI0
aI0
aI0
aI1
aI0
aa(lp428
I3
aI3
aI4
aI3
aI0
aI0
aI0
aI0
aI1
aa(lp429
I3
aI3
aI4
aI3
aI0
aI0
aI0
aI0
aI1
aa(lp430
I10
aI6
aI6
aI10
aI1
aI0
aI0
aI1
aI1
aa(lp431
I12
aI7
aI6
aI12
aI0
aI0
aI0
aI2
aI1
aa(lp432
I10
aI6
aI6
aI10
aI1
aI0
aI0
aI1
aI1
aa(lp433
I16
aI9
aI6
aI16
aI2
aI0
aI0
aI2
aI1
aa(lp434
I13
aI9
aI6
aI13
aI0
aI0
aI0
aI2
aI1
aa(lp435
I9
aI6
aI6
aI9
aI0
aI0
aI0
aI1
aI1
aa(lp436
I16
aI8
aI6
aI16
aI0
aI0
aI0
aI3
aI1
aa(lp437
I6
aI3
aI6
aI6
aI0
aI0
aI0
aI1
aI0
aa(lp438
I6
aI3
aI6
aI6
aI0
aI0
aI0
aI1
aI0
aa(lp439
I10
aI6
aI6
aI10
aI1
aI0
aI0
aI1
aI1
aa(lp440
I12
aI8
aI6
aI12
aI1
aI0
aI0
aI1
aI1
aa(lp441
I3
aI3
aI4
aI3
aI0
aI0
aI0
aI0
aI1
aa(lp442
I2
aI2
aI4
aI2
aI0
aI0
aI0
aI0
aI0
aa(lp443
I9
aI6
aI6
aI9
aI1
aI0
aI0
aI1
aI1
aa(lp444
I5
aI5
aI4
aI5
aI0
aI0
aI0
aI0
aI1
aa(lp445
I0
aI0
aI1
aI0
aI0
aI0
aI0
aI0
aI0
aa(lp446
I3
aI3
aI4
aI3
aI0
aI0
aI0
aI0
aI1
aa(lp447
I7
aI6
aI6
aI7
aI0
aI0
aI0
aI1
aI1
aa(lp448
I7
aI3
aI6
aI7
aI1
aI0
aI0
aI1
aI0
aa(lp449
I16
aI7
aI6
aI16
aI2
aI0
aI0
aI2
aI0
aa(lp450
I2
aI2
aI4
aI2
aI0
aI0
aI0
aI0
aI0
aa(lp451
I3
aI3
aI4
aI3
aI0
aI0
aI0
aI0
aI1
aa(lp452
I18
aI10
aI6
aI18
aI1
aI0
aI0
aI3
aI1
aa(lp453
I3
aI3
aI4
aI3
aI0
aI0
aI0
aI0
aI1
aa(lp454
I6
aI3
aI6
aI6
aI0
aI0
aI0
aI1
aI0
aa(lp455
I0
aI0
aI1
aI0
aI0
aI0
aI0
aI0
aI0
aa(lp456
I30
aI16
aI6
aI30
aI0
aI0
aI0
aI5
aI1
aa(lp457
I3
aI3
aI4
aI3
aI0
aI0
aI0
aI0
aI1
aa(lp458
I2
aI2
aI4
aI2
aI0
aI0
aI0
aI0
aI0
aa(lp459
I7
aI3
aI6
aI7
aI1
aI0
aI0
aI1
aI0
aa(lp460
I5
aI5
aI4
aI5
aI0
aI0
aI0
aI0
aI1
aa(lp461
I3
aI3
aI4
aI3
aI0
aI0
aI0
aI0
aI1
aa(lp462
I20
aI12
aI6
aI20
aI2
aI0
aI0
aI2
aI2
aa(lp463
I12
aI4
aI6
aI12
aI2
aI0
aI0
aI2
aI0
aa(lp464
I16
aI9
aI6
aI16
aI0
aI0
aI0
aI3
aI0
aa(lp465
I3
aI3
aI4
aI3
aI0
aI0
aI0
aI0
aI1
aa(lp466
I13
aI7
aI6
aI13
aI0
aI0
aI0
aI2
aI1
aa(lp467
I18
aI10
aI6
aI18
aI0
aI0
aI0
aI3
aI0
aa(lp468
I7
aI3
aI6
aI7
aI1
aI0
aI0
aI1
aI0
aa(lp469
I2
aI2
aI4
aI2
aI0
aI0
aI0
aI0
aI0
aa(lp470
I12
aI6
aI6
aI12
aI0
aI0
aI0
aI2
aI0
aa(lp471
I3
aI3
aI4
aI3
aI0
aI0
aI0
aI0
aI1
aa(lp472
I2
aI2
aI4
aI2
aI0
aI0
aI0
aI0
aI0
aa(lp473
I13
aI7
aI6
aI13
aI0
aI0
aI0
aI2
aI1
aa(lp474
I12
aI7
aI6
aI12
aI0
aI0
aI0
aI2
aI1
aa(lp475
I9
aI5
aI6
aI9
aI1
aI0
aI0
aI1
aI0
aa(lp476
I2
aI2
aI4
aI2
aI0
aI0
aI0
aI0
aI0
aa(lp477
I17
aI5
aI6
aI17
aI3
aI0
aI0
aI3
aI0
aa(lp478
I8
aI5
aI6
aI8
aI0
aI0
aI0
aI1
aI0
aa(lp479
I0
aI1
aI2
aI0
aI0
aI0
aI0
aI0
aI0
aa(lp480
I16
aI9
aI6
aI16
aI2
aI0
aI0
aI2
aI1
aa(lp481
I7
aI6
aI6
aI7
aI0
aI0
aI0
aI1
aI1
aa(lp482
I9
aI6
aI6
aI9
aI0
aI0
aI0
aI1
aI1
aa(lp483
I3
aI3
aI4
aI3
aI0
aI0
aI0
aI0
aI1
aa(lp484
I3
aI3
aI4
aI3
aI0
aI0
aI0
aI0
aI1
aa(lp485
I7
aI3
aI6
aI7
aI1
aI0
aI0
aI1
aI0
aa(lp486
I6
aI3
aI6
aI6
aI0
aI0
aI0
aI1
aI0
aa(lp487
I7
aI6
aI6
aI7
aI0
aI0
aI0
aI1
aI1
aa(lp488
I9
aI6
aI6
aI9
aI0
aI0
aI0
aI1
aI1
aa(lp489
I7
aI3
aI6
aI7
aI1
aI0
aI0
aI1
aI0
aa(lp490
I6
aI3
aI6
aI6
aI0
aI0
aI0
aI1
aI0
aa(lp491
I7
aI3
aI6
aI7
aI1
aI0
aI0
aI1
aI0
aa(lp492
I26
aI13
aI6
aI26
aI3
aI0
aI0
aI4
aI1
aa(lp493
I3
aI3
aI4
aI3
aI0
aI0
aI0
aI0
aI1
aa(lp494
I13
aI7
aI6
aI13
aI1
aI0
aI0
aI2
aI1
aa(lp495
I3
aI3
aI4
aI3
aI0
aI0
aI0
aI0
aI1
aa(lp496
I26
aI15
aI6
aI26
aI1
aI0
aI0
aI4
aI1
aa(lp497
I10
aI6
aI6
aI10
aI1
aI0
aI0
aI1
aI1
aa(lp498
I22
aI8
aI6
aI22
aI2
aI0
aI0
aI4
aI0
aa(lp499
I3
aI3
aI4
aI3
aI0
aI0
aI0
aI0
aI1
aa(lp500
I6
aI3
aI6
aI6
aI0
aI0
aI0
aI1
aI0
aa(lp501
I18
aI11
aI6
aI18
aI1
aI0
aI0
aI2
aI1
aa(lp502
I16
aI9
aI6
aI16
aI1
aI0
aI0
aI2
aI1
aa(lp503
I3
aI3
aI4
aI3
aI0
aI0
aI0
aI0
aI1
aa(lp504
I12
aI4
aI6
aI12
aI2
aI0
aI0
aI2
aI0
aa(lp505
I7
aI4
aI6
aI7
aI1
aI0
aI0
aI1
aI0
aa(lp506
I14
aI9
aI6
aI14
aI0
aI0
aI0
aI2
aI1
aa(lp507
I7
aI3
aI6
aI7
aI1
aI0
aI0
aI1
aI0
aa(lp508
I2
aI2
aI4
aI2
aI0
aI0
aI0
aI0
aI0
aa(lp509
I0
aI1
aI2
aI0
aI0
aI0
aI0
aI0
aI0
aa(lp510
I3
aI3
aI4
aI3
aI0
aI0
aI0
aI0
aI1
aa(lp511
I7
aI3
aI6
aI7
aI1
aI0
aI0
aI1
aI0
aa(lp512
I7
aI6
aI6
aI7
aI0
aI0
aI0
aI1
aI1
aa(lp513
I6
aI3
aI6
aI6
aI0
aI0
aI0
aI1
aI0
aa(lp514
I9
aI5
aI6
aI9
aI1
aI0
aI0
aI1
aI0
aa(lp515
I9
aI6
aI6
aI9
aI1
aI0
aI0
aI1
aI1
aa(lp516
I12
aI11
aI6
aI12
aI0
aI0
aI0
aI1
aI2
aa(lp517
I2
aI2
aI4
aI2
aI0
aI0
aI0
aI0
aI0
aa(lp518
I16
aI9
aI6
aI16
aI1
aI0
aI0
aI2
aI1
aa(lp519
I3
aI3
aI4
aI3
aI0
aI0
aI0
aI0
aI1
aa(lp520
I8
aI6
aI6
aI8
aI0
aI0
aI0
aI1
aI1
aa(lp521
I7
aI6
aI6
aI7
aI0
aI0
aI0
aI1
aI1
aa(lp522
I3
aI3
aI4
aI3
aI0
aI0
aI0
aI0
aI1
aa(lp523
I3
aI3
aI4
aI3
aI0
aI0
aI0
aI0
aI1
aa(lp524
I3
aI3
aI4
aI3
aI0
aI0
aI0
aI0
aI1
aa(lp525
I9
aI4
aI6
aI9
aI1
aI0
aI0
aI1
aI0
aa(lp526
I2
aI2
aI4
aI2
aI0
aI0
aI0
aI0
aI0
aa(lp527
I18
aI10
aI6
aI18
aI1
aI0
aI0
aI2
aI1
aa(lp528
I9
aI6
aI6
aI9
aI1
aI0
aI0
aI1
aI1
aa(lp529
I6
aI3
aI6
aI6
aI0
aI0
aI0
aI1
aI0
aa(lp530
I0
aI1
aI2
aI0
aI0
aI0
aI0
aI0
aI0
aa(lp531
I3
aI3
aI4
aI3
aI0
aI0
aI0
aI0
aI1
aa(lp532
I16
aI9
aI6
aI16
aI1
aI0
aI0
aI2
aI1
aa(lp533
I6
aI3
aI6
aI6
aI0
aI0
aI0
aI1
aI0
aa(lp534
I9
aI4
aI6
aI9
aI1
aI0
aI0
aI1
aI0
aa(lp535
I2
aI2
aI4
aI2
aI0
aI0
aI0
aI0
aI0
aa(lp536
I2
aI2
aI4
aI2
aI0
aI0
aI0
aI0
aI0
aa(lp537
I2
aI2
aI4
aI2
aI0
aI0
aI0
aI0
aI0
aa(lp538
I16
aI7
aI6
aI16
aI2
aI0
aI0
aI2
aI0
aa(lp539
I2
aI2
aI4
aI2
aI0
aI0
aI0
aI0
aI0
aa(lp540
I3
aI3
aI4
aI3
aI0
aI0
aI0
aI0
aI1
aa(lp541
I3
aI3
aI4
aI3
aI0
aI0
aI0
aI0
aI1
aa(lp542
I9
aI6
aI6
aI9
aI0
aI0
aI0
aI1
aI1
aa(lp543
I9
aI4
aI6
aI9
aI1
aI0
aI0
aI1
aI0
aa(lp544
I0
aI0
aI1
aI0
aI0
aI0
aI0
aI0
aI0
aa(lp545
I3
aI3
aI4
aI3
aI0
aI0
aI0
aI0
aI1
aa(lp546
I7
aI3
aI6
aI7
aI1
aI0
aI0
aI1
aI0
aa(lp547
I17
aI12
aI6
aI17
aI0
aI0
aI0
aI2
aI2
aa(lp548
I17
aI10
aI6
aI17
aI0
aI0
aI0
aI4
aI0
aa(lp549
I18
aI7
aI6
aI18
aI2
aI0
aI0
aI3
aI0
aa(lp550
I7
aI3
aI6
aI7
aI1
aI0
aI0
aI1
aI0
aa(lp551
I2
aI2
aI4
aI2
aI0
aI0
aI0
aI0
aI0
aa(lp552
I8
aI4
aI6
aI8
aI0
aI0
aI0
aI1
aI0
aa(lp553
I9
aI6
aI6
aI9
aI1
aI0
aI0
aI1
aI1
aa(lp554
I9
aI4
aI6
aI9
aI1
aI0
aI0
aI1
aI0
aa(lp555
I2
aI2
aI4
aI2
aI0
aI0
aI0
aI0
aI0
aa(lp556
I7
aI3
aI6
aI7
aI1
aI0
aI0
aI1
aI0
aa(lp557
I9
aI6
aI6
aI9
aI1
aI0
aI0
aI1
aI1
aa(lp558
I2
aI2
aI4
aI2
aI0
aI0
aI0
aI0
aI0
aa(lp559
I16
aI7
aI6
aI16
aI0
aI0
aI0
aI3
aI0
aa(lp560
I16
aI7
aI6
aI16
aI2
aI0
aI0
aI2
aI0
aa(lp561
I11
aI7
aI6
aI11
aI0
aI0
aI0
aI1
aI1
aa(lp562
I3
aI3
aI4
aI3
aI0
aI0
aI0
aI0
aI1
aa(lp563
I3
aI3
aI4
aI3
aI0
aI0
aI0
aI0
aI1
aa(lp564
I12
aI7
aI6
aI12
aI1
aI1
aI0
aI2
aI1
aa(lp565
I13
aI9
aI6
aI13
aI0
aI0
aI0
aI2
aI1
aa(lp566
I2
aI2
aI4
aI2
aI0
aI0
aI0
aI0
aI0
aa(lp567
I13
aI6
aI6
aI13
aI1
aI0
aI0
aI2
aI0
aa(lp568
I8
aI4
aI6
aI8
aI0
aI0
aI0
aI1
aI0
aa(lp569
I9
aI4
aI6
aI9
aI1
aI0
aI0
aI1
aI0
aa(lp570
I2
aI2
aI4
aI2
aI0
aI0
aI0
aI0
aI0
aa(lp571
I3
aI3
aI4
aI3
aI0
aI0
aI0
aI0
aI1
aa(lp572
I5
aI3
aI6
aI5
aI0
aI0
aI0
aI1
aI0
aa(lp573
I13
aI6
aI6
aI13
aI1
aI0
aI0
aI2
aI0
aa(lp574
I13
aI6
aI6
aI13
aI1
aI0
aI0
aI2
aI0
aa(lp575
I18
aI10
aI6
aI18
aI0
aI0
aI0
aI3
aI1
aa(lp576
I6
aI3
aI6
aI6
aI0
aI0
aI0
aI1
aI0
aa(lp577
I16
aI9
aI6
aI16
aI2
aI0
aI0
aI2
aI1
aa(lp578
I25
aI12
aI6
aI25
aI1
aI0
aI0
aI5
aI0
aa(lp579
I9
aI4
aI6
aI9
aI1
aI0
aI0
aI1
aI0
aa(lp580
I6
aI3
aI6
aI6
aI0
aI0
aI0
aI1
aI0
aa(lp581
I0
aI0
aI1
aI0
aI0
aI0
aI0
aI0
aI0
aa(lp582
I14
aI9
aI6
aI14
aI0
aI0
aI0
aI2
aI1
aa(lp583
I2
aI2
aI4
aI2
aI0
aI0
aI0
aI0
aI0
aa(lp584
I3
aI3
aI4
aI3
aI0
aI0
aI0
aI0
aI1
aa(lp585
I10
aI6
aI6
aI10
aI1
aI0
aI0
aI1
aI1
aa(lp586
I10
aI4
aI6
aI10
aI1
aI0
aI0
aI2
aI0
aa(lp587
I6
aI3
aI6
aI6
aI0
aI0
aI0
aI1
aI0
aa(lp588
I3
aI3
aI4
aI3
aI0
aI0
aI0
aI0
aI1
aa(lp589
I19
aI8
aI6
aI19
aI2
aI0
aI0
aI4
aI0
aa(lp590
I10
aI6
aI6
aI10
aI1
aI0
aI0
aI1
aI1
aa(lp591
I6
aI3
aI6
aI6
aI0
aI0
aI0
aI1
aI0
aa(lp592
I3
aI3
aI4
aI3
aI0
aI0
aI0
aI0
aI1
aa(lp593
I10
aI4
aI6
aI10
aI1
aI0
aI0
aI2
aI0
aa(lp594
I9
aI6
aI6
aI9
aI1
aI0
aI0
aI1
aI1
aa(lp595
I8
aI4
aI6
aI8
aI0
aI0
aI0
aI1
aI0
aa(lp596
I9
aI6
aI6
aI9
aI1
aI0
aI0
aI1
aI1
aa(lp597
I21
aI10
aI6
aI21
aI2
aI0
aI0
aI3
aI1
aa(lp598
I18
aI10
aI6
aI18
aI2
aI0
aI0
aI2
aI1
aa(lp599
I15
aI9
aI6
aI15
aI1
aI0
aI0
aI2
aI1
aa(lp600
I29
aI13
aI6
aI29
aI1
aI0
aI0
aI6
aI0
aa(lp601
I25
aI12
aI6
aI25
aI1
aI0
aI0
aI5
aI0
aa(lp602
I9
aI6
aI6
aI9
aI1
aI0
aI0
aI1
aI1
aa(lp603
I3
aI3
aI4
aI3
aI0
aI0
aI0
aI0
aI1
aa(lp604
I3
aI3
aI4
aI3
aI0
aI0
aI0
aI0
aI1
aa(lp605
I7
aI6
aI6
aI7
aI0
aI0
aI0
aI1
aI1
aa(lp606
I2
aI2
aI4
aI2
aI0
aI0
aI0
aI0
aI0
aa(lp607
I9
aI4
aI6
aI9
aI1
aI0
aI0
aI1
aI0
aa(lp608
I8
aI6
aI6
aI8
aI0
aI0
aI0
aI1
aI1
aa(lp609
I28
aI10
aI6
aI28
aI2
aI2
aI0
aI6
aI0
aa(lp610
I11
aI9
aI6
aI11
aI0
aI0
aI0
aI1
aI2
aa(lp611
I3
aI3
aI4
aI3
aI0
aI0
aI0
aI0
aI1
aa(lp612
I6
aI3
aI6
aI6
aI0
aI0
aI0
aI1
aI0
aa(lp613
I3
aI3
aI4
aI3
aI0
aI0
aI0
aI0
aI1
aa(lp614
I9
aI6
aI6
aI9
aI0
aI0
aI0
aI1
aI1
aa(lp615
I7
aI3
aI6
aI7
aI1
aI0
aI0
aI1
aI0
aa(lp616
I11
aI9
aI6
aI11
aI0
aI0
aI0
aI1
aI2
aa(lp617
I3
aI3
aI4
aI3
aI0
aI0
aI0
aI0
aI1
aa(lp618
I3
aI3
aI4
aI3
aI0
aI0
aI0
aI0
aI1
aa(lp619
I9
aI6
aI6
aI9
aI0
aI0
aI0
aI1
aI1
aa(lp620
I22
aI8
aI6
aI22
aI2
aI0
aI0
aI4
aI0
aa(lp621
I9
aI6
aI6
aI9
aI0
aI0
aI0
aI1
aI1
aa(lp622
I9
aI6
aI6
aI9
aI0
aI0
aI0
aI1
aI1
aa(lp623
I10
aI7
aI6
aI10
aI0
aI0
aI0
aI2
aI1
aa(lp624
I9
aI4
aI6
aI9
aI1
aI0
aI0
aI1
aI0
aa(lp625
I3
aI4
aI4
aI3
aI0
aI0
aI0
aI0
aI1
aa(lp626
I0
aI0
aI1
aI0
aI0
aI0
aI0
aI0
aI0
aa(lp627
I9
aI4
aI6
aI9
aI1
aI0
aI0
aI1
aI0
aa(lp628
I3
aI3
aI4
aI3
aI0
aI0
aI0
aI0
aI1
aa(lp629
I12
aI7
aI6
aI12
aI1
aI0
aI0
aI2
aI1
aa(lp630
I9
aI6
aI6
aI9
aI0
aI0
aI0
aI1
aI1
aa(lp631
I3
aI3
aI4
aI3
aI0
aI0
aI0
aI0
aI1
aa(lp632
I2
aI2
aI4
aI2
aI0
aI0
aI0
aI0
aI0
aa(lp633
I3
aI3
aI4
aI3
aI0
aI0
aI0
aI0
aI1
aa(lp634
I9
aI6
aI6
aI9
aI1
aI0
aI0
aI1
aI1
aa(lp635
I8
aI6
aI6
aI8
aI0
aI0
aI0
aI1
aI1
aa(lp636
I8
aI4
aI6
aI8
aI0
aI0
aI0
aI1
aI0
aa(lp637
I21
aI10
aI6
aI21
aI1
aI0
aI0
aI4
aI0
aa(lp638
I26
aI13
aI6
aI26
aI1
aI0
aI0
aI4
aI1
aa(lp639
I12
aI8
aI6
aI12
aI1
aI0
aI0
aI1
aI1
aa(lp640
I0
aI1
aI2
aI0
aI0
aI0
aI0
aI0
aI0
aa(lp641
I18
aI7
aI6
aI18
aI2
aI0
aI0
aI3
aI0
aa(lp642
I2
aI2
aI4
aI2
aI0
aI0
aI0
aI0
aI0
aa(lp643
I8
aI4
aI6
aI8
aI0
aI0
aI0
aI1
aI0
aa(lp644
I9
aI6
aI6
aI9
aI0
aI0
aI0
aI1
aI1
aa(lp645
I8
aI5
aI6
aI8
aI1
aI0
aI0
aI1
aI0
aa(lp646
I9
aI6
aI6
aI9
aI1
aI0
aI0
aI1
aI1
aa(lp647
I9
aI7
aI6
aI9
aI1
aI0
aI0
aI1
aI1
aa(lp648
I9
aI6
aI6
aI9
aI0
aI0
aI0
aI1
aI1
aa(lp649
I2
aI2
aI4
aI2
aI0
aI0
aI0
aI0
aI0
aa(lp650
I2
aI3
aI4
aI2
aI0
aI0
aI0
aI0
aI1
aa(lp651
I12
aI7
aI6
aI12
aI1
aI0
aI0
aI2
aI1
aa(lp652
I9
aI4
aI6
aI9
aI1
aI0
aI0
aI1
aI0
aa(lp653
I2
aI2
aI4
aI2
aI0
aI0
aI0
aI0
aI0
aa(lp654
I9
aI4
aI6
aI9
aI1
aI0
aI0
aI1
aI0
aa(lp655
I9
aI6
aI6
aI9
aI0
aI0
aI0
aI1
aI1
aa(lp656
I9
aI4
aI6
aI9
aI1
aI0
aI0
aI1
aI0
aa(lp657
I3
aI3
aI4
aI3
aI0
aI0
aI0
aI0
aI1
aa(lp658
I0
aI0
aI1
aI0
aI0
aI0
aI0
aI0
aI0
aa(lp659
I12
aI8
aI6
aI12
aI1
aI0
aI0
aI1
aI1
aa(lp660
I3
aI3
aI4
aI3
aI0
aI0
aI0
aI0
aI1
aa(lp661
I0
aI0
aI1
aI0
aI0
aI0
aI0
aI0
aI0
aa(lp662
I8
aI4
aI6
aI8
aI0
aI0
aI0
aI1
aI0
aa(lp663
I0
aI0
aI1
aI0
aI0
aI0
aI0
aI0
aI0
aa(lp664
I10
aI8
aI6
aI10
aI0
aI0
aI0
aI1
aI1
aa(lp665
I3
aI3
aI4
aI3
aI0
aI0
aI0
aI0
aI1
aa(lp666
I9
aI4
aI6
aI9
aI1
aI0
aI0
aI1
aI0
aa(lp667
I19
aI10
aI6
aI19
aI2
aI0
aI0
aI3
aI1
aa(lp668
I9
aI6
aI6
aI9
aI0
aI0
aI0
aI1
aI1
aa(lp669
I6
aI3
aI6
aI6
aI0
aI0
aI0
aI1
aI0
aa(lp670
I7
aI6
aI6
aI7
aI0
aI0
aI0
aI1
aI1
aa(lp671
I3
aI3
aI4
aI3
aI0
aI0
aI0
aI0
aI1
aa(lp672
I5
aI5
aI4
aI5
aI0
aI0
aI0
aI0
aI1
aa(lp673
I9
aI6
aI6
aI9
aI0
aI0
aI0
aI1
aI1
aa(lp674
I3
aI3
aI4
aI3
aI0
aI0
aI0
aI0
aI1
aa(lp675
I2
aI2
aI4
aI2
aI0
aI0
aI0
aI0
aI0
aa(lp676
I12
aI6
aI6
aI12
aI0
aI0
aI0
aI2
aI0
aa(lp677
I2
aI2
aI4
aI2
aI0
aI0
aI0
aI0
aI0
aa(lp678
I11
aI9
aI6
aI11
aI0
aI0
aI0
aI1
aI2
aa(lp679
I3
aI3
aI4
aI3
aI0
aI0
aI0
aI0
aI1
aa(lp680
I9
aI6
aI6
aI9
aI0
aI0
aI0
aI1
aI1
aa(lp681
I10
aI7
aI6
aI10
aI0
aI0
aI0
aI2
aI1
aa(lp682
I2
aI3
aI4
aI2
aI0
aI0
aI0
aI0
aI1
aa(lp683
I9
aI4
aI6
aI9
aI1
aI0
aI0
aI1
aI0
aa(lp684
I34
aI14
aI6
aI34
aI2
aI0
aI0
aI8
aI0
aa(lp685
I11
aI4
aI6
aI11
aI1
aI0
aI0
aI2
aI0
aa(lp686
I9
aI4
aI6
aI9
aI1
aI0
aI0
aI1
aI0
aa(lp687
I10
aI4
aI6
aI10
aI1
aI0
aI0
aI2
aI0
aa(lp688
I3
aI3
aI4
aI3
aI0
aI0
aI0
aI0
aI1
aa(lp689
I24
aI15
aI6
aI24
aI0
aI0
aI0
aI3
aI2
aa(lp690
I8
aI6
aI6
aI8
aI0
aI0
aI0
aI1
aI1
aa(lp691
I3
aI3
aI4
aI3
aI0
aI0
aI0
aI0
aI1
aa(lp692
I2
aI2
aI4
aI2
aI0
aI0
aI0
aI0
aI0
aa(lp693
I5
aI5
aI4
aI5
aI0
aI0
aI0
aI0
aI1
aa(lp694
I0
aI0
aI1
aI0
aI0
aI0
aI0
aI0
aI0
aa(lp695
I9
aI6
aI6
aI9
aI1
aI0
aI0
aI1
aI1
aa(lp696
I7
aI3
aI6
aI7
aI1
aI0
aI0
aI1
aI0
aa(lp697
I5
aI5
aI4
aI5
aI0
aI0
aI0
aI0
aI1
aa(lp698
I14
aI6
aI6
aI14
aI2
aI0
aI0
aI2
aI0
aa(lp699
I0
aI1
aI2
aI0
aI0
aI0
aI0
aI0
aI0
aa(lp700
I16
aI9
aI6
aI16
aI0
aI0
aI0
aI3
aI0
aa(lp701
I10
aI6
aI6
aI10
aI1
aI0
aI0
aI1
aI1
aa(lp702
I6
aI3
aI6
aI6
aI0
aI0
aI0
aI1
aI0
aa(lp703
I12
aI8
aI6
aI12
aI1
aI0
aI0
aI1
aI1
aa(lp704
I9
aI6
aI6
aI9
aI0
aI0
aI0
aI1
aI1
aa(lp705
I5
aI6
aI4
aI5
aI0
aI0
aI0
aI0
aI2
aa(lp706
I5
aI5
aI4
aI5
aI0
aI0
aI0
aI0
aI1
aa(lp707
I10
aI6
aI6
aI10
aI1
aI0
aI0
aI1
aI1
aa(lp708
I2
aI2
aI4
aI2
aI0
aI0
aI0
aI0
aI0
aa(lp709
I13
aI6
aI6
aI13
aI2
aI0
aI0
aI2
aI0
aa(lp710
I11
aI9
aI6
aI11
aI0
aI0
aI0
aI1
aI2
aa(lp711
I8
aI4
aI6
aI8
aI0
aI0
aI0
aI1
aI0
aa(lp712
I2
aI2
aI4
aI2
aI0
aI0
aI0
aI0
aI0
aa(lp713
I12
aI8
aI6
aI12
aI1
aI0
aI0
aI1
aI1
aa(lp714
I3
aI3
aI4
aI3
aI0
aI0
aI0
aI0
aI1
aa(lp715
I2
aI3
aI4
aI2
aI0
aI0
aI0
aI0
aI1
aa(lp716
I2
aI2
aI4
aI2
aI0
aI0
aI0
aI0
aI0
aa(lp717
I14
aI6
aI6
aI14
aI2
aI0
aI0
aI2
aI0
aa(lp718
I12
aI7
aI6
aI12
aI1
aI0
aI0
aI2
aI1
aa(lp719
I16
aI9
aI6
aI16
aI2
aI0
aI0
aI2
aI1
aa(lp720
I7
aI3
aI6
aI7
aI1
aI0
aI0
aI1
aI0
aa(lp721
I13
aI6
aI6
aI13
aI1
aI0
aI0
aI2
aI0
aa(lp722
I6
aI3
aI6
aI6
aI0
aI0
aI0
aI1
aI0
aa(lp723
I16
aI11
aI6
aI16
aI1
aI1
aI0
aI2
aI1
aa(lp724
I2
aI3
aI4
aI2
aI0
aI0
aI0
aI0
aI1
aa(lp725
I3
aI3
aI4
aI3
aI0
aI0
aI0
aI0
aI1
aa(lp726
I3
aI3
aI4
aI3
aI0
aI0
aI0
aI0
aI1
aa(lp727
I8
aI6
aI6
aI8
aI0
aI0
aI0
aI1
aI1
aa(lp728
I20
aI8
aI6
aI20
aI1
aI0
aI0
aI3
aI0
aa(lp729
I6
aI3
aI6
aI6
aI0
aI0
aI0
aI1
aI0
aa(lp730
I2
aI2
aI4
aI2
aI0
aI0
aI0
aI0
aI0
aa(lp731
I5
aI5
aI4
aI5
aI0
aI0
aI0
aI0
aI1
aa(lp732
I9
aI4
aI6
aI9
aI1
aI0
aI0
aI1
aI0
aa(lp733
I9
aI8
aI6
aI9
aI0
aI0
aI0
aI1
aI1
aa(lp734
I9
aI6
aI6
aI9
aI1
aI0
aI0
aI1
aI1
aa(lp735
I8
aI6
aI6
aI8
aI0
aI0
aI0
aI1
aI1
aa(lp736
I13
aI7
aI6
aI13
aI0
aI0
aI0
aI2
aI1
aa(lp737
I2
aI2
aI4
aI2
aI0
aI0
aI0
aI0
aI0
aa(lp738
I3
aI3
aI4
aI3
aI0
aI0
aI0
aI0
aI1
aa(lp739
I3
aI3
aI4
aI3
aI0
aI0
aI0
aI0
aI1
aa(lp740
I8
aI6
aI6
aI8
aI0
aI0
aI0
aI1
aI1
aa(lp741
I3
aI3
aI4
aI3
aI0
aI0
aI0
aI0
aI1
aa(lp742
I3
aI3
aI4
aI3
aI0
aI0
aI0
aI0
aI1
aa(lp743
I9
aI6
aI6
aI9
aI0
aI0
aI0
aI1
aI1
aa(lp744
I13
aI6
aI6
aI13
aI2
aI0
aI0
aI2
aI0
aa(lp745
I9
aI4
aI6
aI9
aI1
aI0
aI0
aI1
aI0
aa(lp746
I16
aI12
aI6
aI16
aI0
aI0
aI0
aI2
aI2
aa(lp747
I8
aI4
aI6
aI8
aI0
aI0
aI0
aI1
aI0
aa(lp748
I9
aI4
aI6
aI9
aI1
aI0
aI0
aI1
aI0
aa(lp749
I2
aI2
aI4
aI2
aI0
aI0
aI0
aI0
aI0
aa(lp750
I16
aI7
aI6
aI16
aI0
aI0
aI0
aI3
aI0
aa(lp751
I5
aI5
aI4
aI5
aI0
aI0
aI0
aI0
aI1
aa(lp752
I5
aI3
aI6
aI5
aI0
aI0
aI0
aI1
aI0
aa(lp753
I12
aI8
aI6
aI12
aI1
aI1
aI0
aI2
aI1
aa(lp754
I2
aI2
aI4
aI2
aI0
aI0
aI0
aI0
aI0
aa(lp755
I2
aI2
aI4
aI2
aI0
aI0
aI0
aI0
aI0
aa(lp756
I15
aI7
aI6
aI15
aI1
aI0
aI0
aI2
aI0
aa(lp757
I19
aI10
aI6
aI19
aI1
aI0
aI0
aI3
aI0
aa(lp758
I2
aI2
aI4
aI2
aI0
aI0
aI0
aI0
aI0
aa(lp759
I2
aI2
aI4
aI2
aI0
aI0
aI0
aI0
aI0
aa(lp760
I7
aI6
aI6
aI7
aI0
aI0
aI0
aI1
aI1
aa(lp761
I10
aI6
aI6
aI10
aI1
aI0
aI0
aI1
aI1
aa(lp762
I0
aI1
aI2
aI0
aI0
aI0
aI0
aI0
aI0
aa(lp763
I22
aI12
aI6
aI22
aI1
aI0
aI0
aI3
aI1
aa(lp764
I7
aI3
aI6
aI7
aI1
aI0
aI0
aI1
aI0
aa(lp765
I15
aI9
aI6
aI15
aI1
aI1
aI0
aI2
aI1
aa(lp766
I19
aI8
aI6
aI19
aI1
aI0
aI0
aI3
aI0
aa(lp767
I2
aI2
aI4
aI2
aI0
aI0
aI0
aI0
aI0
aa(lp768
I6
aI3
aI6
aI6
aI0
aI0
aI0
aI1
aI0
aa(lp769
I8
aI5
aI6
aI8
aI0
aI0
aI0
aI1
aI0
aa(lp770
I21
aI10
aI6
aI21
aI1
aI0
aI0
aI4
aI0
aa(lp771
I9
aI6
aI6
aI9
aI1
aI0
aI0
aI1
aI1
aa(lp772
I6
aI3
aI6
aI6
aI0
aI0
aI0
aI1
aI0
aa(lp773
I9
aI4
aI6
aI9
aI1
aI0
aI0
aI1
aI0
aa(lp774
I20
aI10
aI6
aI20
aI1
aI0
aI0
aI3
aI1
aa(lp775
I0
aI0
aI1
aI0
aI0
aI0
aI0
aI0
aI0
aa(lp776
I3
aI3
aI4
aI3
aI0
aI0
aI0
aI0
aI1
aa(lp777
I8
aI4
aI6
aI8
aI0
aI0
aI0
aI1
aI0
aa(lp778
I2
aI2
aI4
aI2
aI0
aI0
aI0
aI0
aI0
aa(lp779
I12
aI7
aI6
aI12
aI1
aI0
aI0
aI2
aI1
aa(lp780
I3
aI3
aI4
aI3
aI0
aI0
aI0
aI0
aI1
aa(lp781
I3
aI3
aI4
aI3
aI0
aI0
aI0
aI0
aI1
aa(lp782
I3
aI3
aI4
aI3
aI0
aI0
aI0
aI0
aI1
aa(lp783
I3
aI3
aI4
aI3
aI0
aI0
aI0
aI0
aI1
aa(lp784
I3
aI3
aI4
aI3
aI0
aI0
aI0
aI0
aI1
aa(lp785
I12
aI7
aI6
aI12
aI1
aI0
aI0
aI2
aI1
aa(lp786
I16
aI9
aI6
aI16
aI2
aI0
aI0
aI2
aI1
aa(lp787
I16
aI9
aI6
aI16
aI0
aI0
aI0
aI3
aI0
aa(lp788
I2
aI2
aI4
aI2
aI0
aI0
aI0
aI0
aI0
aa(lp789
I3
aI3
aI4
aI3
aI0
aI0
aI0
aI0
aI1
aa(lp790
I6
aI3
aI6
aI6
aI0
aI0
aI0
aI1
aI0
aa(lp791
I2
aI2
aI4
aI2
aI0
aI0
aI0
aI0
aI0
aa(lp792
I3
aI3
aI4
aI3
aI0
aI0
aI0
aI0
aI1
aa(lp793
I5
aI3
aI6
aI5
aI0
aI1
aI0
aI1
aI0
aa(lp794
I10
aI6
aI6
aI10
aI1
aI0
aI0
aI1
aI1
aa(lp795
I2
aI2
aI4
aI2
aI0
aI0
aI0
aI0
aI0
aa(lp796
I9
aI4
aI6
aI9
aI1
aI0
aI0
aI1
aI0
aa(lp797
I2
aI2
aI4
aI2
aI0
aI0
aI0
aI0
aI0
aa(lp798
I0
aI1
aI2
aI0
aI0
aI0
aI0
aI0
aI0
aa(lp799
I21
aI10
aI6
aI21
aI0
aI1
aI0
aI4
aI0
aa(lp800
I22
aI12
aI6
aI22
aI1
aI0
aI0
aI3
aI1
aa(lp801
I22
aI12
aI6
aI22
aI1
aI0
aI0
aI3
aI1
aa(lp802
I3
aI3
aI4
aI3
aI0
aI0
aI0
aI0
aI1
aa(lp803
I7
aI3
aI6
aI7
aI1
aI0
aI0
aI1
aI0
aa(lp804
I15
aI9
aI6
aI15
aI1
aI0
aI0
aI2
aI1
aa(lp805
I2
aI2
aI4
aI2
aI0
aI0
aI0
aI0
aI0
aa(lp806
I14
aI9
aI6
aI14
aI0
aI0
aI0
aI3
aI0
aa(lp807
I3
aI3
aI4
aI3
aI0
aI0
aI0
aI0
aI1
aa(lp808
I3
aI3
aI4
aI3
aI0
aI0
aI0
aI0
aI1
aa(lp809
I3
aI3
aI4
aI3
aI0
aI0
aI0
aI0
aI1
aa(lp810
I16
aI9
aI6
aI16
aI1
aI0
aI0
aI2
aI1
aa(lp811
I3
aI3
aI4
aI3
aI0
aI0
aI0
aI0
aI1
aa(lp812
I18
aI12
aI6
aI18
aI0
aI0
aI0
aI3
aI1
aa(lp813
I7
aI6
aI6
aI7
aI0
aI0
aI0
aI1
aI1
aa(lp814
I6
aI12
aI4
aI6
aI0
aI0
aI0
aI0
aI3
aa(lp815
I35
aI15
aI6
aI35
aI1
aI0
aI0
aI8
aI0
aa(lp816
I6
aI3
aI6
aI6
aI0
aI0
aI0
aI1
aI0
aa(lp817
I2
aI2
aI4
aI2
aI0
aI0
aI0
aI0
aI0
aa(lp818
I2
aI2
aI4
aI2
aI0
aI0
aI0
aI0
aI0
aa(lp819
I10
aI6
aI6
aI10
aI1
aI0
aI0
aI1
aI1
aa(lp820
I3
aI3
aI4
aI3
aI0
aI0
aI0
aI0
aI1
aa(lp821
I6
aI3
aI6
aI6
aI0
aI0
aI0
aI1
aI0
aa(lp822
I9
aI6
aI6
aI9
aI1
aI0
aI0
aI1
aI1
aa(lp823
I9
aI6
aI6
aI9
aI1
aI0
aI0
aI1
aI1
aa(lp824
I2
aI2
aI4
aI2
aI0
aI0
aI0
aI0
aI0
aa(lp825
I3
aI3
aI4
aI3
aI0
aI0
aI0
aI0
aI1
aa(lp826
I9
aI6
aI6
aI9
aI0
aI0
aI0
aI1
aI1
aa(lp827
I2
aI2
aI4
aI2
aI0
aI0
aI0
aI0
aI0
aa(lp828
I8
aI6
aI6
aI8
aI0
aI0
aI0
aI1
aI1
aa(lp829
I10
aI6
aI6
aI10
aI1
aI0
aI0
aI1
aI1
aa(lp830
I7
aI4
aI6
aI7
aI1
aI0
aI0
aI1
aI0
aa(lp831
I0
aI0
aI1
aI0
aI0
aI0
aI0
aI0
aI0
aa(lp832
I6
aI5
aI6
aI6
aI0
aI1
aI0
aI1
aI0
aa(lp833
I5
aI3
aI6
aI5
aI0
aI1
aI0
aI1
aI0
aa(lp834
I21
aI12
aI6
aI21
aI0
aI0
aI0
aI3
aI1
aa(lp835
I3
aI3
aI4
aI3
aI0
aI0
aI0
aI0
aI1
aa(lp836
I16
aI9
aI6
aI16
aI1
aI0
aI0
aI2
aI1
aa(lp837
I16
aI9
aI6
aI16
aI1
aI0
aI0
aI2
aI1
aa(lp838
I7
aI6
aI6
aI7
aI0
aI0
aI0
aI1
aI1
aa(lp839
I0
aI1
aI2
aI0
aI0
aI0
aI0
aI0
aI0
aa(lp840
I0
aI0
aI1
aI0
aI0
aI0
aI0
aI0
aI0
aa(lp841
I7
aI3
aI6
aI7
aI1
aI0
aI0
aI1
aI0
aa(lp842
I6
aI3
aI6
aI6
aI0
aI0
aI0
aI1
aI0
aa(lp843
I16
aI9
aI6
aI16
aI2
aI0
aI0
aI2
aI1
aa(lp844
I3
aI3
aI4
aI3
aI0
aI0
aI0
aI0
aI1
aa(lp845
I7
aI3
aI6
aI7
aI1
aI0
aI0
aI1
aI0
aa(lp846
I8
aI4
aI6
aI8
aI0
aI0
aI0
aI1
aI0
aa(lp847
I6
aI5
aI6
aI6
aI0
aI1
aI0
aI1
aI0
aa(lp848
I3
aI3
aI4
aI3
aI0
aI0
aI0
aI0
aI1
aa(lp849
I20
aI12
aI6
aI20
aI0
aI0
aI0
aI3
aI1
aa(lp850
I3
aI3
aI4
aI3
aI0
aI0
aI0
aI0
aI1
aa(lp851
I10
aI6
aI6
aI10
aI1
aI0
aI0
aI1
aI1
aa(lp852
I8
aI6
aI6
aI8
aI0
aI0
aI0
aI1
aI1
aa(lp853
I30
aI16
aI6
aI30
aI3
aI0
aI0
aI4
aI2
aa(lp854
I14
aI6
aI6
aI14
aI2
aI0
aI0
aI2
aI0
aa(lp855
I26
aI13
aI6
aI26
aI2
aI0
aI0
aI4
aI1
aa(lp856
I2
aI2
aI4
aI2
aI0
aI0
aI0
aI0
aI0
aa(lp857
I15
aI9
aI6
aI15
aI1
aI0
aI0
aI2
aI1
aa(lp858
I3
aI3
aI4
aI3
aI0
aI0
aI0
aI0
aI1
aa(lp859
I3
aI3
aI4
aI3
aI0
aI0
aI0
aI0
aI1
aa(lp860
I9
aI4
aI6
aI9
aI1
aI0
aI0
aI1
aI0
aa(lp861
I6
aI3
aI6
aI6
aI0
aI0
aI0
aI1
aI0
aa(lp862
I3
aI3
aI4
aI3
aI0
aI0
aI0
aI0
aI1
aa(lp863
I12
aI6
aI6
aI12
aI1
aI1
aI0
aI2
aI0
aa(lp864
I13
aI7
aI6
aI13
aI1
aI0
aI0
aI2
aI1
aa(lp865
I6
aI3
aI6
aI6
aI0
aI0
aI0
aI1
aI0
aa(lp866
I17
aI9
aI6
aI17
aI1
aI0
aI0
aI3
aI0
aa(lp867
I3
aI3
aI4
aI3
aI0
aI0
aI0
aI0
aI1
aa(lp868
I3
aI3
aI4
aI3
aI0
aI0
aI0
aI0
aI1
aa(lp869
I2
aI2
aI4
aI2
aI0
aI0
aI0
aI0
aI0
aa(lp870
I3
aI3
aI4
aI3
aI0
aI0
aI0
aI0
aI1
aa(lp871
I3
aI3
aI4
aI3
aI0
aI0
aI0
aI0
aI1
aa(lp872
I18
aI10
aI6
aI18
aI1
aI0
aI0
aI2
aI1
aa(lp873
I11
aI4
aI6
aI11
aI1
aI0
aI0
aI2
aI0
aa(lp874
I2
aI2
aI4
aI2
aI0
aI0
aI0
aI0
aI0
aa(lp875
I32
aI19
aI6
aI32
aI1
aI0
aI0
aI5
aI2
aa(lp876
I3
aI3
aI4
aI3
aI0
aI0
aI0
aI0
aI1
aa(lp877
I2
aI2
aI4
aI2
aI0
aI0
aI0
aI0
aI0
aa(lp878
I7
aI6
aI6
aI7
aI0
aI0
aI0
aI1
aI1
aa(lp879
I7
aI3
aI6
aI7
aI1
aI0
aI0
aI1
aI0
aa(lp880
I15
aI9
aI6
aI15
aI1
aI0
aI0
aI2
aI1
aa(lp881
I12
aI8
aI6
aI12
aI1
aI0
aI0
aI1
aI1
aa(lp882
I5
aI5
aI4
aI5
aI0
aI0
aI0
aI0
aI1
aa(lp883
I3
aI3
aI4
aI3
aI0
aI0
aI0
aI0
aI1
aa(lp884
I12
aI6
aI6
aI12
aI1
aI0
aI0
aI2
aI0
aa(lp885
I3
aI3
aI4
aI3
aI0
aI0
aI0
aI0
aI1
aa(lp886
I6
aI3
aI6
aI6
aI0
aI0
aI0
aI1
aI0
aa(lp887
I7
aI6
aI6
aI7
aI0
aI0
aI0
aI1
aI1
aa(lp888
I2
aI2
aI4
aI2
aI0
aI0
aI0
aI0
aI0
aa(lp889
I9
aI6
aI6
aI9
aI1
aI0
aI0
aI1
aI1
aa(lp890
I3
aI3
aI4
aI3
aI0
aI0
aI0
aI0
aI1
aa(lp891
I10
aI6
aI6
aI10
aI1
aI0
aI0
aI1
aI1
aa(lp892
I7
aI3
aI6
aI7
aI1
aI0
aI0
aI1
aI0
aa(lp893
I6
aI3
aI6
aI6
aI0
aI0
aI0
aI1
aI0
aa(lp894
I14
aI6
aI6
aI14
aI2
aI0
aI0
aI2
aI0
aa(lp895
I7
aI6
aI6
aI7
aI0
aI0
aI0
aI1
aI1
aa(lp896
I14
aI6
aI6
aI14
aI2
aI0
aI0
aI2
aI0
aa(lp897
I2
aI2
aI4
aI2
aI0
aI0
aI0
aI0
aI0
aa(lp898
I3
aI3
aI4
aI3
aI0
aI0
aI0
aI0
aI1
aa(lp899
I6
aI3
aI6
aI6
aI0
aI0
aI0
aI1
aI0
aa(lp900
I12
aI9
aI6
aI12
aI0
aI0
aI0
aI1
aI2
aa(lp901
I0
aI1
aI2
aI0
aI0
aI0
aI0
aI0
aI0
aa(lp902
I3
aI3
aI4
aI3
aI0
aI0
aI0
aI0
aI1
aa(lp903
I2
aI2
aI4
aI2
aI0
aI0
aI0
aI0
aI0
aa(lp904
I2
aI2
aI4
aI2
aI0
aI0
aI0
aI0
aI0
aa(lp905
I10
aI6
aI6
aI10
aI1
aI0
aI0
aI1
aI1
aa(lp906
I2
aI2
aI4
aI2
aI0
aI0
aI0
aI0
aI0
aa(lp907
I5
aI5
aI4
aI5
aI0
aI0
aI0
aI0
aI1
aa(lp908
I3
aI3
aI4
aI3
aI0
aI0
aI0
aI0
aI1
aa(lp909
I5
aI5
aI4
aI5
aI0
aI0
aI0
aI0
aI1
aa(lp910
I6
aI3
aI6
aI6
aI0
aI0
aI0
aI1
aI0
aa(lp911
I0
aI0
aI1
aI0
aI0
aI0
aI0
aI0
aI0
aa(lp912
I2
aI2
aI4
aI2
aI0
aI0
aI0
aI0
aI0
aa(lp913
I6
aI3
aI6
aI6
aI0
aI0
aI0
aI1
aI0
aa(lp914
I3
aI3
aI4
aI3
aI0
aI0
aI0
aI0
aI1
aa(lp915
I16
aI9
aI6
aI16
aI1
aI0
aI0
aI2
aI1
aa(lp916
I3
aI3
aI4
aI3
aI0
aI0
aI0
aI0
aI1
aa(lp917
I7
aI3
aI6
aI7
aI1
aI0
aI0
aI1
aI0
aa(lp918
I3
aI3
aI4
aI3
aI0
aI0
aI0
aI0
aI1
aa(lp919
I0
aI1
aI2
aI0
aI0
aI0
aI0
aI0
aI0
aa(lp920
I11
aI9
aI6
aI11
aI0
aI0
aI0
aI1
aI2
aa(lp921
I8
aI4
aI6
aI8
aI0
aI0
aI0
aI2
aI0
aa(lp922
I10
aI6
aI6
aI10
aI1
aI0
aI0
aI1
aI1
aa(lp923
I12
aI7
aI6
aI12
aI1
aI0
aI0
aI2
aI1
aa(lp924
I3
aI3
aI4
aI3
aI0
aI0
aI0
aI0
aI1
aa(lp925
I2
aI2
aI4
aI2
aI0
aI0
aI0
aI0
aI0
aa(lp926
I9
aI6
aI6
aI9
aI1
aI0
aI0
aI1
aI1
aa(lp927
I3
aI3
aI4
aI3
aI0
aI0
aI0
aI0
aI1
aa(lp928
I16
aI7
aI6
aI16
aI2
aI0
aI0
aI2
aI0
aa(lp929
I3
aI3
aI4
aI3
aI0
aI0
aI0
aI0
aI1
aa(lp930
I10
aI6
aI6
aI10
aI1
aI0
aI0
aI1
aI1
aa(lp931
I10
aI6
aI6
aI10
aI1
aI0
aI0
aI1
aI1
aa(lp932
I9
aI4
aI6
aI9
aI1
aI0
aI0
aI1
aI0
aa(lp933
I3
aI3
aI4
aI3
aI0
aI0
aI0
aI0
aI1
aa(lp934
I3
aI3
aI4
aI3
aI0
aI0
aI0
aI0
aI1
aa(lp935
I2
aI2
aI4
aI2
aI0
aI0
aI0
aI0
aI0
aa(lp936
I7
aI6
aI6
aI7
aI0
aI0
aI0
aI1
aI1
aa(lp937
I2
aI2
aI4
aI2
aI0
aI0
aI0
aI0
aI0
aa(lp938
I8
aI6
aI6
aI8
aI0
aI0
aI0
aI1
aI1
aa(lp939
I10
aI4
aI6
aI10
aI1
aI0
aI0
aI2
aI0
aa(lp940
I0
aI1
aI2
aI0
aI0
aI0
aI0
aI0
aI0
aa(lp941
I8
aI5
aI6
aI8
aI0
aI0
aI0
aI1
aI0
aa(lp942
I10
aI6
aI6
aI10
aI1
aI0
aI0
aI1
aI1
aa(lp943
I3
aI3
aI4
aI3
aI0
aI0
aI0
aI0
aI1
aa(lp944
I12
aI9
aI6
aI12
aI0
aI0
aI0
aI1
aI2
aa(lp945
I4
aI5
aI4
aI4
aI0
aI0
aI0
aI0
aI1
aa(lp946
I5
aI5
aI4
aI5
aI0
aI0
aI0
aI0
aI1
aa(lp947
I8
aI4
aI6
aI8
aI0
aI0
aI0
aI1
aI0
aa(lp948
I16
aI9
aI6
aI16
aI2
aI0
aI0
aI2
aI1
aa(lp949
I10
aI8
aI6
aI10
aI0
aI0
aI0
aI1
aI1
aa(lp950
I5
aI3
aI6
aI5
aI0
aI1
aI0
aI1
aI0
aa(lp951
I13
aI7
aI6
aI13
aI0
aI0
aI0
aI2
aI1
aa(lp952
I12
aI7
aI6
aI12
aI1
aI0
aI0
aI2
aI1
aa(lp953
I16
aI9
aI6
aI16
aI2
aI0
aI0
aI2
aI1
aa(lp954
I6
aI3
aI6
aI6
aI0
aI0
aI0
aI1
aI0
aa(lp955
I3
aI3
aI4
aI3
aI0
aI0
aI0
aI0
aI1
aa(lp956
I18
aI8
aI6
aI18
aI0
aI0
aI0
aI3
aI0
aa(lp957
I12
aI8
aI6
aI12
aI1
aI0
aI0
aI1
aI1
aa(lp958
I6
aI3
aI6
aI6
aI0
aI0
aI0
aI1
aI0
aa(lp959
I2
aI3
aI4
aI2
aI0
aI0
aI0
aI0
aI1
aa(lp960
I3
aI3
aI4
aI3
aI0
aI0
aI0
aI0
aI1
aa(lp961
I7
aI3
aI6
aI7
aI1
aI0
aI0
aI1
aI0
aa(lp962
I9
aI6
aI6
aI9
aI0
aI0
aI0
aI1
aI1
aa(lp963
I9
aI4
aI6
aI9
aI1
aI0
aI0
aI1
aI0
aa(lp964
I9
aI4
aI6
aI9
aI1
aI0
aI0
aI1
aI0
aa(lp965
I3
aI3
aI4
aI3
aI0
aI0
aI0
aI0
aI1
aa(lp966
I3
aI3
aI4
aI3
aI0
aI0
aI0
aI0
aI1
aa(lp967
I31
aI19
aI6
aI31
aI1
aI1
aI0
aI5
aI1
aa(lp968
I3
aI3
aI4
aI3
aI0
aI0
aI0
aI0
aI1
aa(lp969
I8
aI6
aI6
aI8
aI0
aI0
aI0
aI1
aI1
aa(lp970
I20
aI10
aI6
aI20
aI0
aI0
aI0
aI4
aI0
aa(lp971
I16
aI9
aI6
aI16
aI0
aI0
aI0
aI3
aI0
aa(lp972
I30
aI13
aI6
aI30
aI2
aI0
aI0
aI6
aI0
aa(lp973
I6
aI5
aI6
aI6
aI0
aI1
aI0
aI1
aI0
aa(lp974
I7
aI6
aI6
aI7
aI0
aI0
aI0
aI1
aI1
aa(lp975
I3
aI3
aI4
aI3
aI0
aI0
aI0
aI0
aI1
aa(lp976
I3
aI3
aI4
aI3
aI0
aI0
aI0
aI0
aI1
aa(lp977
I10
aI6
aI6
aI10
aI1
aI0
aI0
aI1
aI1
aa(lp978
I2
aI2
aI4
aI2
aI0
aI0
aI0
aI0
aI0
aa(lp979
I3
aI3
aI4
aI3
aI0
aI0
aI0
aI0
aI1
aa(lp980
I9
aI4
aI6
aI9
aI1
aI0
aI0
aI1
aI0
aa(lp981
I16
aI9
aI6
aI16
aI2
aI0
aI0
aI2
aI1
aa(lp982
I0
aI1
aI2
aI0
aI0
aI0
aI0
aI0
aI0
aa(lp983
I5
aI3
aI6
aI5
aI0
aI0
aI0
aI1
aI0
aa(lp984
I6
aI3
aI6
aI6
aI0
aI0
aI0
aI1
aI0
aa(lp985
I14
aI6
aI6
aI14
aI2
aI0
aI0
aI2
aI0
aa(lp986
I2
aI2
aI4
aI2
aI0
aI0
aI0
aI0
aI0
aa(lp987
I2
aI2
aI4
aI2
aI0
aI0
aI0
aI0
aI0
aa(lp988
I3
aI3
aI4
aI3
aI0
aI0
aI0
aI0
aI1
aa(lp989
I15
aI7
aI6
aI15
aI2
aI0
aI0
aI2
aI1
aa(lp990
I0
aI0
aI1
aI0
aI0
aI0
aI0
aI0
aI0
aa(lp991
I21
aI10
aI6
aI21
aI1
aI0
aI0
aI4
aI0
aa(lp992
I6
aI3
aI6
aI6
aI0
aI0
aI0
aI1
aI0
aa(lp993
I22
aI7
aI6
aI22
aI1
aI1
aI0
aI5
aI0
aa(lp994
I2
aI2
aI4
aI2
aI0
aI0
aI0
aI0
aI0
aa(lp995
I3
aI3
aI4
aI3
aI0
aI0
aI0
aI0
aI1
aa(lp996
I2
aI2
aI4
aI2
aI0
aI0
aI0
aI0
aI0
aa(lp997
I24
aI12
aI6
aI24
aI3
aI0
aI0
aI3
aI1
aa(lp998
I2
aI2
aI4
aI2
aI0
aI0
aI0
aI0
aI0
aa(lp999
I2
aI2
aI4
aI2
aI0
aI0
aI0
aI0
aI0
aa(lp1000
I10
aI6
aI6
aI10
aI1
aI0
aI0
aI1
aI1
aa(lp1001
I20
aI15
aI6
aI20
aI0
aI0
aI0
aI3
aI2
aa(lp1002
I2
aI2
aI4
aI2
aI0
aI0
aI0
aI0
aI0
aa(lp1003
I12
aI6
aI6
aI12
aI0
aI0
aI0
aI2
aI0
aa(lp1004
I2
aI2
aI4
aI2
aI0
aI0
aI0
aI0
aI0
aa(lp1005
I9
aI4
aI6
aI9
aI1
aI0
aI0
aI1
aI0
aa(lp1006
I8
aI6
aI6
aI8
aI0
aI0
aI0
aI1
aI1
aa(lp1007
I3
aI3
aI4
aI3
aI0
aI0
aI0
aI0
aI1
aa(lp1008
I29
aI21
aI6
aI29
aI0
aI0
aI0
aI4
aI3
aa(lp1009
I3
aI3
aI4
aI3
aI0
aI0
aI0
aI0
aI1
aa(lp1010
I2
aI2
aI4
aI2
aI0
aI0
aI0
aI0
aI0
aa(lp1011
I20
aI8
aI6
aI20
aI2
aI2
aI0
aI4
aI0
aa(lp1012
I9
aI4
aI6
aI9
aI1
aI0
aI0
aI1
aI0
aa(lp1013
I13
aI6
aI6
aI13
aI1
aI0
aI0
aI2
aI0
aa(lp1014
I2
aI2
aI4
aI2
aI0
aI0
aI0
aI0
aI0
aa(lp1015
I6
aI3
aI6
aI6
aI0
aI0
aI0
aI1
aI0
aa(lp1016
I2
aI2
aI4
aI2
aI0
aI0
aI0
aI0
aI0
aa(lp1017
I5
aI5
aI4
aI5
aI0
aI0
aI0
aI0
aI1
aa(lp1018
I5
aI3
aI6
aI5
aI0
aI0
aI0
aI1
aI0
aa(lp1019
I3
aI3
aI4
aI3
aI0
aI0
aI0
aI0
aI1
aa(lp1020
I2
aI2
aI4
aI2
aI0
aI0
aI0
aI0
aI0
aa(lp1021
I3
aI3
aI4
aI3
aI0
aI0
aI0
aI0
aI1
aa(lp1022
I8
aI4
aI6
aI8
aI0
aI0
aI0
aI1
aI0
aa(lp1023
I11
aI8
aI6
aI11
aI0
aI0
aI0
aI2
aI0
aa(lp1024
I11
aI8
aI6
aI11
aI1
aI0
aI0
aI1
aI1
aa(lp1025
I20
aI12
aI6
aI20
aI0
aI0
aI0
aI3
aI1
aa(lp1026
I2
aI2
aI4
aI2
aI0
aI0
aI0
aI0
aI0
aa(lp1027
I7
aI5
aI6
aI7
aI0
aI0
aI0
aI1
aI0
aa(lp1028
I6
aI3
aI6
aI6
aI0
aI0
aI0
aI1
aI0
aa(lp1029
I7
aI3
aI6
aI7
aI1
aI0
aI0
aI1
aI0
aa(lp1030
I6
aI3
aI6
aI6
aI0
aI0
aI0
aI1
aI0
aa(lp1031
I12
aI7
aI6
aI12
aI1
aI0
aI0
aI2
aI1
aa(lp1032
I5
aI3
aI6
aI5
aI0
aI0
aI0
aI1
aI0
aa(lp1033
I8
aI6
aI6
aI8
aI0
aI0
aI0
aI1
aI1
aa(lp1034
I16
aI9
aI6
aI16
aI2
aI0
aI0
aI2
aI1
aa(lp1035
I16
aI9
aI6
aI16
aI1
aI0
aI0
aI2
aI1
aa(lp1036
I9
aI7
aI6
aI9
aI0
aI0
aI0
aI1
aI1
aa(lp1037
I2
aI2
aI4
aI2
aI0
aI0
aI0
aI0
aI0
aa(lp1038
I9
aI6
aI6
aI9
aI0
aI0
aI0
aI1
aI1
aa(lp1039
I11
aI8
aI6
aI11
aI0
aI0
aI0
aI1
aI1
aa(lp1040
I8
aI4
aI6
aI8
aI0
aI0
aI0
aI1
aI0
aa(lp1041
I7
aI3
aI6
aI7
aI1
aI0
aI0
aI1
aI0
aa(lp1042
I3
aI3
aI4
aI3
aI0
aI0
aI0
aI0
aI1
aa(lp1043
I19
aI8
aI6
aI19
aI2
aI0
aI0
aI4
aI0
aa(lp1044
I11
aI8
aI6
aI11
aI0
aI0
aI0
aI1
aI1
aa(lp1045
I6
aI3
aI6
aI6
aI0
aI0
aI0
aI1
aI0
aa(lp1046
I0
aI1
aI2
aI0
aI0
aI0
aI0
aI0
aI0
aa(lp1047
I2
aI2
aI4
aI2
aI0
aI0
aI0
aI0
aI0
aa(lp1048
I3
aI3
aI4
aI3
aI0
aI0
aI0
aI0
aI1
aa(lp1049
I13
aI7
aI6
aI13
aI0
aI0
aI0
aI2
aI1
aa(lp1050
I18
aI7
aI6
aI18
aI2
aI0
aI0
aI3
aI0
aa(lp1051
I9
aI4
aI6
aI9
aI0
aI0
aI0
aI2
aI0
aa(lp1052
I9
aI6
aI6
aI9
aI1
aI0
aI0
aI1
aI1
aa(lp1053
I2
aI2
aI4
aI2
aI0
aI0
aI0
aI0
aI0
aa(lp1054
I0
aI1
aI2
aI0
aI0
aI0
aI0
aI0
aI0
aa(lp1055
I22
aI8
aI6
aI22
aI2
aI0
aI0
aI4
aI0
aa(lp1056
I3
aI3
aI4
aI3
aI0
aI0
aI0
aI0
aI1
aa(lp1057
I3
aI3
aI4
aI3
aI0
aI0
aI0
aI0
aI1
aa(lp1058
I8
aI6
aI6
aI8
aI0
aI0
aI0
aI1
aI1
aa(lp1059
I16
aI9
aI6
aI16
aI1
aI0
aI0
aI2
aI1
aa(lp1060
I2
aI2
aI4
aI2
aI0
aI0
aI0
aI0
aI0
aa(lp1061
I9
aI4
aI6
aI9
aI1
aI0
aI0
aI1
aI0
aa(lp1062
I8
aI6
aI6
aI8
aI0
aI0
aI0
aI1
aI1
aa(lp1063
I8
aI5
aI6
aI8
aI0
aI0
aI0
aI1
aI0
aa(lp1064
I3
aI3
aI4
aI3
aI0
aI0
aI0
aI0
aI1
aa(lp1065
I0
aI1
aI2
aI0
aI0
aI0
aI0
aI0
aI0
aa(lp1066
I9
aI4
aI6
aI9
aI1
aI0
aI0
aI1
aI0
aa(lp1067
I3
aI3
aI4
aI3
aI0
aI0
aI0
aI0
aI1
aa(lp1068
I6
aI3
aI6
aI6
aI0
aI0
aI0
aI1
aI0
aa(lp1069
I29
aI16
aI6
aI29
aI3
aI0
aI0
aI4
aI2
aa(lp1070
I2
aI2
aI4
aI2
aI0
aI0
aI0
aI0
aI0
aa(lp1071
I12
aI4
aI6
aI12
aI1
aI0
aI0
aI2
aI0
aa(lp1072
I27
aI14
aI6
aI27
aI1
aI0
aI0
aI4
aI1
aa(lp1073
I17
aI9
aI6
aI17
aI2
aI0
aI0
aI2
aI1
aa(lp1074
I5
aI5
aI4
aI5
aI0
aI0
aI0
aI0
aI1
aa(lp1075
I2
aI2
aI4
aI2
aI0
aI0
aI0
aI0
aI0
aa(lp1076
I16
aI5
aI6
aI16
aI2
aI0
aI0
aI3
aI0
aa(lp1077
I12
aI6
aI6
aI12
aI0
aI0
aI0
aI2
aI0
aa(lp1078
I2
aI2
aI4
aI2
aI0
aI0
aI0
aI0
aI0
aa(lp1079
I5
aI5
aI4
aI5
aI0
aI0
aI0
aI0
aI1
aa(lp1080
I2
aI2
aI4
aI2
aI0
aI0
aI0
aI0
aI0
aa(lp1081
I3
aI3
aI4
aI3
aI0
aI0
aI0
aI0
aI1
aa(lp1082
I3
aI3
aI4
aI3
aI0
aI0
aI0
aI0
aI1
aa(lp1083
I5
aI5
aI4
aI5
aI0
aI0
aI0
aI0
aI1
aa(lp1084
I10
aI8
aI6
aI10
aI0
aI0
aI0
aI1
aI1
aa(lp1085
I6
aI3
aI6
aI6
aI0
aI0
aI0
aI1
aI0
aa(lp1086
I0
aI1
aI2
aI0
aI0
aI0
aI0
aI0
aI0
aa(lp1087
I9
aI6
aI6
aI9
aI0
aI0
aI0
aI1
aI1
aa(lp1088
I7
aI6
aI6
aI7
aI0
aI0
aI0
aI1
aI1
aa(lp1089
I7
aI3
aI6
aI7
aI1
aI0
aI0
aI1
aI0
aa(lp1090
I28
aI10
aI6
aI28
aI2
aI2
aI0
aI6
aI0
aa(lp1091
I3
aI3
aI4
aI3
aI0
aI0
aI0
aI0
aI1
aa(lp1092
I14
aI6
aI6
aI14
aI2
aI0
aI0
aI2
aI0
aa(lp1093
I10
aI4
aI6
aI10
aI1
aI0
aI0
aI2
aI0
aa(lp1094
I9
aI6
aI6
aI9
aI1
aI0
aI0
aI1
aI1
aa(lp1095
I9
aI4
aI6
aI9
aI1
aI0
aI0
aI1
aI0
aa(lp1096
I10
aI4
aI6
aI10
aI1
aI1
aI0
aI2
aI0
aa(lp1097
I14
aI6
aI6
aI14
aI2
aI0
aI0
aI2
aI0
aa(lp1098
I14
aI6
aI6
aI14
aI2
aI0
aI0
aI2
aI0
aa(lp1099
I3
aI3
aI4
aI3
aI0
aI0
aI0
aI0
aI1
aa(lp1100
I0
aI0
aI1
aI0
aI0
aI0
aI0
aI0
aI0
aa(lp1101
I0
aI0
aI1
aI0
aI0
aI0
aI0
aI0
aI0
aa(lp1102
I9
aI4
aI6
aI9
aI1
aI0
aI0
aI1
aI0
aa(lp1103
I21
aI10
aI6
aI21
aI1
aI0
aI0
aI4
aI0
aa(lp1104
I12
aI7
aI6
aI12
aI1
aI0
aI0
aI2
aI1
aa(lp1105
I13
aI7
aI6
aI13
aI0
aI0
aI0
aI2
aI1
aa(lp1106
I2
aI2
aI4
aI2
aI0
aI0
aI0
aI0
aI0
aa(lp1107
I2
aI2
aI4
aI2
aI0
aI0
aI0
aI0
aI0
aa(lp1108
I8
aI4
aI6
aI8
aI0
aI0
aI0
aI2
aI0
aa(lp1109
I7
aI6
aI6
aI7
aI0
aI0
aI0
aI1
aI1
aa(lp1110
I6
aI3
aI6
aI6
aI0
aI0
aI0
aI1
aI0
aa(lp1111
I2
aI2
aI4
aI2
aI0
aI0
aI0
aI0
aI0
aa(lp1112
I3
aI3
aI4
aI3
aI0
aI0
aI0
aI0
aI1
aa(lp1113
I7
aI3
aI6
aI7
aI1
aI0
aI0
aI1
aI0
aa(lp1114
I5
aI3
aI6
aI5
aI0
aI0
aI0
aI1
aI0
aa(lp1115
I3
aI3
aI4
aI3
aI0
aI0
aI0
aI0
aI1
aa(lp1116
I8
aI4
aI6
aI8
aI0
aI0
aI0
aI1
aI0
aa(lp1117
I2
aI2
aI4
aI2
aI0
aI0
aI0
aI0
aI0
aa(lp1118
I18
aI10
aI6
aI18
aI2
aI0
aI0
aI2
aI1
aa(lp1119
I0
aI0
aI1
aI0
aI0
aI0
aI0
aI0
aI0
aa(lp1120
I12
aI7
aI6
aI12
aI1
aI0
aI0
aI2
aI1
aa(lp1121
I2
aI2
aI4
aI2
aI0
aI0
aI0
aI0
aI0
aa(lp1122
I3
aI3
aI4
aI3
aI0
aI0
aI0
aI0
aI1
aa(lp1123
I7
aI3
aI6
aI7
aI1
aI0
aI0
aI1
aI0
aa(lp1124
I6
aI3
aI6
aI6
aI0
aI0
aI0
aI1
aI0
aa(lp1125
I19
aI10
aI6
aI19
aI1
aI0
aI0
aI3
aI0
aa(lp1126
I13
aI9
aI6
aI13
aI0
aI0
aI0
aI2
aI1
aa(lp1127
I0
aI0
aI1
aI0
aI0
aI0
aI0
aI0
aI0
aa(lp1128
I5
aI3
aI6
aI5
aI0
aI0
aI0
aI1
aI0
aa(lp1129
I6
aI3
aI6
aI6
aI0
aI0
aI0
aI1
aI0
aa(lp1130
I28
aI12
aI6
aI28
aI2
aI0
aI0
aI5
aI0
aa(lp1131
I3
aI3
aI4
aI3
aI0
aI0
aI0
aI0
aI1
aa(lp1132
I7
aI3
aI6
aI7
aI1
aI0
aI0
aI1
aI0
aa(lp1133
I18
aI11
aI6
aI18
aI1
aI0
aI0
aI2
aI1
aa(lp1134
I6
aI3
aI6
aI6
aI0
aI0
aI0
aI1
aI0
aa(lp1135
I13
aI6
aI6
aI13
aI1
aI0
aI0
aI2
aI0
aa(lp1136
I9
aI6
aI6
aI9
aI0
aI0
aI0
aI1
aI1
aa(lp1137
I9
aI5
aI6
aI9
aI1
aI0
aI0
aI1
aI0
aa(lp1138
I2
aI2
aI4
aI2
aI0
aI0
aI0
aI0
aI0
aa(lp1139
I10
aI6
aI6
aI10
aI1
aI0
aI0
aI1
aI1
aa(lp1140
I16
aI9
aI6
aI16
aI2
aI0
aI0
aI2
aI1
aa(lp1141
I15
aI9
aI6
aI15
aI1
aI0
aI0
aI2
aI1
aa(lp1142
I10
aI6
aI6
aI10
aI1
aI0
aI0
aI1
aI1
aa(lp1143
I2
aI3
aI4
aI2
aI0
aI0
aI0
aI0
aI1
aa(lp1144
I24
aI13
aI6
aI24
aI1
aI0
aI0
aI4
aI1
aa(lp1145
I9
aI6
aI6
aI9
aI0
aI0
aI0
aI1
aI1
aa(lp1146
I18
aI7
aI6
aI18
aI2
aI0
aI0
aI3
aI0
aa(lp1147
I7
aI3
aI6
aI7
aI1
aI0
aI0
aI1
aI0
aa(lp1148
I6
aI3
aI6
aI6
aI0
aI0
aI0
aI1
aI0
aa(lp1149
I0
aI0
aI1
aI0
aI0
aI0
aI0
aI0
aI0
aa(lp1150
I6
aI3
aI6
aI6
aI0
aI0
aI0
aI1
aI0
aa(lp1151
I7
aI4
aI6
aI7
aI1
aI0
aI0
aI1
aI0
aa(lp1152
I3
aI3
aI4
aI3
aI0
aI0
aI0
aI0
aI1
aa(lp1153
I2
aI2
aI4
aI2
aI0
aI0
aI0
aI0
aI0
aa(lp1154
I5
aI3
aI6
aI5
aI0
aI0
aI0
aI1
aI0
aa(lp1155
I9
aI6
aI6
aI9
aI0
aI0
aI0
aI2
aI0
aa(lp1156
I2
aI2
aI4
aI2
aI0
aI0
aI0
aI0
aI0
aa(lp1157
I8
aI5
aI6
aI8
aI0
aI0
aI0
aI1
aI0
aa(lp1158
I9
aI6
aI6
aI9
aI0
aI0
aI0
aI1
aI1
aa(lp1159
I6
aI3
aI6
aI6
aI0
aI0
aI0
aI1
aI0
aa(lp1160
I3
aI3
aI4
aI3
aI0
aI0
aI0
aI0
aI1
aa(lp1161
I3
aI3
aI4
aI3
aI0
aI0
aI0
aI0
aI1
aa(lp1162
I6
aI3
aI6
aI6
aI0
aI0
aI0
aI1
aI0
aa(lp1163
I9
aI6
aI6
aI9
aI1
aI0
aI0
aI1
aI1
aa(lp1164
I6
aI3
aI6
aI6
aI0
aI0
aI0
aI1
aI0
aa(lp1165
I7
aI6
aI6
aI7
aI0
aI0
aI0
aI1
aI1
aa(lp1166
I3
aI3
aI4
aI3
aI0
aI0
aI0
aI0
aI1
aa(lp1167
I3
aI3
aI4
aI3
aI0
aI0
aI0
aI0
aI1
aa(lp1168
I9
aI6
aI6
aI9
aI1
aI0
aI0
aI1
aI1
aa(lp1169
I6
aI3
aI6
aI6
aI0
aI0
aI0
aI1
aI0
aa(lp1170
I7
aI3
aI6
aI7
aI1
aI0
aI0
aI1
aI0
aa(lp1171
I7
aI6
aI6
aI7
aI0
aI0
aI0
aI1
aI1
aa(lp1172
I12
aI4
aI6
aI12
aI2
aI0
aI0
aI2
aI0
aa(lp1173
I16
aI9
aI6
aI16
aI2
aI0
aI0
aI2
aI1
aa(lp1174
I2
aI2
aI4
aI2
aI0
aI0
aI0
aI0
aI0
aa(lp1175
I13
aI9
aI6
aI13
aI0
aI0
aI0
aI2
aI1
aa(lp1176
I8
aI6
aI6
aI8
aI0
aI0
aI0
aI1
aI1
aa(lp1177
I8
aI4
aI6
aI8
aI0
aI0
aI0
aI2
aI0
aa(lp1178
I10
aI6
aI6
aI10
aI1
aI0
aI0
aI1
aI1
aa(lp1179
I9
aI4
aI6
aI9
aI1
aI0
aI0
aI1
aI0
aa(lp1180
I2
aI2
aI4
aI2
aI0
aI0
aI0
aI0
aI0
aa(lp1181
I3
aI3
aI4
aI3
aI0
aI0
aI0
aI0
aI1
aa(lp1182
I3
aI3
aI4
aI3
aI0
aI0
aI0
aI0
aI1
aa(lp1183
I7
aI3
aI6
aI7
aI1
aI0
aI0
aI1
aI0
aa(lp1184
I3
aI3
aI4
aI3
aI0
aI0
aI0
aI0
aI1
aa(lp1185
I13
aI7
aI6
aI13
aI0
aI0
aI0
aI2
aI1
aa(lp1186
I6
aI3
aI6
aI6
aI0
aI0
aI0
aI1
aI0
aa(lp1187
I7
aI6
aI6
aI7
aI0
aI0
aI0
aI1
aI1
aa(lp1188
I5
aI3
aI6
aI5
aI0
aI0
aI0
aI1
aI0
aa(lp1189
I9
aI6
aI6
aI9
aI0
aI0
aI0
aI1
aI1
aa(lp1190
I14
aI5
aI6
aI14
aI1
aI0
aI0
aI2
aI0
aa(lp1191
I9
aI6
aI6
aI9
aI0
aI0
aI0
aI1
aI1
aa(lp1192
I7
aI6
aI6
aI7
aI0
aI1
aI0
aI1
aI1
aa(lp1193
I0
aI0
aI1
aI0
aI0
aI0
aI0
aI0
aI0
aa(lp1194
I9
aI4
aI6
aI9
aI1
aI0
aI0
aI1
aI0
aa(lp1195
I3
aI3
aI4
aI3
aI0
aI0
aI0
aI0
aI1
aa(lp1196
I10
aI6
aI6
aI10
aI1
aI0
aI0
aI1
aI1
aa(lp1197
I13
aI7
aI6
aI13
aI0
aI0
aI0
aI2
aI1
aa(lp1198
I9
aI8
aI6
aI9
aI0
aI1
aI0
aI1
aI1
aa(lp1199
I30
aI16
aI6
aI30
aI1
aI0
aI0
aI5
aI1
aa(lp1200
I26
aI15
aI6
aI26
aI1
aI0
aI0
aI4
aI1
aa(lp1201
I20
aI6
aI6
aI20
aI2
aI0
aI0
aI4
aI0
aa(lp1202
I16
aI8
aI6
aI16
aI0
aI0
aI0
aI3
aI1
aa(lp1203
I8
aI6
aI6
aI8
aI0
aI0
aI0
aI1
aI1
aa(lp1204
I9
aI5
aI6
aI9
aI1
aI0
aI0
aI1
aI0
aa(lp1205
I23
aI18
aI6
aI23
aI0
aI0
aI0
aI3
aI3
aa(lp1206
I9
aI6
aI6
aI9
aI1
aI0
aI0
aI1
aI1
aa(lp1207
I18
aI11
aI6
aI18
aI1
aI0
aI0
aI2
aI1
aa(lp1208
I0
aI0
aI1
aI0
aI0
aI0
aI0
aI0
aI0
aa(lp1209
I2
aI2
aI4
aI2
aI0
aI0
aI0
aI0
aI0
aa(lp1210
I6
aI3
aI6
aI6
aI0
aI0
aI0
aI1
aI0
aa(lp1211
I10
aI6
aI6
aI10
aI1
aI0
aI0
aI1
aI1
aa(lp1212
I9
aI6
aI6
aI9
aI0
aI0
aI0
aI1
aI1
aa(lp1213
I13
aI6
aI6
aI13
aI2
aI0
aI0
aI2
aI0
aa(lp1214
I8
aI4
aI6
aI8
aI0
aI0
aI0
aI2
aI0
aa(lp1215
I3
aI3
aI4
aI3
aI0
aI0
aI0
aI0
aI1
aa(lp1216
I2
aI2
aI4
aI2
aI0
aI0
aI0
aI0
aI0
aa(lp1217
I16
aI7
aI6
aI16
aI0
aI0
aI0
aI3
aI0
aa(lp1218
I0
aI1
aI2
aI0
aI0
aI0
aI0
aI0
aI0
aa(lp1219
I6
aI3
aI6
aI6
aI0
aI0
aI0
aI1
aI0
aa(lp1220
I3
aI3
aI4
aI3
aI0
aI0
aI0
aI0
aI1
aa(lp1221
I19
aI12
aI6
aI19
aI2
aI0
aI0
aI2
aI2
aa(lp1222
I10
aI4
aI6
aI10
aI1
aI0
aI0
aI2
aI0
aa(lp1223
I6
aI3
aI6
aI6
aI0
aI0
aI0
aI1
aI0
aa(lp1224
I0
aI1
aI2
aI0
aI0
aI0
aI0
aI0
aI0
aa(lp1225
I16
aI9
aI6
aI16
aI1
aI0
aI0
aI2
aI1
aa(lp1226
I10
aI6
aI6
aI10
aI1
aI0
aI0
aI1
aI1
aa(lp1227
I9
aI5
aI6
aI9
aI1
aI0
aI0
aI1
aI0
aa(lp1228
I7
aI3
aI6
aI7
aI1
aI0
aI0
aI1
aI0
aa(lp1229
I14
aI6
aI6
aI14
aI2
aI0
aI0
aI2
aI0
aa(lp1230
I16
aI5
aI6
aI16
aI2
aI0
aI0
aI3
aI0
aa(lp1231
I7
aI3
aI6
aI7
aI1
aI0
aI0
aI1
aI0
aa(lp1232
I6
aI3
aI6
aI6
aI0
aI0
aI0
aI1
aI0
aa(lp1233
I9
aI4
aI6
aI9
aI1
aI0
aI0
aI1
aI0
aa(lp1234
I3
aI3
aI4
aI3
aI0
aI0
aI0
aI0
aI1
aa(lp1235
I9
aI6
aI6
aI9
aI1
aI0
aI0
aI1
aI1
aa(lp1236
I9
aI6
aI6
aI9
aI0
aI0
aI0
aI1
aI1
aa(lp1237
I9
aI4
aI6
aI9
aI1
aI0
aI0
aI1
aI0
aa(lp1238
I12
aI4
aI6
aI12
aI1
aI0
aI0
aI2
aI0
aa(lp1239
I2
aI2
aI4
aI2
aI0
aI0
aI0
aI0
aI0
aa(lp1240
I3
aI3
aI4
aI3
aI0
aI0
aI0
aI0
aI1
aa(lp1241
I10
aI6
aI6
aI10
aI1
aI0
aI0
aI1
aI1
aa(lp1242
I7
aI3
aI6
aI7
aI1
aI0
aI0
aI1
aI0
aa(lp1243
I9
aI6
aI6
aI9
aI1
aI0
aI0
aI1
aI1
aa(lp1244
I17
aI10
aI6
aI17
aI0
aI2
aI0
aI3
aI0
aa(lp1245
I12
aI7
aI6
aI12
aI1
aI0
aI0
aI2
aI1
aa(lp1246
I10
aI4
aI6
aI10
aI1
aI0
aI0
aI2
aI0
aa(lp1247
I9
aI6
aI6
aI9
aI0
aI0
aI0
aI1
aI1
aa(lp1248
I3
aI3
aI4
aI3
aI0
aI0
aI0
aI0
aI1
aa(lp1249
I2
aI2
aI4
aI2
aI0
aI0
aI0
aI0
aI0
aa(lp1250
I21
aI10
aI6
aI21
aI1
aI0
aI0
aI4
aI0
aa(lp1251
I2
aI2
aI4
aI2
aI0
aI0
aI0
aI0
aI0
aa(lp1252
I14
aI6
aI6
aI14
aI2
aI0
aI0
aI2
aI0
aa(lp1253
I2
aI2
aI4
aI2
aI0
aI0
aI0
aI0
aI0
aa(lp1254
I12
aI4
aI6
aI12
aI2
aI0
aI0
aI2
aI0
aa(lp1255
I0
aI0
aI1
aI0
aI0
aI0
aI0
aI0
aI0
aa(lp1256
I6
aI3
aI6
aI6
aI0
aI0
aI0
aI1
aI0
aa(lp1257
I7
aI6
aI6
aI7
aI0
aI0
aI0
aI1
aI1
aa(lp1258
I16
aI9
aI6
aI16
aI1
aI0
aI0
aI3
aI0
aa(lp1259
I2
aI2
aI4
aI2
aI0
aI0
aI0
aI0
aI0
aa(lp1260
I2
aI2
aI4
aI2
aI0
aI0
aI0
aI0
aI0
aa(lp1261
I9
aI4
aI6
aI9
aI1
aI0
aI0
aI1
aI0
aa(lp1262
I7
aI3
aI6
aI7
aI1
aI0
aI0
aI1
aI0
aa(lp1263
I2
aI2
aI4
aI2
aI0
aI0
aI0
aI0
aI0
aa(lp1264
I13
aI7
aI6
aI13
aI0
aI0
aI0
aI2
aI1
aa(lp1265
I16
aI9
aI6
aI16
aI1
aI0
aI0
aI3
aI0
aa(lp1266
I2
aI2
aI4
aI2
aI0
aI0
aI0
aI0
aI0
aa(lp1267
I8
aI6
aI6
aI8
aI0
aI0
aI0
aI1
aI1
aa(lp1268
I5
aI5
aI4
aI5
aI0
aI0
aI0
aI0
aI1
aa(lp1269
I8
aI6
aI6
aI8
aI0
aI0
aI0
aI1
aI1
aa(lp1270
I6
aI3
aI6
aI6
aI0
aI0
aI0
aI1
aI0
aa(lp1271
I5
aI5
aI4
aI5
aI0
aI0
aI0
aI0
aI1
aa(lp1272
I10
aI4
aI6
aI10
aI1
aI0
aI0
aI2
aI0
aa(lp1273
I13
aI6
aI6
aI13
aI2
aI0
aI0
aI2
aI0
aa(lp1274
I10
aI6
aI6
aI10
aI1
aI0
aI0
aI1
aI1
aa(lp1275
I0
aI1
aI2
aI0
aI0
aI0
aI0
aI0
aI0
aa(lp1276
I10
aI6
aI6
aI10
aI1
aI0
aI0
aI1
aI1
aa(lp1277
I17
aI9
aI6
aI17
aI1
aI0
aI0
aI3
aI0
aa(lp1278
I10
aI6
aI6
aI10
aI1
aI0
aI0
aI1
aI1
aa(lp1279
I13
aI8
aI6
aI13
aI1
aI0
aI0
aI2
aI1
aa(lp1280
I9
aI4
aI6
aI9
aI1
aI0
aI0
aI1
aI0
aa(lp1281
I13
aI6
aI6
aI13
aI1
aI0
aI0
aI2
aI0
aa(lp1282
I7
aI3
aI6
aI7
aI1
aI0
aI0
aI1
aI0
aa(lp1283
I9
aI6
aI6
aI9
aI1
aI0
aI0
aI1
aI1
aa(lp1284
I6
aI3
aI6
aI6
aI0
aI0
aI0
aI1
aI0
aa(lp1285
I16
aI8
aI6
aI16
aI0
aI0
aI0
aI3
aI1
aa(lp1286
I3
aI3
aI4
aI3
aI0
aI0
aI0
aI0
aI1
aa(lp1287
I7
aI3
aI6
aI7
aI1
aI0
aI0
aI1
aI0
aa(lp1288
I0
aI0
aI1
aI0
aI0
aI0
aI0
aI0
aI0
aa(lp1289
I7
aI3
aI6
aI7
aI1
aI0
aI0
aI1
aI0
aa(lp1290
I3
aI3
aI4
aI3
aI0
aI0
aI0
aI0
aI1
aa(lp1291
I2
aI2
aI4
aI2
aI0
aI0
aI0
aI0
aI0
aa(lp1292
I5
aI5
aI4
aI5
aI0
aI0
aI0
aI0
aI1
aa(lp1293
I3
aI3
aI4
aI3
aI0
aI0
aI0
aI0
aI1
aa(lp1294
I9
aI6
aI6
aI9
aI1
aI0
aI0
aI1
aI1
aa(lp1295
I14
aI6
aI6
aI14
aI2
aI0
aI0
aI2
aI0
aa(lp1296
I9
aI4
aI6
aI9
aI1
aI0
aI0
aI1
aI0
aa(lp1297
I8
aI5
aI6
aI8
aI1
aI0
aI0
aI1
aI0
aa(lp1298
I2
aI2
aI4
aI2
aI0
aI0
aI0
aI0
aI0
aa(lp1299
I14
aI6
aI6
aI14
aI2
aI0
aI0
aI2
aI0
aa(lp1300
I13
aI9
aI6
aI13
aI0
aI0
aI0
aI2
aI1
aa(lp1301
I7
aI3
aI6
aI7
aI1
aI0
aI0
aI1
aI0
aa(lp1302
I9
aI6
aI6
aI9
aI1
aI0
aI0
aI1
aI1
aa(lp1303
I2
aI2
aI4
aI2
aI0
aI0
aI0
aI0
aI0
aa(lp1304
I3
aI3
aI4
aI3
aI0
aI0
aI0
aI0
aI1
aa(lp1305
I3
aI3
aI4
aI3
aI0
aI0
aI0
aI0
aI1
aa(lp1306
I12
aI6
aI6
aI12
aI1
aI0
aI0
aI2
aI0
aa(lp1307
I8
aI4
aI6
aI8
aI0
aI0
aI0
aI1
aI0
aa(lp1308
I7
aI3
aI6
aI7
aI1
aI0
aI0
aI1
aI0
aa(lp1309
I15
aI8
aI6
aI15
aI1
aI0
aI0
aI2
aI0
aa(lp1310
I27
aI13
aI6
aI27
aI3
aI0
aI0
aI4
aI1
aa(lp1311
I2
aI2
aI4
aI2
aI0
aI0
aI0
aI0
aI0
aa(lp1312
I3
aI3
aI4
aI3
aI0
aI0
aI0
aI0
aI1
aa(lp1313
I2
aI2
aI4
aI2
aI0
aI0
aI0
aI0
aI0
aa(lp1314
I3
aI3
aI4
aI3
aI0
aI0
aI0
aI0
aI1
aa(lp1315
I3
aI3
aI4
aI3
aI0
aI0
aI0
aI0
aI1
aa(lp1316
I3
aI3
aI4
aI3
aI0
aI0
aI0
aI0
aI1
aa(lp1317
I5
aI5
aI4
aI5
aI0
aI0
aI0
aI0
aI1
aa(lp1318
I3
aI3
aI4
aI3
aI0
aI0
aI0
aI0
aI1
aa(lp1319
I2
aI2
aI4
aI2
aI0
aI0
aI0
aI0
aI0
aa(lp1320
I3
aI3
aI4
aI3
aI0
aI0
aI0
aI0
aI1
aa(lp1321
I2
aI2
aI4
aI2
aI0
aI0
aI0
aI0
aI0
aa(lp1322
I8
aI6
aI6
aI8
aI0
aI0
aI0
aI1
aI1
aa(lp1323
I3
aI3
aI4
aI3
aI0
aI0
aI0
aI0
aI1
aa(lp1324
I3
aI3
aI4
aI3
aI0
aI0
aI0
aI0
aI1
aa(lp1325
I3
aI3
aI4
aI3
aI0
aI0
aI0
aI0
aI1
aa(lp1326
I16
aI9
aI6
aI16
aI2
aI0
aI0
aI2
aI1
aa(lp1327
I2
aI2
aI4
aI2
aI0
aI0
aI0
aI0
aI0
aa(lp1328
I0
aI1
aI2
aI0
aI0
aI0
aI0
aI0
aI0
aa(lp1329
I16
aI9
aI6
aI16
aI1
aI0
aI0
aI2
aI1
aa(lp1330
I3
aI3
aI4
aI3
aI0
aI0
aI0
aI0
aI1
aa(lp1331
I20
aI10
aI6
aI20
aI2
aI0
aI0
aI3
aI1
aa(lp1332
I0
aI0
aI1
aI0
aI0
aI0
aI0
aI0
aI0
aa(lp1333
I3
aI3
aI4
aI3
aI0
aI0
aI0
aI0
aI1
aa(lp1334
I12
aI7
aI6
aI12
aI1
aI0
aI0
aI2
aI1
aa(lp1335
I5
aI3
aI6
aI5
aI0
aI0
aI0
aI1
aI0
aa(lp1336
I12
aI8
aI6
aI12
aI1
aI0
aI0
aI1
aI1
aa(lp1337
I16
aI7
aI6
aI16
aI2
aI0
aI0
aI2
aI0
aa(lp1338
I9
aI6
aI6
aI9
aI0
aI0
aI0
aI1
aI1
aa(lp1339
I3
aI3
aI4
aI3
aI0
aI0
aI0
aI0
aI1
aa(lp1340
I13
aI6
aI6
aI13
aI1
aI0
aI0
aI2
aI0
aa(lp1341
I3
aI3
aI4
aI3
aI0
aI0
aI0
aI0
aI1
aa(lp1342
I6
aI5
aI6
aI6
aI0
aI0
aI0
aI1
aI0
aa(lp1343
I3
aI3
aI4
aI3
aI0
aI0
aI0
aI0
aI1
aa(lp1344
I3
aI3
aI4
aI3
aI0
aI0
aI0
aI0
aI1
aa(lp1345
I3
aI3
aI4
aI3
aI0
aI0
aI0
aI0
aI1
aa(lp1346
I5
aI3
aI6
aI5
aI0
aI0
aI0
aI1
aI0
aa(lp1347
I9
aI6
aI6
aI9
aI1
aI0
aI0
aI1
aI1
aa(lp1348
I5
aI5
aI4
aI5
aI0
aI0
aI0
aI0
aI1
aa(lp1349
I3
aI3
aI4
aI3
aI0
aI0
aI0
aI0
aI1
aa(lp1350
I13
aI11
aI6
aI13
aI0
aI0
aI0
aI2
aI1
aa(lp1351
I2
aI2
aI4
aI2
aI0
aI0
aI0
aI0
aI0
aa(lp1352
I12
aI7
aI6
aI12
aI1
aI1
aI0
aI2
aI1
aa(lp1353
I7
aI3
aI6
aI7
aI1
aI0
aI0
aI1
aI0
aa(lp1354
I3
aI3
aI4
aI3
aI0
aI0
aI0
aI0
aI1
aa(lp1355
I16
aI5
aI6
aI16
aI2
aI0
aI0
aI3
aI0
aa(lp1356
I9
aI6
aI6
aI9
aI0
aI0
aI0
aI1
aI1
aa(lp1357
I10
aI6
aI6
aI10
aI1
aI0
aI0
aI1
aI1
aa(lp1358
I6
aI3
aI6
aI6
aI0
aI0
aI0
aI1
aI0
aa(lp1359
I12
aI7
aI6
aI12
aI1
aI0
aI0
aI2
aI1
aa(lp1360
I3
aI3
aI4
aI3
aI0
aI0
aI0
aI0
aI1
aa(lp1361
I2
aI2
aI4
aI2
aI0
aI0
aI0
aI0
aI0
aa(lp1362
I2
aI2
aI4
aI2
aI0
aI0
aI0
aI0
aI0
aa(lp1363
I9
aI4
aI6
aI9
aI1
aI0
aI0
aI1
aI0
aa(lp1364
I10
aI6
aI6
aI10
aI1
aI0
aI0
aI1
aI1
aa(lp1365
I5
aI5
aI4
aI5
aI0
aI0
aI0
aI0
aI1
aa(lp1366
I3
aI3
aI4
aI3
aI0
aI0
aI0
aI0
aI1
aa(lp1367
I10
aI7
aI6
aI10
aI1
aI0
aI0
aI1
aI1
aa(lp1368
I5
aI3
aI6
aI5
aI0
aI1
aI0
aI1
aI0
aa(lp1369
I10
aI6
aI6
aI10
aI1
aI0
aI0
aI1
aI1
aa(lp1370
I12
aI6
aI6
aI12
aI0
aI0
aI0
aI2
aI0
aa(lp1371
I13
aI9
aI6
aI13
aI0
aI0
aI0
aI2
aI0
aa(lp1372
I7
aI3
aI6
aI7
aI1
aI0
aI0
aI1
aI0
aa(lp1373
I3
aI3
aI4
aI3
aI0
aI0
aI0
aI0
aI1
aa(lp1374
I6
aI5
aI6
aI6
aI0
aI1
aI0
aI1
aI0
aa(lp1375
I19
aI8
aI6
aI19
aI2
aI2
aI0
aI4
aI0
aa(lp1376
I7
aI3
aI6
aI7
aI1
aI0
aI0
aI1
aI0
aa(lp1377
I8
aI6
aI6
aI8
aI0
aI0
aI0
aI1
aI1
aa(lp1378
I10
aI6
aI6
aI10
aI1
aI0
aI0
aI1
aI1
aa(lp1379
I3
aI3
aI4
aI3
aI0
aI0
aI0
aI0
aI1
aa(lp1380
I7
aI3
aI6
aI7
aI1
aI0
aI0
aI1
aI0
aa(lp1381
I10
aI6
aI6
aI10
aI1
aI0
aI0
aI1
aI1
aa(lp1382
I3
aI3
aI4
aI3
aI0
aI0
aI0
aI0
aI1
aa(lp1383
I3
aI3
aI4
aI3
aI0
aI0
aI0
aI0
aI1
aa(lp1384
I7
aI6
aI6
aI7
aI0
aI0
aI0
aI1
aI1
aa(lp1385
I3
aI3
aI4
aI3
aI0
aI0
aI0
aI0
aI1
aa(lp1386
I3
aI3
aI4
aI3
aI0
aI0
aI0
aI0
aI1
aa(lp1387
I14
aI9
aI6
aI14
aI1
aI0
aI0
aI1
aI1
aa(lp1388
I12
aI8
aI6
aI12
aI1
aI0
aI0
aI1
aI1
aa(lp1389
I3
aI3
aI4
aI3
aI0
aI0
aI0
aI0
aI1
aa(lp1390
I12
aI7
aI6
aI12
aI0
aI0
aI0
aI2
aI1
aa(lp1391
I5
aI3
aI6
aI5
aI0
aI0
aI0
aI1
aI0
aa(lp1392
I3
aI3
aI4
aI3
aI0
aI0
aI0
aI0
aI1
aa(lp1393
I8
aI4
aI6
aI8
aI0
aI2
aI0
aI2
aI0
aa(lp1394
I5
aI5
aI4
aI5
aI0
aI0
aI0
aI0
aI1
aa(lp1395
I2
aI2
aI4
aI2
aI0
aI0
aI0
aI0
aI0
aa(lp1396
I10
aI6
aI6
aI10
aI1
aI0
aI0
aI1
aI1
aa(lp1397
I8
aI4
aI6
aI8
aI0
aI0
aI0
aI1
aI0
aa(lp1398
I2
aI2
aI4
aI2
aI0
aI0
aI0
aI0
aI0
aa(lp1399
I3
aI3
aI4
aI3
aI0
aI0
aI0
aI0
aI1
aa(lp1400
I13
aI6
aI6
aI13
aI1
aI0
aI0
aI2
aI0
aa(lp1401
I8
aI4
aI6
aI8
aI0
aI0
aI0
aI1
aI0
aa(lp1402
I3
aI3
aI4
aI3
aI0
aI0
aI0
aI0
aI1
aa(lp1403
I8
aI4
aI6
aI8
aI0
aI0
aI0
aI2
aI0
aa(lp1404
I8
aI5
aI6
aI8
aI0
aI0
aI0
aI1
aI0
aa(lp1405
I6
aI3
aI6
aI6
aI0
aI0
aI0
aI1
aI0
aa(lp1406
I9
aI4
aI6
aI9
aI1
aI0
aI0
aI1
aI0
aa(lp1407
I2
aI2
aI4
aI2
aI0
aI0
aI0
aI0
aI0
aa(lp1408
I2
aI2
aI4
aI2
aI0
aI0
aI0
aI0
aI0
aa(lp1409
I7
aI3
aI6
aI7
aI1
aI0
aI0
aI1
aI0
aa(lp1410
I9
aI6
aI6
aI9
aI1
aI0
aI0
aI1
aI1
aa(lp1411
I5
aI3
aI6
aI5
aI0
aI0
aI0
aI1
aI0
aa(lp1412
I9
aI8
aI6
aI9
aI0
aI0
aI0
aI1
aI1
aa(lp1413
I5
aI5
aI4
aI5
aI0
aI0
aI0
aI0
aI1
aa(lp1414
I9
aI6
aI6
aI9
aI1
aI0
aI0
aI1
aI1
aa(lp1415
I7
aI5
aI6
aI7
aI0
aI0
aI0
aI1
aI0
aa(lp1416
I14
aI9
aI6
aI14
aI0
aI0
aI0
aI2
aI1
aa(lp1417
I11
aI9
aI6
aI11
aI0
aI0
aI0
aI1
aI2
aa(lp1418
I2
aI2
aI4
aI2
aI0
aI0
aI0
aI0
aI0
aa(lp1419
I3
aI3
aI4
aI3
aI0
aI0
aI0
aI0
aI1
aa(lp1420
I7
aI6
aI6
aI7
aI0
aI0
aI0
aI1
aI1
aa(lp1421
I6
aI3
aI6
aI6
aI0
aI0
aI0
aI1
aI0
aa(lp1422
I2
aI2
aI4
aI2
aI0
aI0
aI0
aI0
aI0
aa(lp1423
I2
aI2
aI4
aI2
aI0
aI0
aI0
aI0
aI0
aa(lp1424
I3
aI4
aI4
aI3
aI0
aI0
aI0
aI0
aI1
aa(lp1425
I2
aI2
aI4
aI2
aI0
aI0
aI0
aI0
aI0
aa(lp1426
I9
aI6
aI6
aI9
aI0
aI0
aI0
aI1
aI1
aa(lp1427
I25
aI11
aI6
aI25
aI1
aI0
aI0
aI5
aI0
aa(lp1428
I23
aI12
aI6
aI23
aI2
aI0
aI0
aI3
aI1
aa(lp1429
I16
aI9
aI6
aI16
aI1
aI0
aI0
aI2
aI1
aa(lp1430
I10
aI6
aI6
aI10
aI1
aI0
aI0
aI1
aI1
aa(lp1431
I32
aI17
aI6
aI32
aI0
aI0
aI0
aI5
aI2
aa(lp1432
I19
aI10
aI6
aI19
aI1
aI0
aI0
aI3
aI1
aa(lp1433
I10
aI6
aI6
aI10
aI0
aI1
aI0
aI2
aI0
aa(lp1434
I9
aI6
aI6
aI9
aI1
aI0
aI0
aI1
aI1
aa(lp1435
I14
aI6
aI6
aI14
aI2
aI0
aI0
aI2
aI0
aa(lp1436
I6
aI3
aI6
aI6
aI0
aI0
aI0
aI1
aI0
aa(lp1437
I8
aI5
aI6
aI8
aI1
aI0
aI0
aI1
aI0
aa(lp1438
I3
aI3
aI4
aI3
aI0
aI0
aI0
aI0
aI1
aa(lp1439
I3
aI3
aI4
aI3
aI0
aI0
aI0
aI0
aI1
aa(lp1440
I2
aI2
aI4
aI2
aI0
aI0
aI0
aI0
aI0
aa(lp1441
I12
aI8
aI6
aI12
aI1
aI0
aI0
aI1
aI1
aa(lp1442
I9
aI6
aI6
aI9
aI0
aI2
aI0
aI2
aI0
aa(lp1443
I2
aI2
aI4
aI2
aI0
aI0
aI0
aI0
aI0
aa(lp1444
I5
aI5
aI4
aI5
aI0
aI0
aI0
aI0
aI1
aa(lp1445
I18
aI10
aI6
aI18
aI2
aI0
aI0
aI2
aI1
aa(lp1446
I3
aI3
aI4
aI3
aI0
aI0
aI0
aI0
aI1
aa(lp1447
I10
aI7
aI6
aI10
aI0
aI2
aI0
aI2
aI1
aa(lp1448
I6
aI3
aI6
aI6
aI0
aI0
aI0
aI1
aI0
aa(lp1449
I9
aI6
aI6
aI9
aI1
aI0
aI0
aI1
aI1
aa(lp1450
I9
aI6
aI6
aI9
aI1
aI0
aI0
aI1
aI1
aa(lp1451
I16
aI9
aI6
aI16
aI1
aI0
aI0
aI2
aI1
aa(lp1452
I27
aI12
aI6
aI27
aI1
aI0
aI0
aI6
aI0
aa(lp1453
I19
aI10
aI6
aI19
aI1
aI0
aI0
aI3
aI0
aa(lp1454
I3
aI3
aI4
aI3
aI0
aI0
aI0
aI0
aI1
aa(lp1455
I2
aI2
aI4
aI2
aI0
aI0
aI0
aI0
aI0
aa(lp1456
I3
aI3
aI4
aI3
aI0
aI0
aI0
aI0
aI1
aa(lp1457
I9
aI4
aI6
aI9
aI1
aI0
aI0
aI1
aI0
aa(lp1458
I5
aI3
aI6
aI5
aI0
aI0
aI0
aI1
aI0
aa(lp1459
I3
aI3
aI4
aI3
aI0
aI0
aI0
aI0
aI1
aa(lp1460
I0
aI1
aI2
aI0
aI0
aI0
aI0
aI0
aI0
aa(lp1461
I8
aI4
aI6
aI8
aI0
aI0
aI0
aI1
aI0
aa(lp1462
I5
aI5
aI4
aI5
aI0
aI0
aI0
aI0
aI1
aa(lp1463
I3
aI4
aI4
aI3
aI0
aI0
aI0
aI0
aI1
aa(lp1464
I5
aI3
aI6
aI5
aI0
aI1
aI0
aI1
aI0
aa(lp1465
I8
aI6
aI6
aI8
aI0
aI0
aI0
aI1
aI1
aa(lp1466
I16
aI9
aI6
aI16
aI1
aI0
aI0
aI2
aI1
aa(lp1467
I12
aI6
aI6
aI12
aI0
aI0
aI0
aI2
aI0
aa(lp1468
I5
aI3
aI6
aI5
aI0
aI1
aI0
aI1
aI0
aa(lp1469
I9
aI4
aI6
aI9
aI1
aI0
aI0
aI1
aI0
aa(lp1470
I0
aI0
aI1
aI0
aI0
aI0
aI0
aI0
aI0
aa(lp1471
I15
aI9
aI6
aI15
aI1
aI0
aI0
aI2
aI1
aa(lp1472
I13
aI7
aI6
aI13
aI0
aI0
aI0
aI2
aI1
aa(lp1473
I7
aI6
aI6
aI7
aI0
aI0
aI0
aI1
aI1
aa(lp1474
I7
aI3
aI6
aI7
aI1
aI0
aI0
aI1
aI0
aa(lp1475
I16
aI9
aI6
aI16
aI1
aI0
aI0
aI2
aI1
aa(lp1476
I2
aI2
aI4
aI2
aI0
aI0
aI0
aI0
aI0
aa(lp1477
I22
aI15
aI6
aI22
aI0
aI0
aI0
aI3
aI1
aa(lp1478
I2
aI2
aI4
aI2
aI0
aI0
aI0
aI0
aI0
aa(lp1479
I9
aI6
aI6
aI9
aI0
aI0
aI0
aI1
aI1
aa(lp1480
I8
aI6
aI6
aI8
aI0
aI0
aI0
aI1
aI1
aa(lp1481
I2
aI2
aI4
aI2
aI0
aI0
aI0
aI0
aI0
aa(lp1482
I18
aI8
aI6
aI18
aI2
aI0
aI0
aI3
aI1
aa(lp1483
I10
aI6
aI6
aI10
aI1
aI0
aI0
aI1
aI1
aa(lp1484
I9
aI4
aI6
aI9
aI1
aI0
aI0
aI1
aI0
aa(lp1485
I7
aI6
aI6
aI7
aI0
aI0
aI0
aI1
aI1
aa(lp1486
I9
aI4
aI6
aI9
aI1
aI0
aI0
aI1
aI0
aa(lp1487
I6
aI3
aI6
aI6
aI0
aI0
aI0
aI1
aI0
aa(lp1488
I2
aI2
aI4
aI2
aI0
aI0
aI0
aI0
aI0
aa(lp1489
I3
aI3
aI4
aI3
aI0
aI0
aI0
aI0
aI1
aa(lp1490
I6
aI3
aI6
aI6
aI0
aI0
aI0
aI1
aI0
aa(lp1491
I13
aI9
aI6
aI13
aI0
aI0
aI0
aI2
aI1
aa(lp1492
I2
aI2
aI4
aI2
aI0
aI0
aI0
aI0
aI0
aa(lp1493
I2
aI2
aI4
aI2
aI0
aI0
aI0
aI0
aI0
aa(lp1494
I17
aI9
aI6
aI17
aI2
aI0
aI0
aI2
aI1
aa(lp1495
I0
aI0
aI1
aI0
aI0
aI0
aI0
aI0
aI0
aa(lp1496
I7
aI3
aI6
aI7
aI1
aI0
aI0
aI1
aI0
aa(lp1497
I10
aI7
aI6
aI10
aI1
aI0
aI0
aI1
aI1
aa(lp1498
I9
aI6
aI6
aI9
aI0
aI0
aI0
aI1
aI1
aa(lp1499
I14
aI7
aI6
aI14
aI0
aI0
aI0
aI2
aI0
aa(lp1500
I14
aI6
aI6
aI14
aI2
aI0
aI0
aI2
aI0
aa(lp1501
I3
aI3
aI4
aI3
aI0
aI0
aI0
aI0
aI1
aa(lp1502
I8
aI4
aI6
aI8
aI0
aI0
aI0
aI1
aI0
aa(lp1503
I22
aI12
aI6
aI22
aI1
aI0
aI0
aI3
aI1
aa(lp1504
I2
aI2
aI4
aI2
aI0
aI0
aI0
aI0
aI0
aa(lp1505
I0
aI0
aI1
aI0
aI0
aI0
aI0
aI0
aI0
aa(lp1506
I8
aI4
aI6
aI8
aI0
aI0
aI0
aI1
aI0
aa(lp1507
I7
aI3
aI6
aI7
aI1
aI0
aI0
aI1
aI0
aa(lp1508
I16
aI9
aI6
aI16
aI2
aI0
aI0
aI2
aI1
aa(lp1509
I3
aI3
aI4
aI3
aI0
aI0
aI0
aI0
aI1
aa(lp1510
I0
aI1
aI2
aI0
aI0
aI0
aI0
aI0
aI0
aa(lp1511
I20
aI12
aI6
aI20
aI1
aI0
aI0
aI3
aI1
aa(lp1512
I13
aI9
aI6
aI13
aI0
aI0
aI0
aI2
aI1
aa(lp1513
I12
aI7
aI6
aI12
aI1
aI0
aI0
aI2
aI1
aa(lp1514
I9
aI4
aI6
aI9
aI1
aI0
aI0
aI1
aI0
aa(lp1515
I3
aI3
aI4
aI3
aI0
aI0
aI0
aI0
aI1
aa(lp1516
I3
aI3
aI4
aI3
aI0
aI0
aI0
aI0
aI1
aa(lp1517
I11
aI9
aI6
aI11
aI0
aI0
aI0
aI1
aI2
aa(lp1518
I10
aI4
aI6
aI10
aI0
aI0
aI0
aI2
aI0
aa(lp1519
I22
aI9
aI6
aI22
aI2
aI0
aI0
aI4
aI1
aa(lp1520
I0
aI0
aI1
aI0
aI0
aI0
aI0
aI0
aI0
aa(lp1521
I16
aI9
aI6
aI16
aI1
aI0
aI0
aI2
aI1
aa(lp1522
I7
aI6
aI6
aI7
aI0
aI0
aI0
aI1
aI1
aa(lp1523
I0
aI1
aI2
aI0
aI0
aI0
aI0
aI0
aI0
aa(lp1524
I3
aI3
aI4
aI3
aI0
aI0
aI0
aI0
aI1
aa(lp1525
I9
aI4
aI6
aI9
aI1
aI0
aI0
aI1
aI0
aa(lp1526
I9
aI4
aI6
aI9
aI1
aI0
aI0
aI1
aI0
aa(lp1527
I3
aI3
aI4
aI3
aI0
aI0
aI0
aI0
aI1
aa(lp1528
I9
aI6
aI6
aI9
aI1
aI0
aI0
aI1
aI1
aa(lp1529
I10
aI9
aI6
aI10
aI0
aI0
aI0
aI1
aI2
aa(lp1530
I6
aI12
aI4
aI6
aI0
aI0
aI0
aI0
aI3
aa(lp1531
I2
aI2
aI4
aI2
aI0
aI0
aI0
aI0
aI0
aa(lp1532
I3
aI3
aI4
aI3
aI0
aI0
aI0
aI0
aI1
aa(lp1533
I14
aI9
aI6
aI14
aI0
aI0
aI0
aI2
aI1
aa(lp1534
I10
aI4
aI6
aI10
aI1
aI0
aI0
aI2
aI0
aa(lp1535
I9
aI6
aI6
aI9
aI0
aI0
aI0
aI1
aI1
aa(lp1536
I3
aI3
aI4
aI3
aI0
aI0
aI0
aI0
aI1
aa(lp1537
I9
aI6
aI6
aI9
aI0
aI0
aI0
aI1
aI1
aa(lp1538
I10
aI6
aI6
aI10
aI1
aI0
aI0
aI1
aI1
aa(lp1539
I6
aI3
aI6
aI6
aI0
aI0
aI0
aI1
aI0
aa(lp1540
I3
aI3
aI4
aI3
aI0
aI0
aI0
aI0
aI1
aa(lp1541
I9
aI5
aI6
aI9
aI1
aI0
aI0
aI1
aI0
aa(lp1542
I3
aI3
aI4
aI3
aI0
aI0
aI0
aI0
aI1
aa(lp1543
I6
aI3
aI6
aI6
aI0
aI0
aI0
aI1
aI0
aa(lp1544
I10
aI6
aI6
aI10
aI1
aI0
aI0
aI1
aI1
aa(lp1545
I16
aI9
aI6
aI16
aI2
aI0
aI0
aI2
aI1
aa(lp1546
I20
aI12
aI6
aI20
aI0
aI0
aI0
aI3
aI1
aa(lp1547
I9
aI6
aI6
aI9
aI1
aI0
aI0
aI1
aI1
aa(lp1548
I3
aI3
aI4
aI3
aI0
aI0
aI0
aI0
aI1
aa(lp1549
I16
aI9
aI6
aI16
aI2
aI0
aI0
aI2
aI1
aa(lp1550
I0
aI0
aI1
aI0
aI0
aI0
aI0
aI0
aI0
aa(lp1551
I9
aI4
aI6
aI9
aI1
aI0
aI0
aI1
aI0
aa(lp1552
I7
aI3
aI6
aI7
aI1
aI0
aI0
aI1
aI0
aa(lp1553
I3
aI3
aI4
aI3
aI0
aI0
aI0
aI0
aI1
aa(lp1554
I2
aI2
aI4
aI2
aI0
aI0
aI0
aI0
aI0
aa(lp1555
I7
aI3
aI6
aI7
aI1
aI0
aI0
aI1
aI0
aa(lp1556
I24
aI9
aI6
aI24
aI1
aI1
aI0
aI5
aI0
aa(lp1557
I24
aI13
aI6
aI24
aI1
aI0
aI0
aI4
aI1
aa(lp1558
I2
aI2
aI4
aI2
aI0
aI0
aI0
aI0
aI0
aa(lp1559
I2
aI2
aI4
aI2
aI0
aI0
aI0
aI0
aI0
aa(lp1560
I9
aI6
aI6
aI9
aI0
aI0
aI0
aI1
aI1
aa(lp1561
I20
aI13
aI6
aI20
aI1
aI0
aI0
aI3
aI1
aa(lp1562
I10
aI4
aI6
aI10
aI1
aI1
aI0
aI2
aI0
aa(lp1563
I3
aI3
aI4
aI3
aI0
aI0
aI0
aI0
aI1
aa(lp1564
I2
aI2
aI4
aI2
aI0
aI0
aI0
aI0
aI0
aa(lp1565
I14
aI5
aI6
aI14
aI1
aI0
aI0
aI2
aI0
aa(lp1566
I7
aI3
aI6
aI7
aI1
aI0
aI0
aI1
aI0
aa(lp1567
I6
aI3
aI6
aI6
aI0
aI0
aI0
aI1
aI0
aa(lp1568
I2
aI2
aI4
aI2
aI0
aI0
aI0
aI0
aI0
aa(lp1569
I0
aI1
aI2
aI0
aI0
aI0
aI0
aI0
aI0
aa(lp1570
I24
aI11
aI6
aI24
aI2
aI0
aI0
aI4
aI0
aa(lp1571
I26
aI14
aI6
aI26
aI2
aI0
aI0
aI4
aI1
aa(lp1572
I7
aI3
aI6
aI7
aI1
aI0
aI0
aI1
aI0
aa(lp1573
I5
aI5
aI4
aI5
aI0
aI0
aI0
aI0
aI1
aa(lp1574
I3
aI3
aI4
aI3
aI0
aI0
aI0
aI0
aI1
aa(lp1575
I3
aI3
aI4
aI3
aI0
aI0
aI0
aI0
aI1
aa(lp1576
I9
aI6
aI6
aI9
aI0
aI0
aI0
aI1
aI1
aa(lp1577
I2
aI2
aI4
aI2
aI0
aI0
aI0
aI0
aI0
aa(lp1578
I3
aI3
aI4
aI3
aI0
aI0
aI0
aI0
aI1
aa(lp1579
I11
aI9
aI6
aI11
aI0
aI0
aI0
aI1
aI2
aa(lp1580
I8
aI6
aI6
aI8
aI0
aI0
aI0
aI1
aI1
aa(lp1581
I14
aI6
aI6
aI14
aI2
aI0
aI0
aI2
aI0
aa(lp1582
I18
aI9
aI6
aI18
aI1
aI0
aI0
aI3
aI0
aa(lp1583
I15
aI7
aI6
aI15
aI1
aI0
aI0
aI2
aI0
aa(lp1584
I16
aI10
aI6
aI16
aI1
aI0
aI0
aI2
aI1
aa(lp1585
I6
aI5
aI6
aI6
aI0
aI1
aI0
aI1
aI0
aa(lp1586
I6
aI3
aI6
aI6
aI0
aI0
aI0
aI1
aI0
aa(lp1587
I8
aI6
aI6
aI8
aI0
aI0
aI0
aI1
aI1
aa(lp1588
I3
aI3
aI4
aI3
aI0
aI0
aI0
aI0
aI1
aa(lp1589
I3
aI3
aI4
aI3
aI0
aI0
aI0
aI0
aI1
aa(lp1590
I2
aI2
aI4
aI2
aI0
aI0
aI0
aI0
aI0
aa(lp1591
I16
aI11
aI6
aI16
aI1
aI1
aI0
aI2
aI1
aa(lp1592
I7
aI3
aI6
aI7
aI1
aI0
aI0
aI1
aI0
aa(lp1593
I27
aI13
aI6
aI27
aI2
aI0
aI0
aI4
aI1
aa(lp1594
I0
aI0
aI1
aI0
aI0
aI0
aI0
aI0
aI0
aa(lp1595
I8
aI4
aI6
aI8
aI0
aI2
aI0
aI2
aI0
aa(lp1596
I2
aI2
aI4
aI2
aI0
aI0
aI0
aI0
aI0
aa(lp1597
I10
aI6
aI6
aI10
aI1
aI0
aI0
aI1
aI1
aa(lp1598
I3
aI3
aI4
aI3
aI0
aI0
aI0
aI0
aI1
aa(lp1599
I9
aI4
aI6
aI9
aI1
aI0
aI0
aI1
aI0
aa(lp1600
I12
aI7
aI6
aI12
aI1
aI0
aI0
aI2
aI1
aa(lp1601
I13
aI8
aI6
aI13
aI0
aI0
aI0
aI2
aI0
aa(lp1602
I3
aI3
aI4
aI3
aI0
aI0
aI0
aI0
aI1
aa(lp1603
I15
aI9
aI6
aI15
aI1
aI0
aI0
aI2
aI1
aa(lp1604
I16
aI9
aI6
aI16
aI2
aI0
aI0
aI2
aI1
aa(lp1605
I11
aI8
aI6
aI11
aI1
aI0
aI0
aI1
aI1
aa(lp1606
I3
aI3
aI4
aI3
aI0
aI0
aI0
aI0
aI1
aa(lp1607
I2
aI2
aI4
aI2
aI0
aI0
aI0
aI0
aI0
aa(lp1608
I3
aI3
aI4
aI3
aI0
aI0
aI0
aI0
aI1
aa(lp1609
I2
aI2
aI4
aI2
aI0
aI0
aI0
aI0
aI0
aa(lp1610
I13
aI6
aI6
aI13
aI1
aI0
aI0
aI2
aI0
aa(lp1611
I10
aI6
aI6
aI10
aI1
aI0
aI0
aI1
aI1
aa(lp1612
I8
aI4
aI6
aI8
aI0
aI0
aI0
aI1
aI0
aa(lp1613
I13
aI9
aI6
aI13
aI0
aI0
aI0
aI2
aI1
aa(lp1614
I0
aI1
aI2
aI0
aI0
aI0
aI0
aI0
aI0
aa(lp1615
I3
aI3
aI4
aI3
aI0
aI0
aI0
aI0
aI1
aa(lp1616
I9
aI6
aI6
aI9
aI0
aI0
aI0
aI1
aI1
aa(lp1617
I22
aI8
aI6
aI22
aI2
aI0
aI0
aI4
aI0
aa(lp1618
I9
aI6
aI6
aI9
aI0
aI0
aI0
aI1
aI1
aa(lp1619
I16
aI9
aI6
aI16
aI1
aI0
aI0
aI2
aI1
aa(lp1620
I31
aI18
aI6
aI31
aI1
aI0
aI0
aI4
aI2
aa(lp1621
I7
aI3
aI6
aI7
aI1
aI0
aI0
aI1
aI0
aa(lp1622
I2
aI2
aI4
aI2
aI0
aI0
aI0
aI0
aI0
aa(lp1623
I3
aI3
aI4
aI3
aI0
aI0
aI0
aI0
aI1
aa(lp1624
I5
aI3
aI6
aI5
aI0
aI0
aI0
aI1
aI0
aa(lp1625
I3
aI3
aI4
aI3
aI0
aI0
aI0
aI0
aI1
aa(lp1626
I7
aI3
aI6
aI7
aI1
aI0
aI0
aI1
aI0
aa(lp1627
I3
aI3
aI4
aI3
aI0
aI0
aI0
aI0
aI1
aa(lp1628
I12
aI7
aI6
aI12
aI1
aI0
aI0
aI2
aI1
aa(lp1629
I9
aI6
aI6
aI9
aI0
aI0
aI0
aI1
aI1
aa(lp1630
I2
aI2
aI4
aI2
aI0
aI0
aI0
aI0
aI0
aa(lp1631
I7
aI6
aI6
aI7
aI0
aI0
aI0
aI1
aI1
aa(lp1632
I0
aI0
aI1
aI0
aI0
aI0
aI0
aI0
aI0
aa(lp1633
I16
aI7
aI6
aI16
aI2
aI0
aI0
aI2
aI0
aa(lp1634
I7
aI3
aI6
aI7
aI1
aI0
aI0
aI1
aI0
aa(lp1635
I12
aI7
aI6
aI12
aI1
aI0
aI0
aI2
aI1
aa(lp1636
I10
aI6
aI6
aI10
aI1
aI0
aI0
aI1
aI1
aa(lp1637
I5
aI3
aI6
aI5
aI0
aI0
aI0
aI1
aI0
aa(lp1638
I3
aI3
aI4
aI3
aI0
aI0
aI0
aI0
aI1
aa(lp1639
I14
aI7
aI6
aI14
aI0
aI0
aI0
aI2
aI0
aa(lp1640
I10
aI4
aI6
aI10
aI1
aI0
aI0
aI2
aI0
aa(lp1641
I2
aI2
aI4
aI2
aI0
aI0
aI0
aI0
aI0
aa(lp1642
I11
aI4
aI6
aI11
aI1
aI0
aI0
aI2
aI0
aa(lp1643
I3
aI3
aI4
aI3
aI0
aI0
aI0
aI0
aI1
aa(lp1644
I12
aI8
aI6
aI12
aI1
aI0
aI0
aI1
aI1
aa(lp1645
I9
aI6
aI6
aI9
aI1
aI0
aI0
aI1
aI1
aa(lp1646
I16
aI9
aI6
aI16
aI2
aI0
aI0
aI2
aI1
aa(lp1647
I6
aI3
aI6
aI6
aI0
aI0
aI0
aI1
aI0
aa(lp1648
I7
aI3
aI6
aI7
aI1
aI0
aI0
aI1
aI0
aa(lp1649
I6
aI3
aI6
aI6
aI0
aI0
aI0
aI1
aI0
aa(lp1650
I12
aI6
aI6
aI12
aI0
aI0
aI0
aI2
aI0
aa(lp1651
I3
aI3
aI4
aI3
aI0
aI0
aI0
aI0
aI1
aa(lp1652
I18
aI8
aI6
aI18
aI0
aI0
aI0
aI3
aI0
aa(lp1653
I6
aI3
aI6
aI6
aI0
aI0
aI0
aI1
aI0
aa(lp1654
I0
aI1
aI2
aI0
aI0
aI0
aI0
aI0
aI0
aa(lp1655
I2
aI2
aI4
aI2
aI0
aI0
aI0
aI0
aI0
aa(lp1656
I17
aI9
aI6
aI17
aI2
aI0
aI0
aI2
aI1
aa(lp1657
I6
aI3
aI6
aI6
aI0
aI0
aI0
aI1
aI0
aa(lp1658
I3
aI3
aI4
aI3
aI0
aI0
aI0
aI0
aI1
aa(lp1659
I3
aI3
aI4
aI3
aI0
aI0
aI0
aI0
aI1
aa(lp1660
I9
aI6
aI6
aI9
aI1
aI0
aI0
aI1
aI1
aa(lp1661
I10
aI7
aI6
aI10
aI1
aI0
aI0
aI1
aI1
aa(lp1662
I13
aI7
aI6
aI13
aI1
aI0
aI0
aI2
aI1
aa(lp1663
I12
aI7
aI6
aI12
aI1
aI0
aI0
aI2
aI1
aa(lp1664
I3
aI3
aI4
aI3
aI0
aI0
aI0
aI0
aI1
aa(lp1665
I13
aI5
aI6
aI13
aI1
aI0
aI0
aI3
aI0
aa(lp1666
I2
aI2
aI4
aI2
aI0
aI0
aI0
aI0
aI0
aa(lp1667
I3
aI3
aI4
aI3
aI0
aI0
aI0
aI0
aI1
aa(lp1668
I12
aI4
aI6
aI12
aI2
aI0
aI0
aI2
aI0
aa(lp1669
I6
aI5
aI6
aI6
aI0
aI1
aI0
aI1
aI0
aa(lp1670
I3
aI3
aI4
aI3
aI0
aI0
aI0
aI0
aI1
aa(lp1671
I11
aI6
aI6
aI11
aI1
aI1
aI0
aI2
aI0
aa(lp1672
I17
aI9
aI6
aI17
aI2
aI0
aI0
aI2
aI1
aa(lp1673
I2
aI2
aI4
aI2
aI0
aI0
aI0
aI0
aI0
aa(lp1674
I6
aI3
aI6
aI6
aI0
aI0
aI0
aI1
aI0
aa(lp1675
I19
aI10
aI6
aI19
aI2
aI0
aI0
aI2
aI1
aa(lp1676
I10
aI6
aI6
aI10
aI1
aI0
aI0
aI1
aI1
aa(lp1677
I3
aI3
aI4
aI3
aI0
aI0
aI0
aI0
aI1
aa(lp1678
I9
aI4
aI6
aI9
aI1
aI0
aI0
aI1
aI0
aa(lp1679
I10
aI4
aI6
aI10
aI1
aI0
aI0
aI2
aI0
aa(lp1680
I0
aI1
aI2
aI0
aI0
aI0
aI0
aI0
aI0
aa(lp1681
I3
aI3
aI4
aI3
aI0
aI0
aI0
aI0
aI1
aa(lp1682
I6
aI5
aI6
aI6
aI0
aI1
aI0
aI1
aI0
aa(lp1683
I2
aI2
aI4
aI2
aI0
aI0
aI0
aI0
aI0
aa(lp1684
I16
aI7
aI6
aI16
aI2
aI0
aI0
aI2
aI0
aa(lp1685
I3
aI3
aI4
aI3
aI0
aI0
aI0
aI0
aI1
aa(lp1686
I10
aI4
aI6
aI10
aI1
aI0
aI0
aI2
aI0
aa(lp1687
I3
aI3
aI4
aI3
aI0
aI0
aI0
aI0
aI1
aa(lp1688
I6
aI3
aI6
aI6
aI0
aI0
aI0
aI1
aI0
aa(lp1689
I13
aI8
aI6
aI13
aI1
aI0
aI0
aI2
aI1
aa(lp1690
I9
aI4
aI6
aI9
aI1
aI0
aI0
aI1
aI0
aa(lp1691
I22
aI12
aI6
aI22
aI2
aI0
aI0
aI3
aI1
aa(lp1692
I2
aI2
aI4
aI2
aI0
aI0
aI0
aI0
aI0
aa(lp1693
I16
aI9
aI6
aI16
aI2
aI0
aI0
aI2
aI1
aa(lp1694
I9
aI4
aI6
aI9
aI1
aI0
aI0
aI1
aI0
aa(lp1695
I7
aI7
aI6
aI7
aI0
aI0
aI0
aI1
aI1
aa(lp1696
I11
aI9
aI6
aI11
aI0
aI0
aI0
aI1
aI2
aa(lp1697
I25
aI14
aI6
aI25
aI1
aI0
aI0
aI4
aI1
aa(lp1698
I5
aI5
aI4
aI5
aI0
aI0
aI0
aI0
aI1
aa(lp1699
I15
aI7
aI6
aI15
aI2
aI0
aI0
aI2
aI1
aa(lp1700
I24
aI9
aI6
aI24
aI1
aI1
aI0
aI5
aI0
aa(lp1701
I3
aI3
aI4
aI3
aI0
aI0
aI0
aI0
aI1
aa(lp1702
I9
aI6
aI6
aI9
aI1
aI0
aI0
aI1
aI1
aa(lp1703
I12
aI4
aI6
aI12
aI2
aI0
aI0
aI2
aI0
aa(lp1704
I7
aI4
aI6
aI7
aI1
aI0
aI0
aI1
aI0
aa(lp1705
I10
aI4
aI6
aI10
aI1
aI1
aI0
aI2
aI0
aa(lp1706
I2
aI2
aI4
aI2
aI0
aI0
aI0
aI0
aI0
aa(lp1707
I16
aI9
aI6
aI16
aI1
aI0
aI0
aI2
aI1
aa(lp1708
I18
aI10
aI6
aI18
aI1
aI0
aI0
aI3
aI1
aa(lp1709
I26
aI13
aI6
aI26
aI1
aI0
aI0
aI4
aI1
aa(lp1710
I16
aI9
aI6
aI16
aI1
aI0
aI0
aI2
aI1
aa(lp1711
I12
aI7
aI6
aI12
aI0
aI0
aI0
aI2
aI1
aa(lp1712
I7
aI6
aI6
aI7
aI0
aI0
aI0
aI1
aI1
aa(lp1713
I10
aI6
aI6
aI10
aI1
aI0
aI0
aI1
aI1
aa(lp1714
I2
aI2
aI4
aI2
aI0
aI0
aI0
aI0
aI0
aa(lp1715
I2
aI2
aI4
aI2
aI0
aI0
aI0
aI0
aI0
aa(lp1716
I9
aI6
aI6
aI9
aI0
aI0
aI0
aI1
aI1
aa(lp1717
I16
aI8
aI6
aI16
aI0
aI0
aI0
aI3
aI1
aa(lp1718
I7
aI3
aI6
aI7
aI1
aI0
aI0
aI1
aI0
aa(lp1719
I2
aI2
aI4
aI2
aI0
aI0
aI0
aI0
aI0
aa(lp1720
I13
aI6
aI6
aI13
aI1
aI0
aI0
aI2
aI0
aa(lp1721
I13
aI9
aI6
aI13
aI0
aI0
aI0
aI2
aI0
aa(lp1722
I12
aI7
aI6
aI12
aI0
aI0
aI0
aI2
aI1
aa(lp1723
I9
aI4
aI6
aI9
aI1
aI0
aI0
aI1
aI0
aa(lp1724
I5
aI5
aI4
aI5
aI0
aI0
aI0
aI0
aI1
aa(lp1725
I15
aI9
aI6
aI15
aI1
aI0
aI0
aI2
aI1
aa(lp1726
I18
aI10
aI6
aI18
aI0
aI0
aI0
aI3
aI1
aa(lp1727
I2
aI2
aI4
aI2
aI0
aI0
aI0
aI0
aI0
aa(lp1728
I17
aI9
aI6
aI17
aI2
aI0
aI0
aI2
aI1
aa(lp1729
I6
aI3
aI6
aI6
aI0
aI0
aI0
aI1
aI0
aa(lp1730
I9
aI6
aI6
aI9
aI1
aI0
aI0
aI1
aI1
aa(lp1731
I19
aI12
aI6
aI19
aI1
aI0
aI0
aI3
aI1
aa(lp1732
I13
aI7
aI6
aI13
aI0
aI0
aI0
aI2
aI1
aa(lp1733
I18
aI8
aI6
aI18
aI0
aI0
aI0
aI3
aI0
aa(lp1734
I13
aI7
aI6
aI13
aI0
aI0
aI0
aI2
aI1
aa(lp1735
I6
aI3
aI6
aI6
aI0
aI0
aI0
aI1
aI0
aa(lp1736
I10
aI4
aI6
aI10
aI1
aI0
aI0
aI2
aI0
aa(lp1737
I20
aI10
aI6
aI20
aI2
aI0
aI0
aI3
aI1
aa(lp1738
I2
aI2
aI4
aI2
aI0
aI0
aI0
aI0
aI0
aa(lp1739
I16
aI7
aI6
aI16
aI2
aI0
aI0
aI2
aI0
aa(lp1740
I22
aI12
aI6
aI22
aI1
aI0
aI0
aI3
aI1
aa(lp1741
I9
aI6
aI6
aI9
aI0
aI0
aI0
aI1
aI1
aa(lp1742
I20
aI10
aI6
aI20
aI2
aI0
aI0
aI3
aI1
aa(lp1743
I3
aI3
aI4
aI3
aI0
aI0
aI0
aI0
aI1
aa(lp1744
I9
aI4
aI6
aI9
aI1
aI0
aI0
aI1
aI0
aa(lp1745
I14
aI6
aI6
aI14
aI2
aI0
aI0
aI2
aI0
aa(lp1746
I2
aI2
aI4
aI2
aI0
aI0
aI0
aI0
aI0
aa(lp1747
I15
aI8
aI6
aI15
aI1
aI1
aI0
aI3
aI1
aa(lp1748
I24
aI11
aI6
aI24
aI2
aI0
aI0
aI4
aI0
aa(lp1749
I5
aI3
aI6
aI5
aI0
aI0
aI0
aI1
aI0
aa(lp1750
I9
aI8
aI6
aI9
aI0
aI0
aI0
aI1
aI1
aa(lp1751
I9
aI4
aI6
aI9
aI1
aI0
aI0
aI1
aI0
aa(lp1752
I2
aI2
aI4
aI2
aI0
aI0
aI0
aI0
aI0
aa(lp1753
I7
aI3
aI6
aI7
aI1
aI0
aI0
aI1
aI0
aa(lp1754
I16
aI7
aI6
aI16
aI2
aI0
aI0
aI2
aI0
aa(lp1755
I9
aI6
aI6
aI9
aI1
aI0
aI0
aI1
aI1
aa(lp1756
I9
aI6
aI6
aI9
aI1
aI0
aI0
aI1
aI1
aa(lp1757
I3
aI3
aI4
aI3
aI0
aI0
aI0
aI0
aI1
aa(lp1758
I2
aI2
aI4
aI2
aI0
aI0
aI0
aI0
aI0
aa(lp1759
I8
aI5
aI6
aI8
aI1
aI0
aI0
aI1
aI0
aa(lp1760
I9
aI6
aI6
aI9
aI1
aI0
aI0
aI1
aI1
aa(lp1761
I9
aI4
aI6
aI9
aI1
aI0
aI0
aI1
aI0
aa(lp1762
I2
aI2
aI4
aI2
aI0
aI0
aI0
aI0
aI0
aa(lp1763
I9
aI6
aI6
aI9
aI1
aI0
aI0
aI1
aI1
aa(lp1764
I13
aI6
aI6
aI13
aI1
aI0
aI0
aI2
aI0
aa(lp1765
I2
aI2
aI4
aI2
aI0
aI0
aI0
aI0
aI0
aa(lp1766
I2
aI2
aI4
aI2
aI0
aI0
aI0
aI0
aI0
aa(lp1767
I16
aI5
aI6
aI16
aI2
aI0
aI0
aI3
aI0
aa(lp1768
I3
aI3
aI4
aI3
aI0
aI0
aI0
aI0
aI1
aa(lp1769
I13
aI6
aI6
aI13
aI1
aI0
aI0
aI2
aI0
aa(lp1770
I16
aI9
aI6
aI16
aI1
aI0
aI0
aI2
aI1
aa(lp1771
I2
aI2
aI4
aI2
aI0
aI0
aI0
aI0
aI0
aa(lp1772
I3
aI3
aI4
aI3
aI0
aI0
aI0
aI0
aI1
aa(lp1773
I3
aI3
aI4
aI3
aI0
aI0
aI0
aI0
aI1
aa(lp1774
I2
aI2
aI4
aI2
aI0
aI0
aI0
aI0
aI0
aa(lp1775
I7
aI3
aI6
aI7
aI1
aI0
aI0
aI1
aI0
aa(lp1776
I5
aI3
aI6
aI5
aI0
aI0
aI0
aI1
aI0
aa(lp1777
I12
aI7
aI6
aI12
aI1
aI0
aI0
aI2
aI1
aa(lp1778
I2
aI2
aI4
aI2
aI0
aI0
aI0
aI0
aI0
aa(lp1779
I6
aI3
aI6
aI6
aI0
aI0
aI0
aI1
aI0
aa(lp1780
I7
aI3
aI6
aI7
aI1
aI0
aI0
aI1
aI0
aa(lp1781
I2
aI2
aI4
aI2
aI0
aI0
aI0
aI0
aI0
aa(lp1782
I11
aI8
aI6
aI11
aI0
aI0
aI0
aI2
aI0
aa(lp1783
I9
aI6
aI6
aI9
aI0
aI0
aI0
aI1
aI1
aa(lp1784
I3
aI3
aI4
aI3
aI0
aI0
aI0
aI0
aI1
aa(lp1785
I8
aI6
aI6
aI8
aI0
aI0
aI0
aI1
aI1
aa(lp1786
I2
aI2
aI4
aI2
aI0
aI0
aI0
aI0
aI0
aa(lp1787
I25
aI13
aI6
aI25
aI0
aI0
aI0
aI4
aI1
aa(lp1788
I16
aI9
aI6
aI16
aI1
aI0
aI0
aI2
aI1
aa(lp1789
I19
aI10
aI6
aI19
aI1
aI0
aI0
aI3
aI1
aa(lp1790
I5
aI3
aI6
aI5
aI0
aI0
aI0
aI1
aI0
aa(lp1791
I3
aI3
aI4
aI3
aI0
aI0
aI0
aI0
aI1
aa(lp1792
I3
aI3
aI4
aI3
aI0
aI0
aI0
aI0
aI1
aa(lp1793
I12
aI7
aI6
aI12
aI0
aI0
aI0
aI2
aI1
aa(lp1794
I0
aI1
aI2
aI0
aI0
aI0
aI0
aI0
aI0
aa(lp1795
I2
aI2
aI4
aI2
aI0
aI0
aI0
aI0
aI0
aa(lp1796
I7
aI3
aI6
aI7
aI1
aI0
aI0
aI1
aI0
aa(lp1797
I3
aI3
aI4
aI3
aI0
aI0
aI0
aI0
aI1
aa(lp1798
I3
aI3
aI4
aI3
aI0
aI0
aI0
aI0
aI1
aa(lp1799
I3
aI3
aI4
aI3
aI0
aI0
aI0
aI0
aI1
aa(lp1800
I7
aI6
aI6
aI7
aI0
aI0
aI0
aI1
aI1
aa(lp1801
I5
aI3
aI6
aI5
aI0
aI0
aI0
aI1
aI0
aa(lp1802
I12
aI7
aI6
aI12
aI1
aI0
aI0
aI2
aI1
aa(lp1803
I11
aI8
aI6
aI11
aI0
aI0
aI0
aI1
aI1
aa(lp1804
I3
aI3
aI4
aI3
aI0
aI0
aI0
aI0
aI1
aa(lp1805
I8
aI5
aI6
aI8
aI0
aI0
aI0
aI1
aI0
aa(lp1806
I10
aI6
aI6
aI10
aI1
aI0
aI0
aI1
aI1
aa(lp1807
I5
aI5
aI4
aI5
aI0
aI0
aI0
aI0
aI1
aa(lp1808
I12
aI7
aI6
aI12
aI1
aI0
aI0
aI2
aI1
aa(lp1809
I5
aI5
aI4
aI5
aI0
aI0
aI0
aI0
aI1
aa(lp1810
I26
aI11
aI6
aI26
aI1
aI1
aI0
aI5
aI0
aa(lp1811
I6
aI3
aI6
aI6
aI0
aI0
aI0
aI1
aI0
aa(lp1812
I0
aI0
aI1
aI0
aI0
aI0
aI0
aI0
aI0
aa(lp1813
I9
aI4
aI6
aI9
aI1
aI0
aI0
aI1
aI0
aa(lp1814
I2
aI2
aI4
aI2
aI0
aI0
aI0
aI0
aI0
aa(lp1815
I3
aI3
aI4
aI3
aI0
aI0
aI0
aI0
aI1
aa(lp1816
I14
aI7
aI6
aI14
aI1
aI0
aI0
aI2
aI1
aa(lp1817
I11
aI9
aI6
aI11
aI0
aI0
aI0
aI1
aI2
aa(lp1818
I10
aI6
aI6
aI10
aI1
aI0
aI0
aI1
aI1
aa(lp1819
I9
aI6
aI6
aI9
aI0
aI0
aI0
aI1
aI1
aa(lp1820
I16
aI9
aI6
aI16
aI1
aI0
aI0
aI2
aI1
aa(lp1821
I2
aI2
aI4
aI2
aI0
aI0
aI0
aI0
aI0
aa(lp1822
I9
aI4
aI6
aI9
aI1
aI0
aI0
aI1
aI0
aa(lp1823
I8
aI6
aI6
aI8
aI0
aI0
aI0
aI1
aI1
aa(lp1824
I2
aI2
aI4
aI2
aI0
aI0
aI0
aI0
aI0
aa(lp1825
I13
aI9
aI6
aI13
aI0
aI0
aI0
aI2
aI0
aa(lp1826
I18
aI10
aI6
aI18
aI0
aI0
aI0
aI3
aI0
aa(lp1827
I3
aI3
aI4
aI3
aI0
aI0
aI0
aI0
aI1
aa(lp1828
I13
aI7
aI6
aI13
aI1
aI0
aI0
aI2
aI1
aa(lp1829
I6
aI3
aI6
aI6
aI0
aI0
aI0
aI1
aI0
aa(lp1830
I16
aI9
aI6
aI16
aI2
aI0
aI0
aI2
aI1
aa(lp1831
I13
aI7
aI6
aI13
aI0
aI0
aI0
aI2
aI1
aa(lp1832
I6
aI3
aI6
aI6
aI0
aI0
aI0
aI1
aI0
aa(lp1833
I8
aI4
aI6
aI8
aI0
aI0
aI0
aI1
aI0
aa(lp1834
I24
aI11
aI6
aI24
aI2
aI0
aI0
aI4
aI0
aa(lp1835
I10
aI6
aI6
aI10
aI1
aI0
aI0
aI1
aI1
aa(lp1836
I9
aI6
aI6
aI9
aI0
aI0
aI0
aI1
aI1
aa(lp1837
I3
aI3
aI4
aI3
aI0
aI0
aI0
aI0
aI1
aa(lp1838
I6
aI3
aI6
aI6
aI0
aI0
aI0
aI1
aI0
aa(lp1839
I9
aI4
aI6
aI9
aI1
aI0
aI0
aI1
aI0
aa(lp1840
I3
aI3
aI4
aI3
aI0
aI0
aI0
aI0
aI1
aa(lp1841
I2
aI2
aI4
aI2
aI0
aI0
aI0
aI0
aI0
aa(lp1842
I5
aI3
aI6
aI5
aI0
aI0
aI0
aI1
aI0
aa(lp1843
I14
aI6
aI6
aI14
aI2
aI0
aI0
aI2
aI0
aa(lp1844
I2
aI2
aI4
aI2
aI0
aI0
aI0
aI0
aI0
aa(lp1845
I3
aI3
aI4
aI3
aI0
aI0
aI0
aI0
aI1
aa(lp1846
I5
aI5
aI4
aI5
aI0
aI0
aI0
aI0
aI1
aa(lp1847
I7
aI6
aI6
aI7
aI0
aI0
aI0
aI1
aI1
aa(lp1848
I5
aI3
aI6
aI5
aI0
aI1
aI0
aI1
aI0
aa(lp1849
I2
aI2
aI4
aI2
aI0
aI0
aI0
aI0
aI0
aa(lp1850
I2
aI2
aI4
aI2
aI0
aI0
aI0
aI0
aI0
aa(lp1851
I3
aI3
aI4
aI3
aI0
aI0
aI0
aI0
aI1
aa(lp1852
I9
aI4
aI6
aI9
aI1
aI0
aI0
aI1
aI0
aa(lp1853
I17
aI10
aI6
aI17
aI0
aI0
aI0
aI4
aI0
aa(lp1854
I2
aI2
aI4
aI2
aI0
aI0
aI0
aI0
aI0
aa(lp1855
I3
aI3
aI4
aI3
aI0
aI0
aI0
aI0
aI1
aa(lp1856
I6
aI3
aI6
aI6
aI0
aI0
aI0
aI1
aI0
aa(lp1857
I9
aI4
aI6
aI9
aI1
aI0
aI0
aI1
aI0
aa(lp1858
I2
aI2
aI4
aI2
aI0
aI0
aI0
aI0
aI0
aa(lp1859
I10
aI6
aI6
aI10
aI1
aI0
aI0
aI1
aI1
aa(lp1860
I2
aI2
aI4
aI2
aI0
aI0
aI0
aI0
aI0
aa(lp1861
I5
aI5
aI4
aI5
aI0
aI0
aI0
aI0
aI1
aa(lp1862
I2
aI2
aI4
aI2
aI0
aI0
aI0
aI0
aI0
aa(lp1863
I15
aI5
aI6
aI15
aI2
aI0
aI0
aI3
aI0
aa(lp1864
I7
aI6
aI6
aI7
aI0
aI0
aI0
aI1
aI1
aa(lp1865
I3
aI3
aI4
aI3
aI0
aI0
aI0
aI0
aI1
aa(lp1866
I6
aI3
aI6
aI6
aI0
aI0
aI0
aI1
aI0
aa(lp1867
I13
aI6
aI6
aI13
aI1
aI0
aI0
aI2
aI0
aa(lp1868
I9
aI6
aI6
aI9
aI0
aI2
aI0
aI2
aI0
aa(lp1869
I16
aI8
aI6
aI16
aI0
aI0
aI0
aI3
aI1
aa(lp1870
I12
aI7
aI6
aI12
aI1
aI0
aI0
aI2
aI1
aa(lp1871
I3
aI3
aI4
aI3
aI0
aI0
aI0
aI0
aI1
aa(lp1872
I12
aI4
aI6
aI12
aI2
aI0
aI0
aI2
aI0
aa(lp1873
I14
aI9
aI6
aI14
aI0
aI0
aI0
aI2
aI1
aa(lp1874
I13
aI6
aI6
aI13
aI1
aI0
aI0
aI2
aI0
aa(lp1875
I0
aI0
aI1
aI0
aI0
aI0
aI0
aI0
aI0
aa(lp1876
I3
aI3
aI4
aI3
aI0
aI0
aI0
aI0
aI1
aa(lp1877
I18
aI8
aI6
aI18
aI0
aI0
aI0
aI3
aI0
aa(lp1878
I9
aI4
aI6
aI9
aI1
aI0
aI0
aI1
aI0
aa(lp1879
I14
aI6
aI6
aI14
aI2
aI0
aI0
aI2
aI0
aa(lp1880
I9
aI6
aI6
aI9
aI0
aI0
aI0
aI1
aI1
aa(lp1881
I30
aI16
aI6
aI30
aI1
aI1
aI0
aI5
aI1
aa(lp1882
I3
aI3
aI4
aI3
aI0
aI0
aI0
aI0
aI1
aa(lp1883
I3
aI3
aI4
aI3
aI0
aI0
aI0
aI0
aI1
aa(lp1884
I6
aI3
aI6
aI6
aI0
aI0
aI0
aI1
aI0
aa(lp1885
I5
aI3
aI6
aI5
aI0
aI0
aI0
aI1
aI0
aa(lp1886
I3
aI3
aI4
aI3
aI0
aI0
aI0
aI0
aI1
aa(lp1887
I9
aI6
aI6
aI9
aI1
aI0
aI0
aI1
aI1
aa(lp1888
I3
aI3
aI4
aI3
aI0
aI0
aI0
aI0
aI1
aa(lp1889
I3
aI3
aI4
aI3
aI0
aI0
aI0
aI0
aI1
aa(lp1890
I5
aI3
aI6
aI5
aI0
aI0
aI0
aI1
aI0
aa(lp1891
I10
aI6
aI6
aI10
aI1
aI0
aI0
aI1
aI1
aa(lp1892
I7
aI4
aI6
aI7
aI1
aI0
aI0
aI1
aI0
aa(lp1893
I3
aI3
aI4
aI3
aI0
aI0
aI0
aI0
aI1
aa(lp1894
I8
aI4
aI6
aI8
aI0
aI0
aI0
aI1
aI0
aa(lp1895
I7
aI3
aI6
aI7
aI1
aI0
aI0
aI1
aI0
aa(lp1896
I20
aI10
aI6
aI20
aI2
aI0
aI0
aI3
aI1
aa(lp1897
I22
aI8
aI6
aI22
aI2
aI0
aI0
aI4
aI0
aa(lp1898
I17
aI12
aI6
aI17
aI0
aI0
aI0
aI2
aI2
aa(lp1899
I11
aI6
aI6
aI11
aI0
aI1
aI0
aI2
aI0
aa(lp1900
I8
aI4
aI6
aI8
aI0
aI0
aI0
aI1
aI0
aa(lp1901
I10
aI6
aI6
aI10
aI1
aI0
aI0
aI1
aI1
aa(lp1902
I3
aI3
aI4
aI3
aI0
aI0
aI0
aI0
aI1
aa(lp1903
I9
aI4
aI6
aI9
aI1
aI0
aI0
aI1
aI0
aa(lp1904
I7
aI3
aI6
aI7
aI1
aI0
aI0
aI1
aI0
aa(lp1905
I3
aI3
aI4
aI3
aI0
aI0
aI0
aI0
aI1
aa(lp1906
I9
aI6
aI6
aI9
aI0
aI0
aI0
aI1
aI1
aa(lp1907
I11
aI9
aI6
aI11
aI0
aI0
aI0
aI1
aI2
aa(lp1908
I2
aI2
aI4
aI2
aI0
aI0
aI0
aI0
aI0
aa(lp1909
I6
aI5
aI6
aI6
aI0
aI0
aI0
aI1
aI0
aa(lp1910
I7
aI6
aI6
aI7
aI0
aI0
aI0
aI1
aI1
aa(lp1911
I10
aI6
aI6
aI10
aI1
aI0
aI0
aI1
aI1
aa(lp1912
I12
aI7
aI6
aI12
aI1
aI0
aI0
aI2
aI1
aa(lp1913
I3
aI3
aI4
aI3
aI0
aI0
aI0
aI0
aI1
aa(lp1914
I2
aI2
aI4
aI2
aI0
aI0
aI0
aI0
aI0
aa(lp1915
I7
aI8
aI4
aI7
aI0
aI0
aI0
aI0
aI2
aa(lp1916
I6
aI3
aI6
aI6
aI0
aI0
aI0
aI1
aI0
aa(lp1917
I7
aI5
aI6
aI7
aI0
aI0
aI0
aI1
aI0
aa(lp1918
I3
aI3
aI4
aI3
aI0
aI0
aI0
aI0
aI1
aa(lp1919
I7
aI3
aI6
aI7
aI1
aI0
aI0
aI1
aI0
aa(lp1920
I7
aI3
aI6
aI7
aI1
aI0
aI0
aI1
aI0
aa(lp1921
I2
aI2
aI4
aI2
aI0
aI0
aI0
aI0
aI0
aa(lp1922
I6
aI3
aI6
aI6
aI0
aI0
aI0
aI1
aI0
aa(lp1923
I7
aI6
aI6
aI7
aI0
aI1
aI0
aI1
aI1
aa(lp1924
I16
aI8
aI6
aI16
aI0
aI0
aI0
aI3
aI1
aa(lp1925
I3
aI3
aI4
aI3
aI0
aI0
aI0
aI0
aI1
aa(lp1926
I9
aI4
aI6
aI9
aI1
aI0
aI0
aI1
aI0
aa(lp1927
I3
aI3
aI4
aI3
aI0
aI0
aI0
aI0
aI1
aa(lp1928
I3
aI3
aI4
aI3
aI0
aI0
aI0
aI0
aI1
aa(lp1929
I7
aI6
aI6
aI7
aI0
aI0
aI0
aI1
aI1
aa(lp1930
I9
aI6
aI6
aI9
aI0
aI0
aI0
aI1
aI1
aa(lp1931
I2
aI2
aI4
aI2
aI0
aI0
aI0
aI0
aI0
aa(lp1932
I9
aI4
aI6
aI9
aI1
aI0
aI0
aI1
aI0
aa(lp1933
I3
aI3
aI4
aI3
aI0
aI0
aI0
aI0
aI1
aa(lp1934
I7
aI6
aI6
aI7
aI0
aI0
aI0
aI1
aI1
aa(lp1935
I15
aI7
aI6
aI15
aI1
aI0
aI0
aI2
aI0
aa(lp1936
I3
aI3
aI4
aI3
aI0
aI0
aI0
aI0
aI1
aa(lp1937
I16
aI9
aI6
aI16
aI2
aI0
aI0
aI2
aI1
aa(lp1938
I9
aI7
aI6
aI9
aI0
aI0
aI0
aI1
aI1
aa(lp1939
I7
aI3
aI6
aI7
aI1
aI0
aI0
aI1
aI0
aa(lp1940
I9
aI6
aI6
aI9
aI0
aI0
aI0
aI1
aI1
aa(lp1941
I10
aI6
aI6
aI10
aI1
aI0
aI0
aI1
aI1
aa(lp1942
I2
aI2
aI4
aI2
aI0
aI0
aI0
aI0
aI0
aa(lp1943
I3
aI3
aI4
aI3
aI0
aI0
aI0
aI0
aI1
aa(lp1944
I7
aI3
aI6
aI7
aI1
aI0
aI0
aI1
aI0
aa(lp1945
I12
aI7
aI6
aI12
aI0
aI0
aI0
aI2
aI1
aa(lp1946
I7
aI6
aI6
aI7
aI0
aI0
aI0
aI1
aI1
aa(lp1947
I16
aI9
aI6
aI16
aI1
aI0
aI0
aI2
aI1
aa(lp1948
I3
aI3
aI4
aI3
aI0
aI0
aI0
aI0
aI1
aa(lp1949
I7
aI3
aI6
aI7
aI1
aI0
aI0
aI1
aI0
aa(lp1950
I2
aI2
aI4
aI2
aI0
aI0
aI0
aI0
aI0
aa(lp1951
I0
aI0
aI1
aI0
aI0
aI0
aI0
aI0
aI0
aa(lp1952
I6
aI3
aI6
aI6
aI0
aI0
aI0
aI1
aI0
aa(lp1953
I16
aI9
aI6
aI16
aI2
aI0
aI0
aI2
aI1
aa(lp1954
I0
aI1
aI2
aI0
aI0
aI0
aI0
aI0
aI0
aa(lp1955
I3
aI3
aI4
aI3
aI0
aI0
aI0
aI0
aI1
aa(lp1956
I2
aI2
aI4
aI2
aI0
aI0
aI0
aI0
aI0
aa(lp1957
I3
aI3
aI4
aI3
aI0
aI0
aI0
aI0
aI1
aa(lp1958
I8
aI6
aI6
aI8
aI0
aI0
aI0
aI1
aI1
aa(lp1959
I10
aI6
aI6
aI10
aI1
aI0
aI0
aI1
aI1
aa(lp1960
I12
aI6
aI6
aI12
aI0
aI0
aI0
aI2
aI0
aa(lp1961
I2
aI2
aI4
aI2
aI0
aI0
aI0
aI0
aI0
aa(lp1962
I2
aI2
aI4
aI2
aI0
aI0
aI0
aI0
aI0
aa(lp1963
I9
aI6
aI6
aI9
aI0
aI0
aI0
aI1
aI1
aa(lp1964
I6
aI3
aI6
aI6
aI0
aI0
aI0
aI1
aI0
aa(lp1965
I2
aI2
aI4
aI2
aI0
aI0
aI0
aI0
aI0
aa(lp1966
I3
aI3
aI4
aI3
aI0
aI0
aI0
aI0
aI1
aa(lp1967
I5
aI4
aI6
aI5
aI0
aI0
aI0
aI1
aI0
aa(lp1968
I5
aI5
aI4
aI5
aI0
aI0
aI0
aI0
aI1
aa(lp1969
I7
aI3
aI6
aI7
aI1
aI0
aI0
aI1
aI0
aa(lp1970
I8
aI6
aI6
aI8
aI0
aI0
aI0
aI1
aI1
aa(lp1971
I15
aI11
aI6
aI15
aI1
aI0
aI0
aI1
aI2
aa(lp1972
I6
aI3
aI6
aI6
aI0
aI0
aI0
aI1
aI0
aa(lp1973
I2
aI2
aI4
aI2
aI0
aI0
aI0
aI0
aI0
aa(lp1974
I15
aI9
aI6
aI15
aI0
aI0
aI0
aI2
aI1
aa(lp1975
I6
aI5
aI6
aI6
aI0
aI0
aI0
aI1
aI0
aa(lp1976
I6
aI3
aI6
aI6
aI0
aI0
aI0
aI1
aI0
aa(lp1977
I0
aI0
aI1
aI0
aI0
aI0
aI0
aI0
aI0
aa(lp1978
I8
aI6
aI6
aI8
aI0
aI0
aI0
aI1
aI1
aa(lp1979
I5
aI5
aI4
aI5
aI0
aI0
aI0
aI0
aI1
aa(lp1980
I2
aI2
aI4
aI2
aI0
aI0
aI0
aI0
aI0
aa(lp1981
I0
aI1
aI2
aI0
aI0
aI0
aI0
aI0
aI0
aa(lp1982
I2
aI2
aI4
aI2
aI0
aI0
aI0
aI0
aI0
aa(lp1983
I10
aI6
aI6
aI10
aI1
aI0
aI0
aI1
aI1
aa(lp1984
I5
aI3
aI6
aI5
aI0
aI1
aI0
aI1
aI0
aa(lp1985
I12
aI6
aI6
aI12
aI0
aI0
aI0
aI2
aI0
aa(lp1986
I3
aI3
aI4
aI3
aI0
aI0
aI0
aI0
aI1
aa(lp1987
I22
aI15
aI6
aI22
aI0
aI0
aI0
aI3
aI2
aa(lp1988
I5
aI5
aI4
aI5
aI0
aI0
aI0
aI0
aI1
aa(lp1989
I8
aI6
aI6
aI8
aI0
aI0
aI0
aI1
aI1
aa(lp1990
I8
aI6
aI6
aI8
aI0
aI0
aI0
aI1
aI1
aa(lp1991
I7
aI3
aI6
aI7
aI1
aI0
aI0
aI1
aI0
aa(lp1992
I5
aI5
aI4
aI5
aI0
aI0
aI0
aI0
aI1
aa(lp1993
I5
aI3
aI6
aI5
aI0
aI1
aI0
aI1
aI0
aa(lp1994
I10
aI6
aI6
aI10
aI1
aI0
aI0
aI1
aI1
aa(lp1995
I3
aI3
aI4
aI3
aI0
aI0
aI0
aI0
aI1
aa(lp1996
I2
aI2
aI4
aI2
aI0
aI0
aI0
aI0
aI0
aa(lp1997
I5
aI5
aI4
aI5
aI0
aI0
aI0
aI0
aI1
aa(lp1998
I3
aI3
aI4
aI3
aI0
aI0
aI0
aI0
aI1
aa(lp1999
I10
aI6
aI6
aI10
aI1
aI0
aI0
aI1
aI1
aa(lp2000
I2
aI2
aI4
aI2
aI0
aI0
aI0
aI0
aI0
aa(lp2001
I10
aI6
aI6
aI10
aI1
aI0
aI0
aI1
aI1
aa(lp2002
I9
aI4
aI6
aI9
aI1
aI0
aI0
aI1
aI0
aa(lp2003
I3
aI3
aI4
aI3
aI0
aI0
aI0
aI0
aI1
aa(lp2004
I22
aI11
aI6
aI22
aI2
aI0
aI0
aI3
aI1
aa(lp2005
I14
aI9
aI6
aI14
aI0
aI0
aI0
aI2
aI1
aa(lp2006
I8
aI6
aI6
aI8
aI0
aI0
aI0
aI1
aI1
aa(lp2007
I7
aI3
aI6
aI7
aI1
aI0
aI0
aI1
aI0
aa(lp2008
I12
aI6
aI6
aI12
aI0
aI0
aI0
aI2
aI0
aa(lp2009
I14
aI11
aI6
aI14
aI0
aI0
aI0
aI1
aI2
aa(lp2010
I3
aI3
aI4
aI3
aI0
aI0
aI0
aI0
aI1
aa(lp2011
I19
aI12
aI6
aI19
aI1
aI0
aI0
aI3
aI1
aa(lp2012
I2
aI2
aI4
aI2
aI0
aI0
aI0
aI0
aI0
aa(lp2013
I10
aI6
aI6
aI10
aI1
aI0
aI0
aI1
aI1
aa(lp2014
I0
aI1
aI2
aI0
aI0
aI0
aI0
aI0
aI0
aa(lp2015
I2
aI2
aI4
aI2
aI0
aI0
aI0
aI0
aI0
aa(lp2016
I2
aI2
aI4
aI2
aI0
aI0
aI0
aI0
aI0
aa(lp2017
I5
aI3
aI6
aI5
aI0
aI0
aI0
aI1
aI0
aa(lp2018
I9
aI6
aI6
aI9
aI0
aI0
aI0
aI1
aI1
aa(lp2019
I8
aI4
aI6
aI8
aI0
aI0
aI0
aI1
aI0
aa(lp2020
I2
aI2
aI4
aI2
aI0
aI0
aI0
aI0
aI0
aa(lp2021
I0
aI1
aI2
aI0
aI0
aI0
aI0
aI0
aI0
aa(lp2022
I11
aI8
aI6
aI11
aI0
aI0
aI0
aI2
aI0
aa(lp2023
I6
aI3
aI6
aI6
aI0
aI0
aI0
aI1
aI0
aa(lp2024
I3
aI3
aI4
aI3
aI0
aI0
aI0
aI0
aI1
aa(lp2025
I5
aI5
aI4
aI5
aI0
aI0
aI0
aI0
aI1
aa(lp2026
I7
aI6
aI6
aI7
aI0
aI0
aI0
aI1
aI1
aa(lp2027
I8
aI4
aI6
aI8
aI0
aI0
aI0
aI2
aI0
aa(lp2028
I7
aI6
aI6
aI7
aI0
aI1
aI0
aI1
aI1
aa(lp2029
I11
aI6
aI6
aI11
aI0
aI0
aI0
aI2
aI0
aa(lp2030
I8
aI4
aI6
aI8
aI0
aI0
aI0
aI1
aI0
aa(lp2031
I14
aI7
aI6
aI14
aI0
aI0
aI0
aI2
aI0
aa(lp2032
I3
aI3
aI4
aI3
aI0
aI0
aI0
aI0
aI1
aa(lp2033
I9
aI6
aI6
aI9
aI0
aI0
aI0
aI1
aI1
aa(lp2034
I16
aI9
aI6
aI16
aI2
aI0
aI0
aI2
aI1
aa(lp2035
I6
aI12
aI4
aI6
aI0
aI0
aI0
aI0
aI3
aa(lp2036
I17
aI9
aI6
aI17
aI2
aI0
aI0
aI2
aI1
aa(lp2037
I6
aI3
aI6
aI6
aI0
aI0
aI0
aI1
aI0
aa(lp2038
I9
aI6
aI6
aI9
aI0
aI0
aI0
aI1
aI1
aa(lp2039
I9
aI4
aI6
aI9
aI1
aI0
aI0
aI1
aI0
aa(lp2040
I6
aI5
aI6
aI6
aI0
aI0
aI0
aI1
aI0
aa(lp2041
I2
aI2
aI4
aI2
aI0
aI0
aI0
aI0
aI0
aa(lp2042
I7
aI3
aI6
aI7
aI1
aI0
aI0
aI1
aI0
aa(lp2043
I9
aI6
aI6
aI9
aI0
aI0
aI0
aI1
aI1
aa(lp2044
I3
aI3
aI4
aI3
aI0
aI0
aI0
aI0
aI1
aa(lp2045
I7
aI3
aI6
aI7
aI1
aI0
aI0
aI1
aI0
aa(lp2046
I2
aI2
aI4
aI2
aI0
aI0
aI0
aI0
aI0
aa(lp2047
I12
aI7
aI6
aI12
aI1
aI0
aI0
aI2
aI1
aa(lp2048
I3
aI3
aI4
aI3
aI0
aI0
aI0
aI0
aI1
aa(lp2049
I18
aI10
aI6
aI18
aI0
aI0
aI0
aI3
aI0
aa(lp2050
I3
aI3
aI4
aI3
aI0
aI0
aI0
aI0
aI1
aa(lp2051
I3
aI3
aI4
aI3
aI0
aI0
aI0
aI0
aI1
aa(lp2052
I16
aI8
aI6
aI16
aI0
aI0
aI0
aI3
aI1
aa(lp2053
I14
aI7
aI6
aI14
aI2
aI0
aI0
aI2
aI0
aa(lp2054
I9
aI4
aI6
aI9
aI1
aI0
aI0
aI1
aI0
aa(lp2055
I21
aI10
aI6
aI21
aI1
aI0
aI0
aI4
aI0
aa(lp2056
I10
aI6
aI6
aI10
aI1
aI0
aI0
aI1
aI1
aa(lp2057
I5
aI3
aI6
aI5
aI0
aI0
aI0
aI1
aI0
aa(lp2058
I13
aI7
aI6
aI13
aI0
aI0
aI0
aI2
aI1
aa(lp2059
I3
aI3
aI4
aI3
aI0
aI0
aI0
aI0
aI1
aa(lp2060
I9
aI6
aI6
aI9
aI1
aI0
aI0
aI1
aI1
aa(lp2061
I10
aI6
aI6
aI10
aI1
aI0
aI0
aI1
aI1
aa(lp2062
I18
aI11
aI6
aI18
aI1
aI0
aI0
aI2
aI1
aa(lp2063
I2
aI2
aI4
aI2
aI0
aI0
aI0
aI0
aI0
aa(lp2064
I3
aI4
aI4
aI3
aI0
aI0
aI0
aI0
aI1
aa(lp2065
I14
aI5
aI6
aI14
aI0
aI0
aI0
aI3
aI0
aa(lp2066
I2
aI2
aI4
aI2
aI0
aI0
aI0
aI0
aI0
aa(lp2067
I12
aI7
aI6
aI12
aI1
aI0
aI0
aI2
aI1
aa(lp2068
I8
aI4
aI6
aI8
aI0
aI0
aI0
aI1
aI0
aa(lp2069
I3
aI3
aI4
aI3
aI0
aI0
aI0
aI0
aI1
aa(lp2070
I2
aI2
aI4
aI2
aI0
aI0
aI0
aI0
aI0
aa(lp2071
I6
aI3
aI6
aI6
aI0
aI0
aI0
aI1
aI0
aa(lp2072
I7
aI3
aI6
aI7
aI1
aI0
aI0
aI1
aI0
aa(lp2073
I10
aI6
aI6
aI10
aI1
aI0
aI0
aI1
aI1
aa(lp2074
I6
aI5
aI6
aI6
aI0
aI1
aI0
aI1
aI0
aa(lp2075
I16
aI9
aI6
aI16
aI1
aI0
aI0
aI2
aI1
aa(lp2076
I7
aI3
aI6
aI7
aI1
aI0
aI0
aI1
aI0
aa(lp2077
I0
aI1
aI2
aI0
aI0
aI0
aI0
aI0
aI0
aa(lp2078
I2
aI2
aI4
aI2
aI0
aI0
aI0
aI0
aI0
aa(lp2079
I3
aI3
aI4
aI3
aI0
aI0
aI0
aI0
aI1
aa(lp2080
I2
aI2
aI4
aI2
aI0
aI0
aI0
aI0
aI0
aa(lp2081
I21
aI10
aI6
aI21
aI1
aI0
aI0
aI4
aI0
aa(lp2082
I2
aI2
aI4
aI2
aI0
aI0
aI0
aI0
aI0
aa(lp2083
I9
aI4
aI6
aI9
aI1
aI0
aI0
aI1
aI0
aa(lp2084
I12
aI7
aI6
aI12
aI1
aI0
aI0
aI2
aI1
aa(lp2085
I6
aI3
aI6
aI6
aI0
aI0
aI0
aI1
aI0
aa(lp2086
I22
aI18
aI6
aI22
aI0
aI0
aI0
aI3
aI3
aa(lp2087
I2
aI2
aI4
aI2
aI0
aI0
aI0
aI0
aI0
aa(lp2088
I6
aI6
aI4
aI6
aI0
aI0
aI0
aI0
aI2
aa(lp2089
I11
aI7
aI6
aI11
aI0
aI2
aI0
aI2
aI0
aa(lp2090
I2
aI2
aI4
aI2
aI0
aI0
aI0
aI0
aI0
aa(lp2091
I19
aI10
aI6
aI19
aI1
aI0
aI0
aI3
aI0
aa(lp2092
I9
aI4
aI6
aI9
aI1
aI0
aI0
aI1
aI0
aa(lp2093
I9
aI6
aI6
aI9
aI0
aI0
aI0
aI1
aI1
aa(lp2094
I5
aI3
aI6
aI5
aI0
aI0
aI0
aI1
aI0
aa(lp2095
I3
aI3
aI4
aI3
aI0
aI0
aI0
aI0
aI1
aa(lp2096
I0
aI1
aI2
aI0
aI0
aI0
aI0
aI0
aI0
aa(lp2097
I2
aI2
aI4
aI2
aI0
aI0
aI0
aI0
aI0
aa(lp2098
I7
aI3
aI6
aI7
aI1
aI0
aI0
aI1
aI0
aa(lp2099
I2
aI2
aI4
aI2
aI0
aI0
aI0
aI0
aI0
aa(lp2100
I6
aI5
aI6
aI6
aI0
aI0
aI0
aI1
aI0
aa(lp2101
I23
aI11
aI6
aI23
aI1
aI0
aI0
aI5
aI0
aa(lp2102
I3
aI3
aI4
aI3
aI0
aI0
aI0
aI0
aI1
aa(lp2103
I9
aI6
aI6
aI9
aI0
aI0
aI0
aI1
aI1
aa(lp2104
I2
aI2
aI4
aI2
aI0
aI0
aI0
aI0
aI0
aa(lp2105
I13
aI6
aI6
aI13
aI2
aI0
aI0
aI2
aI0
aa(lp2106
I9
aI6
aI6
aI9
aI0
aI0
aI0
aI1
aI1
aa(lp2107
I2
aI2
aI4
aI2
aI0
aI0
aI0
aI0
aI0
aa(lp2108
I12
aI7
aI6
aI12
aI1
aI0
aI0
aI2
aI1
aa(lp2109
I18
aI12
aI6
aI18
aI0
aI0
aI0
aI2
aI2
aa(lp2110
I10
aI6
aI6
aI10
aI1
aI0
aI0
aI1
aI1
aa(lp2111
I5
aI5
aI4
aI5
aI0
aI0
aI0
aI0
aI1
aa(lp2112
I16
aI9
aI6
aI16
aI1
aI0
aI0
aI2
aI1
aa(lp2113
I3
aI3
aI4
aI3
aI0
aI0
aI0
aI0
aI1
aa(lp2114
I7
aI3
aI6
aI7
aI1
aI0
aI0
aI1
aI0
aa(lp2115
I2
aI2
aI4
aI2
aI0
aI0
aI0
aI0
aI0
aa(lp2116
I16
aI9
aI6
aI16
aI2
aI0
aI0
aI2
aI1
aa(lp2117
I8
aI4
aI6
aI8
aI0
aI0
aI0
aI1
aI0
aa(lp2118
I14
aI6
aI6
aI14
aI2
aI0
aI0
aI2
aI0
aa(lp2119
I3
aI3
aI4
aI3
aI0
aI0
aI0
aI0
aI1
aa(lp2120
I16
aI9
aI6
aI16
aI1
aI0
aI0
aI2
aI1
aa(lp2121
I2
aI2
aI4
aI2
aI0
aI0
aI0
aI0
aI0
aa(lp2122
I2
aI2
aI4
aI2
aI0
aI0
aI0
aI0
aI0
aa(lp2123
I12
aI7
aI6
aI12
aI1
aI0
aI0
aI2
aI1
aa(lp2124
I5
aI5
aI4
aI5
aI0
aI0
aI0
aI0
aI1
aa(lp2125
I16
aI9
aI6
aI16
aI2
aI0
aI0
aI2
aI1
aa(lp2126
I3
aI3
aI4
aI3
aI0
aI0
aI0
aI0
aI1
aa(lp2127
I2
aI2
aI4
aI2
aI0
aI0
aI0
aI0
aI0
aa(lp2128
I7
aI3
aI6
aI7
aI1
aI0
aI0
aI1
aI0
aa(lp2129
I2
aI2
aI4
aI2
aI0
aI0
aI0
aI0
aI0
aa(lp2130
I7
aI6
aI6
aI7
aI0
aI0
aI0
aI1
aI1
aa(lp2131
I12
aI4
aI6
aI12
aI2
aI0
aI0
aI2
aI0
aa(lp2132
I7
aI3
aI6
aI7
aI1
aI0
aI0
aI1
aI0
aa(lp2133
I16
aI7
aI6
aI16
aI2
aI0
aI0
aI2
aI0
aa(lp2134
I16
aI8
aI6
aI16
aI0
aI0
aI0
aI3
aI1
aa(lp2135
I6
aI3
aI6
aI6
aI0
aI0
aI0
aI1
aI0
aa(lp2136
I3
aI3
aI4
aI3
aI0
aI0
aI0
aI0
aI1
aa(lp2137
I8
aI6
aI6
aI8
aI0
aI0
aI0
aI1
aI1
aa(lp2138
I3
aI3
aI4
aI3
aI0
aI0
aI0
aI0
aI1
aa(lp2139
I23
aI11
aI6
aI23
aI1
aI0
aI0
aI5
aI0
aa(lp2140
I3
aI3
aI4
aI3
aI0
aI0
aI0
aI0
aI1
aa(lp2141
I7
aI3
aI6
aI7
aI1
aI0
aI0
aI1
aI0
aa(lp2142
I16
aI8
aI6
aI16
aI0
aI0
aI0
aI3
aI1
aa(lp2143
I3
aI3
aI4
aI3
aI0
aI0
aI0
aI0
aI1
aa(lp2144
I7
aI4
aI6
aI7
aI1
aI0
aI0
aI1
aI0
aa(lp2145
I9
aI6
aI6
aI9
aI0
aI0
aI0
aI1
aI1
aa(lp2146
I7
aI3
aI6
aI7
aI1
aI0
aI0
aI1
aI0
aa(lp2147
I9
aI4
aI6
aI9
aI1
aI0
aI0
aI1
aI0
aa(lp2148
I6
aI3
aI6
aI6
aI0
aI0
aI0
aI1
aI0
aa(lp2149
I9
aI6
aI6
aI9
aI1
aI0
aI0
aI1
aI1
aa(lp2150
I13
aI9
aI6
aI13
aI0
aI0
aI0
aI2
aI1
aa(lp2151
I2
aI3
aI4
aI2
aI0
aI0
aI0
aI0
aI1
aa(lp2152
I6
aI3
aI6
aI6
aI0
aI0
aI0
aI1
aI0
aa(lp2153
I16
aI9
aI6
aI16
aI1
aI0
aI0
aI2
aI1
aa(lp2154
I21
aI10
aI6
aI21
aI1
aI0
aI0
aI4
aI0
aa(lp2155
I2
aI2
aI4
aI2
aI0
aI0
aI0
aI0
aI0
aa(lp2156
I13
aI6
aI6
aI13
aI1
aI0
aI0
aI2
aI0
aa(lp2157
I11
aI9
aI6
aI11
aI0
aI0
aI0
aI1
aI2
aa(lp2158
I13
aI6
aI6
aI13
aI2
aI0
aI0
aI2
aI0
aa(lp2159
I7
aI3
aI6
aI7
aI1
aI0
aI0
aI1
aI0
aa(lp2160
I10
aI4
aI6
aI10
aI1
aI0
aI0
aI2
aI0
aa(lp2161
I3
aI3
aI4
aI3
aI0
aI0
aI0
aI0
aI1
aa(lp2162
I6
aI3
aI6
aI6
aI0
aI0
aI0
aI1
aI0
aa(lp2163
I6
aI5
aI6
aI6
aI0
aI1
aI0
aI1
aI0
aa(lp2164
I7
aI3
aI6
aI7
aI1
aI0
aI0
aI1
aI0
aa(lp2165
I2
aI2
aI4
aI2
aI0
aI0
aI0
aI0
aI0
aa(lp2166
I6
aI3
aI6
aI6
aI0
aI0
aI0
aI1
aI0
aa(lp2167
I3
aI3
aI4
aI3
aI0
aI0
aI0
aI0
aI1
aa(lp2168
I16
aI9
aI6
aI16
aI1
aI0
aI0
aI2
aI1
aa(lp2169
I2
aI2
aI4
aI2
aI0
aI0
aI0
aI0
aI0
aa(lp2170
I17
aI12
aI6
aI17
aI0
aI0
aI0
aI3
aI1
aa(lp2171
I9
aI4
aI6
aI9
aI1
aI0
aI0
aI1
aI0
aa(lp2172
I3
aI3
aI4
aI3
aI0
aI0
aI0
aI0
aI1
aa(lp2173
I2
aI3
aI4
aI2
aI0
aI0
aI0
aI0
aI1
aa(lp2174
I7
aI3
aI6
aI7
aI1
aI0
aI0
aI1
aI0
aa(lp2175
I16
aI8
aI6
aI16
aI0
aI0
aI0
aI3
aI1
aa(lp2176
I12
aI8
aI6
aI12
aI1
aI0
aI0
aI1
aI1
aa(lp2177
I8
aI4
aI6
aI8
aI0
aI0
aI0
aI2
aI0
aa(lp2178
I7
aI4
aI6
aI7
aI1
aI0
aI0
aI1
aI0
aa(lp2179
I3
aI3
aI4
aI3
aI0
aI0
aI0
aI0
aI1
aa(lp2180
I18
aI10
aI6
aI18
aI0
aI0
aI0
aI3
aI0
aa(lp2181
I3
aI3
aI4
aI3
aI0
aI0
aI0
aI0
aI1
aa(lp2182
I3
aI3
aI4
aI3
aI0
aI0
aI0
aI0
aI1
aa(lp2183
I3
aI3
aI4
aI3
aI0
aI0
aI0
aI0
aI1
aa(lp2184
I12
aI4
aI6
aI12
aI2
aI0
aI0
aI2
aI0
aa(lp2185
I20
aI8
aI6
aI20
aI1
aI0
aI0
aI4
aI0
aa(lp2186
I10
aI4
aI6
aI10
aI1
aI0
aI0
aI2
aI0
aa(lp2187
I9
aI4
aI6
aI9
aI1
aI0
aI0
aI1
aI0
aa(lp2188
I2
aI2
aI4
aI2
aI0
aI0
aI0
aI0
aI0
aa(lp2189
I5
aI3
aI6
aI5
aI0
aI0
aI0
aI1
aI0
aa(lp2190
I2
aI2
aI4
aI2
aI0
aI0
aI0
aI0
aI0
aa(lp2191
I9
aI5
aI6
aI9
aI1
aI0
aI0
aI1
aI0
aa(lp2192
I16
aI9
aI6
aI16
aI2
aI0
aI0
aI2
aI1
aa(lp2193
I2
aI2
aI4
aI2
aI0
aI0
aI0
aI0
aI0
aa(lp2194
I5
aI5
aI4
aI5
aI0
aI0
aI0
aI0
aI1
aa(lp2195
I6
aI3
aI6
aI6
aI0
aI0
aI0
aI1
aI0
aa(lp2196
I6
aI3
aI6
aI6
aI0
aI0
aI0
aI1
aI0
aa(lp2197
I2
aI2
aI4
aI2
aI0
aI0
aI0
aI0
aI0
aa(lp2198
I3
aI3
aI4
aI3
aI0
aI0
aI0
aI0
aI1
aa(lp2199
I0
aI0
aI1
aI0
aI0
aI0
aI0
aI0
aI0
aa(lp2200
I2
aI2
aI4
aI2
aI0
aI0
aI0
aI0
aI0
aa(lp2201
I9
aI6
aI6
aI9
aI0
aI0
aI0
aI1
aI1
aa(lp2202
I3
aI3
aI4
aI3
aI0
aI0
aI0
aI0
aI1
aa(lp2203
I2
aI2
aI4
aI2
aI0
aI0
aI0
aI0
aI0
aa(lp2204
I3
aI3
aI4
aI3
aI0
aI0
aI0
aI0
aI1
aa(lp2205
I10
aI6
aI6
aI10
aI1
aI0
aI0
aI1
aI1
aa(lp2206
I13
aI7
aI6
aI13
aI0
aI0
aI0
aI2
aI1
aa(lp2207
I3
aI3
aI4
aI3
aI0
aI0
aI0
aI0
aI1
aa(lp2208
I12
aI7
aI6
aI12
aI1
aI0
aI0
aI2
aI1
aa(lp2209
I31
aI18
aI6
aI31
aI1
aI0
aI0
aI4
aI2
aa(lp2210
I16
aI11
aI6
aI16
aI1
aI1
aI0
aI2
aI1
aa(lp2211
I13
aI9
aI6
aI13
aI0
aI0
aI0
aI2
aI1
aa(lp2212
I3
aI3
aI4
aI3
aI0
aI0
aI0
aI0
aI1
aa(lp2213
I9
aI6
aI6
aI9
aI1
aI0
aI0
aI1
aI1
aa(lp2214
I19
aI10
aI6
aI19
aI1
aI0
aI0
aI3
aI0
aa(lp2215
I2
aI2
aI4
aI2
aI0
aI0
aI0
aI0
aI0
aa(lp2216
I8
aI4
aI6
aI8
aI0
aI0
aI0
aI1
aI0
aa(lp2217
I3
aI3
aI4
aI3
aI0
aI0
aI0
aI0
aI1
aa(lp2218
I27
aI16
aI6
aI27
aI1
aI0
aI0
aI4
aI1
aa(lp2219
I11
aI4
aI6
aI11
aI1
aI0
aI0
aI2
aI0
aa(lp2220
I3
aI3
aI4
aI3
aI0
aI0
aI0
aI0
aI1
aa(lp2221
I9
aI6
aI6
aI9
aI0
aI0
aI0
aI1
aI1
aa(lp2222
I6
aI3
aI6
aI6
aI0
aI0
aI0
aI1
aI0
aa(lp2223
I16
aI7
aI6
aI16
aI2
aI0
aI0
aI2
aI0
aa(lp2224
I14
aI6
aI6
aI14
aI2
aI0
aI0
aI2
aI0
aa(lp2225
I13
aI7
aI6
aI13
aI0
aI0
aI0
aI2
aI1
aa(lp2226
I14
aI14
aI6
aI14
aI1
aI0
aI0
aI1
aI3
aa(lp2227
I8
aI6
aI6
aI8
aI0
aI0
aI0
aI1
aI1
aa(lp2228
I3
aI3
aI4
aI3
aI0
aI0
aI0
aI0
aI1
aa(lp2229
I2
aI2
aI4
aI2
aI0
aI0
aI0
aI0
aI0
aa(lp2230
I8
aI4
aI6
aI8
aI0
aI2
aI0
aI2
aI0
aa(lp2231
I12
aI6
aI6
aI12
aI0
aI0
aI0
aI2
aI0
aa(lp2232
I7
aI4
aI6
aI7
aI1
aI0
aI0
aI1
aI0
aa(lp2233
I8
aI4
aI6
aI8
aI0
aI0
aI0
aI1
aI0
aa(lp2234
I17
aI5
aI6
aI17
aI3
aI0
aI0
aI3
aI0
aa(lp2235
I9
aI6
aI6
aI9
aI0
aI0
aI0
aI1
aI1
aa(lp2236
I0
aI1
aI2
aI0
aI0
aI0
aI0
aI0
aI0
aa(lp2237
I2
aI2
aI4
aI2
aI0
aI0
aI0
aI0
aI0
aa(lp2238
I2
aI2
aI4
aI2
aI0
aI0
aI0
aI0
aI0
aa(lp2239
I16
aI9
aI6
aI16
aI2
aI0
aI0
aI2
aI1
aa(lp2240
I22
aI12
aI6
aI22
aI1
aI0
aI0
aI3
aI1
aa(lp2241
I10
aI6
aI6
aI10
aI1
aI0
aI0
aI1
aI1
aa(lp2242
I13
aI7
aI6
aI13
aI0
aI0
aI0
aI2
aI1
aa(lp2243
I7
aI6
aI6
aI7
aI0
aI0
aI0
aI1
aI1
aa(lp2244
I13
aI9
aI6
aI13
aI0
aI0
aI0
aI2
aI1
aa(lp2245
I6
aI3
aI6
aI6
aI0
aI0
aI0
aI1
aI0
aa(lp2246
I3
aI3
aI4
aI3
aI0
aI0
aI0
aI0
aI1
aa(lp2247
I12
aI7
aI6
aI12
aI1
aI0
aI0
aI2
aI1
aa(lp2248
I8
aI6
aI6
aI8
aI0
aI0
aI0
aI1
aI1
aa(lp2249
I6
aI3
aI6
aI6
aI0
aI0
aI0
aI1
aI0
aa(lp2250
I9
aI6
aI6
aI9
aI1
aI0
aI0
aI1
aI1
aa(lp2251
I8
aI6
aI6
aI8
aI0
aI0
aI0
aI1
aI1
aa(lp2252
I9
aI4
aI6
aI9
aI1
aI0
aI0
aI1
aI0
aa(lp2253
I2
aI2
aI4
aI2
aI0
aI0
aI0
aI0
aI0
aa(lp2254
I6
aI3
aI6
aI6
aI0
aI0
aI0
aI1
aI0
aa(lp2255
I5
aI5
aI4
aI5
aI0
aI0
aI0
aI0
aI1
aa(lp2256
I11
aI9
aI6
aI11
aI0
aI0
aI0
aI1
aI2
aa(lp2257
I16
aI12
aI6
aI16
aI0
aI0
aI0
aI2
aI2
aa(lp2258
I16
aI9
aI6
aI16
aI2
aI0
aI0
aI2
aI1
aa(lp2259
I13
aI7
aI6
aI13
aI0
aI0
aI0
aI2
aI1
aa(lp2260
I7
aI6
aI6
aI7
aI0
aI0
aI0
aI1
aI1
aa(lp2261
I13
aI9
aI6
aI13
aI0
aI0
aI0
aI2
aI0
aa(lp2262
I15
aI9
aI6
aI15
aI0
aI0
aI0
aI2
aI1
aa(lp2263
I7
aI6
aI6
aI7
aI0
aI0
aI0
aI1
aI1
aa(lp2264
I16
aI7
aI6
aI16
aI2
aI0
aI0
aI2
aI0
aa(lp2265
I3
aI3
aI4
aI3
aI0
aI0
aI0
aI0
aI1
aa(lp2266
I2
aI2
aI4
aI2
aI0
aI0
aI0
aI0
aI0
aa.