(lp1
(lp2
(S'turn'
S''
S''
tp3
aa(lp4
(S'turn'
S'right'
S''
tp5
aa(lp6
(S'turn'
S''
S''
tp7
aa(lp8
(S'turn'
S''
S''
tp9
aa(lp10
(S'travel'
S'steps'
S' 1'
tp11
aa(lp12
(S'turn'
S''
S''
tp13
aa(lp14
(S'turn'
S'right'
S''
tp15
aa(lp16
(S'travel'
S'steps'
S' 1'
tp17
aa(lp18
(S'verify'
p19
S'right'
S' brick hallway'
tp20
a(g19
S'left'
S' brick hallway'
tp21
aa(lp22
(S'travel'
S'steps'
S' 1'
tp23
aa(lp24
(S'travel'
S''
S''
tp25
aa(lp26
(S'turn'
S'right'
S''
tp27
aa(lp28
(S'travel'
S''
S''
tp29
aa(lp30
(S'verify'
S'right'
S' concrete hallway'
tp31
aa(lp32
(S'verify'
p33
S'front'
S' brick hallway'
tp34
a(g33
S'front'
S' lamp'
tp35
aa(lp36
(S'verify'
p37
S'right'
S' concrete hallway'
tp38
a(g37
S'right'
S' sofa'
tp39
aa(lp40
(S'turn'
S'right'
S''
tp41
aa(lp42
(S'verify'
S'at'
S' hatrack'
tp43
aa(lp44
(S'travel'
S'steps'
S' 1'
tp45
aa(lp46
(S'travel'
S''
S''
tp47
aa(lp48
(S'verify'
S'front'
S' wall'
tp49
aa(lp50
(S'travel'
S'steps'
S' 1'
tp51
aa(lp52
(S'turn'
S'left'
S''
tp53
aa(lp54
(S'travel'
S'steps'
S' 1'
tp55
aa(lp56
(S'verify'
S'left'
S' tower wall'
tp57
aa(lp58
(S'turn'
S'right'
S''
tp59
aa(lp60
(S'travel'
S'steps'
S' 1'
tp61
aa(lp62
(S'turn'
S'right'
S''
tp63
aa(lp64
(S'travel'
S''
S''
tp65
aa(lp66
(S'turn'
S'right'
S''
tp67
aa(lp68
(S'turn'
S''
S''
tp69
aa(lp70
(S'travel'
S''
S''
tp71
aa(lp72
(S'turn'
S'left'
S''
tp73
aa(lp74
(S'travel'
S''
S''
tp75
aa(lp76
(S'verify'
S'front'
S' brick hallway'
tp77
aa(lp78
(S'travel'
S''
S''
tp79
aa(lp80
(S'verify'
S'front'
S' grass hallway'
p81
tp82
aa(lp83
(S'verify'
S'front'
S' gravel hallway'
tp84
aa(lp85
(S'travel'
S'steps'
S' 1'
tp86
aa(lp87
(S'travel'
S'steps'
S' 2'
tp88
aa(lp89
(S'travel'
S'steps'
S' 1'
tp90
aa(lp91
(S'travel'
S''
S''
tp92
aa(lp93
(S'travel'
S'steps'
S' 1'
tp94
aa(lp95
(S'turn'
S'right'
S''
tp96
aa(lp97
(S'turn'
S'right'
S''
tp98
aa(lp99
(S'travel'
S'steps'
S' 3'
tp100
aa(lp101
(S'travel'
S''
S''
tp102
aa(lp103
(S'turn'
S''
S''
tp104
aa(lp105
(S'travel'
S'steps'
S' 2'
tp106
aa(lp107
(S'turn'
S'right'
S''
tp108
aa(lp109
(S'turn'
S''
S''
tp110
aa(lp111
(S'travel'
S''
S''
tp112
aa(lp113
(S'travel'
S'steps'
S' 1'
tp114
aa(lp115
(S'verify'
S'front'
S' yellow hallway'
tp116
aa(lp117
(S'travel'
S'steps'
S' 2'
tp118
aa(lp119
(S'turn'
S'right'
S''
tp120
aa(lp121
(S'verify'
S'left'
S' sofa'
tp122
aa(lp123
(S'turn'
S''
S''
tp124
aa(lp125
(S'turn'
S'left'
S''
tp126
aa(lp127
(S'turn'
S''
S''
tp128
aa(lp129
(S'travel'
S''
S''
tp130
aa(lp131
(S'turn'
S'left'
S''
tp132
aa(lp133
(S'turn'
S''
S''
tp134
aa(lp135
(S'turn'
S''
S''
tp136
aa(lp137
(S'turn'
S''
S''
tp138
aa(lp139
(S'travel'
S'steps'
S' 2'
tp140
aa(lp141
(S'turn'
S'left'
S''
tp142
aa(lp143
(S'travel'
S''
S''
tp144
aa(lp145
(S'travel'
S''
S''
tp146
aa(lp147
(S'turn'
S''
S''
tp148
aa(lp149
(S'verify'
S'front'
S' easel'
tp150
aa(lp151
(S'travel'
S'steps'
S' 5'
tp152
aa(lp153
(S'turn'
S'right'
S''
tp154
aa(lp155
(S'travel'
S'steps'
S' 1'
tp156
aa(lp157
(S'turn'
S'left'
S''
tp158
aa(lp159
(S'travel'
S'steps'
S' 1'
tp160
aa(lp161
(S'turn'
S'left'
S''
tp162
aa(lp163
(S'travel'
S'steps'
S' 1'
tp164
aa(lp165
(S'travel'
S'steps'
S' 1'
tp166
aa(lp167
(S'travel'
S'steps'
S' 1'
tp168
aa(lp169
(S'turn'
S'left'
S''
tp170
aa(lp171
(S'travel'
S''
S''
tp172
aa(lp173
(S'travel'
S''
S''
tp174
aa(lp175
(S'turn'
S'left'
S''
tp176
aa(lp177
(S'verify'
S'front'
S' grass hallway'
tp178
aa(lp179
(S'travel'
S''
S''
tp180
aa(lp181
(S'verify'
S'front'
S' lamp'
tp182
aa(lp183
(S'turn'
S''
S''
tp184
aa(lp185
(S'turn'
S'right'
S''
tp186
aa(lp187
(S'turn'
S'left'
S''
tp188
aa(lp189
(S'travel'
S''
S''
tp190
aa(lp191
(S'turn'
S'right'
S''
tp192
aa(lp193
(S'turn'
S'left'
S''
tp194
aa(lp195
(S'turn'
S''
S''
tp196
aa(lp197
(S'verify'
p198
S'front'
S' wall'
tp199
a(g198
S'left'
S' brick hallway'
tp200
a(g198
S'right'
S' brick hallway'
tp201
aa(lp202
(S'travel'
S'steps'
S' 2'
tp203
aa(lp204
(S'verify'
S'front'
S' lamp'
tp205
aa(lp206
(S'travel'
S''
S''
tp207
aa(lp208
(S'travel'
S'steps'
S' 1'
tp209
aa(lp210
(S'verify'
S'front'
S' chair'
p211
tp212
aa(lp213
(S'turn'
S'left'
S''
tp214
aa(lp215
(S'turn'
S''
S''
tp216
aa(lp217
(S'verify'
S'right'
S' sofa'
tp218
aa(lp219
(S'turn'
S'right'
S''
tp220
aa(lp221
(S'travel'
S''
S''
tp222
aa(lp223
(S'verify'
S'side'
S' blue hallway'
tp224
aa(lp225
(S'turn'
S''
S''
tp226
aa(lp227
(S'turn'
S''
S''
tp228
aa(lp229
(S'travel'
S''
S''
tp230
aa(lp231
(S'verify'
S'right'
S' blue hallway'
tp232
aa(lp233
(S'travel'
S'steps'
S' 1'
tp234
aa(lp235
(S'verify'
p236
S'front'
S' brick hallway'
tp237
a(g236
S'front'
S' lamp'
tp238
aa(lp239
(S'turn'
S'left'
S''
tp240
aa(lp241
(S'verify'
S'left'
S' butterfly wall'
tp242
aa(lp243
(S'turn'
S'left'
S''
tp244
aa(lp245
(S'verify'
S'front'
S' sofa'
tp246
aa(lp247
(S'verify'
S'front'
S' gravel hallway'
tp248
aa(lp249
(S'turn'
S'right'
S''
tp250
aa(lp251
(S'turn'
S''
S''
tp252
aa(lp253
(S'verify'
S'at'
S' hatrack'
tp254
aa(lp255
(S'turn'
S'left'
S''
tp256
aa(lp257
(S'travel'
S''
S''
tp258
aa(lp259
(S'turn'
S'left'
S''
tp260
aa(lp261
(S'turn'
S'left'
S''
tp262
aa(lp263
(S'turn'
S'right'
S''
tp264
aa(lp265
(S'turn'
S''
S''
tp266
aa(lp267
(S'verify'
S'at'
S' sofa'
tp268
aa(lp269
(S'travel'
S'steps'
S' 2'
tp270
aa(lp271
(S'turn'
S'right'
S''
tp272
aa(lp273
(S'turn'
S''
S''
tp274
aa(lp275
(S'turn'
S''
S''
tp276
aa(lp277
(S'turn'
S'left'
S''
tp278
aa(lp279
(S'verify'
p280
S'front'
S' wood hallway'
tp281
a(g280
S'back'
S' wood hallway'
tp282
aa(lp283
(S'verify'
p284
S'front'
S' hatrack'
tp285
a(g284
S'left'
S' concrete hallway'
tp286
aa(lp287
(S'travel'
S''
S''
tp288
aa(lp289
(S'turn'
S'left'
S''
tp290
aa(lp291
(S'verify'
p292
S'front'
S' chair'
tp293
a(g292
S'front'
S' barstool'
tp294
aa(lp295
(S'travel'
S'steps'
S' 3'
tp296
aa(lp297
(S'travel'
S''
S''
tp298
aa(lp299
(S'verify'
S'front'
S' easel'
tp300
aa(lp301
(S'turn'
S'right'
S''
tp302
aa(lp303
(S'turn'
S''
S''
tp304
aa(lp305
(S'turn'
S''
S''
tp306
aa(lp307
(S'travel'
S'steps'
S' 2'
tp308
aa(lp309
(S'turn'
S''
S''
tp310
aa(lp311
(S'turn'
S''
S''
tp312
aa(lp313
(S'travel'
S''
S''
tp314
aa(lp315
(S'null'
p316
S''
S''
tp317
aa(lp318
(S'turn'
S''
S''
tp319
aa(lp320
(S'verify'
S'side'
S' concrete hallway'
tp321
aa(lp322
(S'travel'
S''
S''
tp323
aa(lp324
(S'verify'
S'front'
S' blue hallway'
tp325
aa(lp326
(S'travel'
S'steps'
S' 1'
tp327
aa(lp328
(S'turn'
S'left'
S''
tp329
aa(lp330
(S'travel'
S'steps'
S' 1'
tp331
aa(lp332
(S'travel'
S'steps'
S' 1'
tp333
aa(lp334
(S'turn'
S'right'
S''
tp335
aa(lp336
(S'turn'
S''
S''
tp337
aa(lp338
(S'travel'
S''
S''
tp339
aa(lp340
(S'travel'
S'steps'
S' 1'
tp341
aa(lp342
(S'travel'
S'steps'
S' 1'
tp343
aa(lp344
(S'turn'
S'left'
S''
tp345
aa(lp346
(S'verify'
p347
S'at'
S' chair'
tp348
a(g347
S'front'
S' wall'
tp349
aa(lp350
(S'travel'
S'steps'
S' 1'
tp351
aa(lp352
(S'turn'
S'left'
S''
tp353
aa(lp354
(S'turn'
S''
S''
tp355
aa(lp356
(S'travel'
S''
S''
tp357
aa(lp358
(S'turn'
S'right'
S''
tp359
aa(lp360
(S'turn'
S'left'
S''
tp361
aa(lp362
(S'turn'
S'right'
S''
tp363
aa(lp364
(S'verify'
S'side'
S' blue hallway'
tp365
aa(lp366
(S'turn'
S''
S''
tp367
aa(lp368
(S'travel'
S'steps'
S' 1'
tp369
aa(lp370
(S'turn'
S'right'
S''
tp371
aa(lp372
(S'turn'
S''
S''
tp373
aa(lp374
(S'travel'
S'steps'
S' 1'
tp375
aa(lp376
(S'travel'
S''
S''
tp377
aa(lp378
(S'verify'
S'front'
S' hatrack'
tp379
aa(lp380
(S'verify'
S'side'
S' gravel hallway'
tp381
aa(lp382
(S'travel'
S''
S''
tp383
aa(lp384
(S'turn'
S'left'
S''
tp385
aa(lp386
(S'turn'
S'left'
S''
tp387
aa(lp388
(S'turn'
S''
S''
tp389
aa(lp390
(S'travel'
S'steps'
S' 1'
tp391
aa(lp392
(S'travel'
S''
S''
tp393
aa(lp394
(S'travel'
S''
S''
tp395
aa(lp396
(S'turn'
S''
S''
tp397
aa(lp398
(S'turn'
S'left'
S''
tp399
aa(lp400
(S'travel'
S'steps'
S' 1'
tp401
aa(lp402
(S'turn'
S''
S''
tp403
aa(lp404
(S'travel'
S''
S''
tp405
aa(lp406
(S'travel'
S''
S''
tp407
aa(lp408
(S'verify'
S'right'
S' sofa'
tp409
aa(lp410
(S'verify'
p411
S'left'
S' concrete hallway'
tp412
a(g411
S'front'
S' lamp'
tp413
aa(lp414
(S'turn'
S''
S''
tp415
aa(lp416
(S'verify'
S'front'
S' gravel hallway'
tp417
aa(lp418
(S'travel'
S''
S''
tp419
aa(lp420
(S'travel'
S'steps'
S' 1'
tp421
aa(lp422
(S'turn'
S'right'
S''
tp423
aa(lp424
(S'travel'
S'steps'
S' 5'
tp425
aa(lp426
(S'turn'
S'left'
S''
tp427
aa(lp428
(S'travel'
S''
S''
tp429
aa(lp430
(S'travel'
S'steps'
S' 1'
tp431
aa(lp432
(S'travel'
S''
S''
tp433
aa(lp434
(S'turn'
S''
S''
tp435
aa(lp436
(S'verify'
S'front'
S' grass hallway'
tp437
aa(lp438
(S'travel'
S''
S''
tp439
aa(lp440
(S'travel'
S''
S''
tp441
aa(lp442
(S'travel'
S''
S''
tp443
aa(lp444
(S'travel'
S''
S''
tp445
aa(lp446
(S'verify'
S'right'
S' blue hallway'
tp447
aa(lp448
(S'turn'
S'left'
S''
tp449
aa(lp450
(S'travel'
S''
S''
tp451
aa(lp452
(S'verify'
p453
S'front'
S' flower hallway'
tp454
a(g453
S'side'
S' brick hallway'
tp455
aa(lp456
(S'turn'
S'left'
S''
tp457
aa(lp458
(S'travel'
S''
S''
tp459
aa(lp460
(S'travel'
S''
S''
tp461
aa(lp462
(S'turn'
S''
S''
tp463
aa(lp464
(S'turn'
S''
S''
tp465
aa(lp466
(S'turn'
S'left'
S''
tp467
aa(lp468
(S'travel'
S'steps'
S' 2'
tp469
aa(lp470
(S'turn'
S'left'
S''
tp471
aa(lp472
(S'turn'
S'right'
S''
tp473
aa(lp474
(g316
S''
S''
tp475
aa(lp476
(S'travel'
S''
S''
tp477
aa(lp478
(S'travel'
S'steps'
S' 1'
tp479
aa(lp480
(S'verify'
S'front'
S' blue hallway'
tp481
aa(lp482
(S'turn'
S'right'
S''
tp483
aa(lp484
(S'travel'
S''
S''
tp485
aa(lp486
(S'travel'
S'steps'
S' 1'
tp487
aa(lp488
(S'travel'
S''
S''
tp489
aa(lp490
(S'turn'
S'right'
S''
tp491
aa(lp492
(S'travel'
S''
S''
tp493
aa(lp494
(S'turn'
S''
S''
tp495
aa(lp496
(S'travel'
S'steps'
S' 1'
tp497
aa(lp498
(S'turn'
S'left'
S''
tp499
aa(lp500
(S'turn'
S''
S''
tp501
aa(lp502
(S'turn'
S'right'
S''
tp503
aa(lp504
(S'turn'
S'right'
S''
tp505
aa(lp506
(S'verify'
S'front'
S' grass hallway'
tp507
aa(lp508
(S'travel'
S'steps'
S' 1'
tp509
aa(lp510
(S'turn'
S''
S''
tp511
aa(lp512
(S'travel'
S'steps'
S' 3'
tp513
aa(lp514
(S'turn'
S''
S''
tp515
aa(lp516
(S'travel'
S''
S''
tp517
aa(lp518
(S'verify'
S'front'
S' brick hallway'
tp519
aa(lp520
(S'turn'
S'left'
S''
tp521
aa(lp522
(S'turn'
S'left'
S''
tp523
aa(lp524
(S'turn'
S''
S''
tp525
aa(lp526
(S'verify'
p527
S'front'
S' brick hallway'
tp528
a(g527
S'front'
S' lamp'
tp529
aa(lp530
(S'verify'
S'side'
S' grass hallway'
tp531
aa(lp532
(S'turn'
S''
S''
tp533
aa(lp534
(S'travel'
S''
S''
tp535
aa(lp536
(S'travel'
S''
S''
tp537
aa(lp538
(S'turn'
S''
S''
tp539
aa(lp540
(S'turn'
S''
S''
tp541
aa(lp542
(S'turn'
S''
S''
tp543
aa(lp544
(S'travel'
S'steps'
S' 3'
tp545
aa(lp546
(S'travel'
S'steps'
S' 1'
tp547
aa(lp548
(S'travel'
S'steps'
S' 1'
tp549
aa(lp550
(S'travel'
S'steps'
S' 2'
tp551
aa(lp552
(S'turn'
S'left'
S''
tp553
aa(lp554
(S'turn'
S'right'
S''
tp555
aa(lp556
(S'turn'
S'left'
S''
tp557
aa(lp558
(S'travel'
S''
S''
tp559
aa(lp560
(S'verify'
S'right'
S' blue hallway'
tp561
aa(lp562
(S'travel'
S'steps'
S' 3'
tp563
aa(lp564
(S'turn'
S'right'
S''
tp565
aa(lp566
(S'turn'
S'right'
S''
tp567
aa(lp568
(S'travel'
S''
S''
tp569
aa(lp570
(S'verify'
S'front'
S' wall'
tp571
aa(lp572
(S'turn'
S'left'
S''
tp573
aa(lp574
(S'turn'
S''
S''
tp575
aa(lp576
(S'turn'
S'left'
S''
tp577
aa(lp578
(S'turn'
S''
S''
tp579
aa(lp580
(S'verify'
S'right'
S' concrete hallway'
tp581
aa(lp582
(S'turn'
S'right'
S''
tp583
aa(lp584
(S'turn'
S''
S''
tp585
aa(lp586
(S'verify'
S'at'
S' chair'
tp587
aa(lp588
(g316
S''
S''
tp589
aa(lp590
(S'travel'
S''
S''
tp591
aa(lp592
(S'travel'
S'steps'
S' 2'
tp593
aa(lp594
(S'verify'
p595
S'front'
S' easel'
tp596
a(g595
S'left'
S' yellow hallway'
tp597
a(g595
S'right'
S' yellow hallway'
tp598
aa(lp599
(S'turn'
S'left'
S''
tp600
aa(lp601
(S'travel'
S''
S''
tp602
aa(lp603
(S'turn'
S'right'
S''
tp604
aa(lp605
(S'travel'
S'steps'
S' 1'
tp606
aa(lp607
(S'travel'
S'steps'
S' 1'
tp608
aa(lp609
(S'turn'
S''
S''
tp610
aa(lp611
(S'turn'
S''
S''
tp612
aa(lp613
(S'turn'
S'left'
S''
tp614
aa(lp615
(S'travel'
S''
S''
tp616
aa(lp617
(S'turn'
S'right'
S''
tp618
aa(lp619
(S'turn'
S''
S''
tp620
aa(lp621
(S'verify'
S'front'
S' blue hallway'
tp622
aa(lp623
(S'verify'
S'at'
S' sofa'
tp624
aa(lp625
(S'travel'
S'steps'
S' 1'
tp626
aa(lp627
(S'turn'
S''
S''
tp628
aa(lp629
(S'travel'
S''
S''
tp630
aa(lp631
(S'verify'
S'front'
S' wood hallway'
tp632
aa(lp633
(S'verify'
p634
S'left'
S' wall'
tp635
a(g634
S'right'
S' wall'
tp636
a(g634
S'front'
S' wall'
tp637
a(g634
S'back'
S' fish wall'
tp638
aa(lp639
(S'turn'
S'left'
S''
tp640
aa(lp641
(S'turn'
S''
S''
tp642
aa(lp643
(S'verify'
S'front'
S' lamp'
tp644
aa(lp645
(g316
S''
S''
tp646
aa(lp647
(S'travel'
S''
S''
tp648
aa(lp649
(S'turn'
S''
S''
tp650
aa(lp651
(S'travel'
S'steps'
S' 3'
tp652
aa(lp653
(S'travel'
S'steps'
S' 1'
tp654
aa(lp655
(S'turn'
S'right'
S''
tp656
aa(lp657
(S'travel'
S''
S''
tp658
aa(lp659
(S'verify'
S'front'
S' chair'
tp660
aa(lp661
(S'travel'
S''
S''
tp662
aa(lp663
(g316
S''
S''
tp664
aa(lp665
(S'travel'
S''
S''
tp666
aa(lp667
(S'turn'
S'left'
S''
tp668
aa(lp669
(S'travel'
S''
S''
tp670
aa(lp671
(S'turn'
S''
S''
tp672
aa(lp673
(S'turn'
S''
S''
tp674
aa(lp675
(S'travel'
S''
S''
tp676
aa(lp677
(S'turn'
S'left'
S''
tp678
aa(lp679
(S'travel'
S''
S''
tp680
aa(lp681
(S'travel'
S'steps'
S' 1'
tp682
aa(lp683
(S'travel'
S''
S''
tp684
aa(lp685
(S'turn'
S'right'
S''
tp686
aa(lp687
(S'travel'
S'steps'
S' 1'
tp688
aa(lp689
(S'verify'
S'front'
S' hatrack'
tp690
aa(lp691
(S'travel'
S'steps'
S' 3'
tp692
aa(lp693
(S'verify'
p694
S'at'
S' easel'
tp695
a(g694
S'left'
S' tower wall'
p696
tp697
a(g694
S'right'
S' butterfly wall'
p698
tp699
aa(lp700
(S'turn'
S''
S''
tp701
aa(lp702
(S'travel'
S'steps'
S' 2'
tp703
aa(lp704
(S'turn'
S'left'
S''
tp705
aa(lp706
(S'turn'
S'right'
S''
tp707
aa(lp708
(S'travel'
S''
S''
tp709
aa(lp710
(S'travel'
S''
S''
tp711
aa(lp712
(S'travel'
S'steps'
S' 1'
tp713
aa(lp714
(S'turn'
S''
S''
tp715
aa(lp716
(S'travel'
S''
S''
tp717
aa(lp718
(S'travel'
S''
S''
tp719
aa(lp720
(S'turn'
S''
S''
tp721
aa(lp722
(S'verify'
p723
S'front'
S' lamp'
tp724
a(g723
S'front'
S' hatrack'
tp725
aa(lp726
(S'turn'
S'right'
S''
tp727
aa(lp728
(S'turn'
S'left'
S''
tp729
aa(lp730
(S'travel'
S'steps'
S' 1'
tp731
aa(lp732
(S'verify'
S'at'
S' 3-intersection'
tp733
aa(lp734
(S'travel'
S''
S''
tp735
aa(lp736
(S'travel'
S''
S''
tp737
aa(lp738
(S'turn'
S'left'
S''
tp739
aa(lp740
(S'verify'
S'front'
S' chair'
tp741
aa(lp742
(S'travel'
S'steps'
S' 1'
tp743
aa(lp744
(S'travel'
S'steps'
S' 1'
tp745
aa(lp746
(S'turn'
S'left'
S''
tp747
aa(lp748
(S'travel'
S'steps'
S' 1'
tp749
aa(lp750
(S'verify'
S'front'
S' blue hallway'
tp751
aa(lp752
(S'turn'
S''
S''
tp753
aa(lp754
(S'turn'
S'left'
S''
tp755
aa(lp756
(S'turn'
S'left'
S''
tp757
aa(lp758
(S'turn'
S''
S''
tp759
aa(lp760
(S'verify'
S'front'
S' barstool'
tp761
aa(lp762
(S'turn'
S''
S''
tp763
aa(lp764
(S'turn'
S''
S''
tp765
aa(lp766
(S'travel'
S'steps'
S' 1'
tp767
aa(lp768
(S'travel'
S'steps'
S' 1'
tp769
aa(lp770
(S'verify'
p771
S'front'
S' brick hallway'
tp772
a(g771
S'front'
S' lamp'
tp773
aa(lp774
(S'travel'
S''
S''
tp775
aa(lp776
(S'travel'
S'steps'
S' 1'
tp777
aa(lp778
(S'travel'
S''
S''
tp779
aa(lp780
(S'travel'
S'steps'
S' 1'
tp781
aa(lp782
(S'travel'
S'steps'
S' 1'
tp783
aa(lp784
(S'travel'
S'steps'
S' 1'
tp785
aa(lp786
(S'travel'
S''
S''
tp787
aa(lp788
(g316
S''
S''
tp789
aa(lp790
(S'travel'
S'steps'
S' 2'
tp791
aa(lp792
(S'travel'
S'steps'
S' 1'
tp793
aa(lp794
(S'travel'
S''
S''
tp795
aa(lp796
(S'verify'
S'front'
S' yellow hallway'
tp797
aa(lp798
(S'verify'
S'front'
S' gravel hallway'
tp799
aa(lp800
(S'turn'
S''
S''
tp801
aa(lp802
(g316
S''
S''
tp803
aa(lp804
(S'verify'
S'front'
S' blue hallway'
tp805
aa(lp806
(S'travel'
S''
S''
tp807
aa(lp808
(S'travel'
S''
S''
tp809
aa(lp810
(S'travel'
S'steps'
S' 2'
tp811
aa(lp812
(S'travel'
S'steps'
S' 1'
tp813
aa(lp814
(S'travel'
S'steps'
S' 1'
tp815
aa(lp816
(S'verify'
p817
S'front'
S' blue hallway'
tp818
a(g817
S'front'
S' barstool'
tp819
a(g817
S'front'
S' sofa'
tp820
aa(lp821
(S'travel'
S''
S''
tp822
aa(lp823
(S'travel'
S''
S''
tp824
aa(lp825
(S'travel'
S''
S''
tp826
aa(lp827
(S'travel'
S'steps'
S' 3'
tp828
aa(lp829
(S'verify'
S'front'
S' blue hallway'
tp830
aa(lp831
(S'verify'
S'front'
S' yellow hallway'
p832
tp833
aa(lp834
(S'turn'
S''
S''
tp835
aa(lp836
(S'turn'
S''
S''
tp837
aa(lp838
(S'turn'
S'right'
S''
tp839
aa(lp840
(S'travel'
S''
S''
tp841
aa(lp842
(S'turn'
S'right'
S''
tp843
aa(lp844
(S'verify'
S'back'
S' chair'
tp845
aa(lp846
(S'verify'
p847
S'front'
S' brick hallway'
tp848
a(g847
S'front'
S' hatrack'
tp849
a(g847
S'front'
S' lamp'
tp850
aa(lp851
(S'travel'
S''
S''
tp852
aa(lp853
(S'verify'
S'at'
S' easel'
tp854
aa(lp855
(S'travel'
S''
S''
tp856
aa(lp857
(S'turn'
S''
S''
tp858
aa(lp859
(S'turn'
S'right'
S''
tp860
aa(lp861
(S'verify'
S'front'
S' blue hallway'
tp862
aa(lp863
(S'turn'
S'left'
S''
tp864
aa(lp865
(g316
S''
S''
tp866
aa(lp867
(S'turn'
S''
S''
tp868
aa(lp869
(S'turn'
S'left'
S''
tp870
aa(lp871
(S'travel'
S''
S''
tp872
aa(lp873
(S'travel'
S'steps'
S' 1'
tp874
aa(lp875
(S'travel'
S''
S''
tp876
aa(lp877
(S'turn'
S''
S''
tp878
aa(lp879
(S'turn'
S''
S''
tp880
aa(lp881
(S'turn'
S'right'
S''
tp882
aa(lp883
(S'travel'
S'steps'
S' 1'
tp884
aa(lp885
(S'turn'
S'right'
S''
tp886
aa(lp887
(S'verify'
p888
S'back'
S' butterfly wall'
p889
tp890
a(g888
S'left'
S' butterfly wall'
p891
tp892
aa(lp893
(S'travel'
S''
S''
tp894
aa(lp895
(S'travel'
S''
S''
tp896
aa(lp897
(S'travel'
S''
S''
tp898
aa(lp899
(S'turn'
S'right'
S''
tp900
aa(lp901
(S'turn'
S''
S''
tp902
aa(lp903
(S'verify'
S'side'
S' blue hallway'
tp904
aa(lp905
(S'travel'
S'steps'
S' 1'
tp906
aa(lp907
(S'travel'
S'steps'
S' 2'
tp908
aa(lp909
(S'turn'
S'right'
S''
tp910
aa(lp911
(S'turn'
S'right'
S''
tp912
aa(lp913
(S'turn'
S'right'
S''
tp914
aa(lp915
(S'turn'
S''
S''
tp916
aa(lp917
(S'turn'
S'left'
S''
tp918
aa(lp919
(S'turn'
S''
S''
tp920
aa(lp921
(S'turn'
S''
S''
tp922
aa(lp923
(S'verify'
S'front'
S' hallway'
p924
tp925
aa(lp926
(S'turn'
S''
S''
tp927
aa(lp928
(S'travel'
S''
S''
tp929
aa(lp930
(S'verify'
S'at'
S' easel'
tp931
aa(lp932
(S'travel'
S''
S''
tp933
aa(lp934
(S'travel'
S'steps'
S' 1'
tp935
aa(lp936
(S'turn'
S'right'
S''
tp937
aa(lp938
(S'travel'
S'steps'
S' 4'
tp939
aa(lp940
(S'turn'
S''
S''
tp941
aa(lp942
(S'turn'
S'right'
S''
tp943
aa(lp944
(g316
S''
S''
tp945
aa(lp946
(S'turn'
S'left'
S''
tp947
aa(lp948
(S'turn'
S''
S''
tp949
aa(lp950
(S'travel'
S''
S''
tp951
aa(lp952
(S'verify'
S'front'
S' concrete hallway'
tp953
aa(lp954
(S'travel'
S'steps'
S' 2'
tp955
aa(lp956
(S'turn'
S'left'
S''
tp957
aa(lp958
(S'turn'
S''
S''
tp959
aa(lp960
(S'turn'
S'right'
S''
tp961
aa(lp962
(S'travel'
S''
S''
tp963
aa(lp964
(g316
S''
S''
tp965
aa(lp966
(S'verify'
S'front'
S' lamp'
tp967
aa(lp968
(S'turn'
S'left'
S''
tp969
aa(lp970
(S'travel'
S'steps'
S' 2'
tp971
aa(lp972
(S'travel'
S''
S''
tp973
aa(lp974
(S'turn'
S'left'
S''
tp975
aa(lp976
(S'turn'
S'left'
S''
tp977
aa(lp978
(S'turn'
S'left'
S''
tp979
aa(lp980
(S'verify'
p981
S'left'
S' flower hallway'
tp982
a(g981
S'right'
S' flower hallway'
tp983
aa(lp984
(S'verify'
S'front'
S' chair'
tp985
aa(lp986
(S'turn'
S'left'
S''
tp987
aa(lp988
(S'turn'
S''
S''
tp989
aa(lp990
(S'verify'
S'front'
S' chair'
tp991
aa(lp992
(S'verify'
S'right'
S' yellow hallway'
tp993
aa(lp994
(S'travel'
S'steps'
S' 1'
tp995
aa(lp996
(S'travel'
S''
S''
tp997
aa(lp998
(S'turn'
S'right'
S''
tp999
aa(lp1000
(S'travel'
S'steps'
S' 2'
tp1001
aa(lp1002
(S'turn'
S''
S''
tp1003
aa(lp1004
(S'turn'
S''
S''
tp1005
aa(lp1006
(S'verify'
S'front'
S' gravel hallway'
tp1007
aa(lp1008
(S'travel'
S'steps'
S' 5'
tp1009
aa(lp1010
(S'verify'
p1011
S'side'
S' concrete hallway'
tp1012
a(g1011
S'back'
S' yellow hallway'
p1013
tp1014
a(g1011
S'front'
S' yellow hallway'
tp1015
aa(lp1016
(S'travel'
S''
S''
tp1017
aa(lp1018
(S'travel'
S''
S''
tp1019
aa(lp1020
(S'turn'
S''
S''
tp1021
aa(lp1022
(S'turn'
S''
S''
tp1023
aa(lp1024
(S'turn'
S'left'
S''
tp1025
aa(lp1026
(S'turn'
S'left'
S''
tp1027
aa(lp1028
(S'turn'
S'left'
S''
tp1029
aa(lp1030
(S'verify'
S'left'
S' yellow hallway'
tp1031
aa(lp1032
(S'verify'
S'at'
S' easel'
tp1033
aa(lp1034
(S'turn'
S''
S''
tp1035
aa(lp1036
(S'travel'
S''
S''
tp1037
aa(lp1038
(S'verify'
S'front'
S' yellow hallway'
tp1039
aa(lp1040
(S'travel'
S''
S''
tp1041
aa(lp1042
(S'verify'
S'front'
S' gravel hallway'
tp1043
aa(lp1044
(S'turn'
S''
S''
tp1045
aa(lp1046
(S'turn'
S'right'
S''
tp1047
aa(lp1048
(S'turn'
S'right'
S''
tp1049
aa(lp1050
(S'turn'
S'left'
S''
tp1051
aa(lp1052
(S'verify'
S'front'
S' easel'
tp1053
aa(lp1054
(S'travel'
S''
S''
tp1055
aa(lp1056
(S'travel'
S''
S''
tp1057
aa(lp1058
(S'turn'
S'right'
S''
tp1059
aa(lp1060
(S'travel'
S''
S''
tp1061
aa(lp1062
(S'travel'
S'steps'
S' 1'
tp1063
aa(lp1064
(S'verify'
S'at'
S' hatrack'
tp1065
aa(lp1066
(S'turn'
S'left'
S''
tp1067
aa(lp1068
(S'verify'
p1069
S'front'
S' flower hallway'
tp1070
a(g1069
S'side'
S' brick hallway'
tp1071
aa(lp1072
(S'travel'
S''
S''
tp1073
aa(lp1074
(S'travel'
S''
S''
tp1075
aa(lp1076
(S'travel'
S''
S''
tp1077
aa(lp1078
(S'travel'
S'steps'
S' 1'
tp1079
aa(lp1080
(S'travel'
S''
S''
tp1081
aa(lp1082
(S'turn'
S'left'
S''
tp1083
aa(lp1084
(S'travel'
S''
S''
tp1085
aa(lp1086
(S'turn'
S''
S''
tp1087
aa(lp1088
(S'travel'
S''
S''
tp1089
aa(lp1090
(S'verify'
S'front'
S' blue hallway'
tp1091
aa(lp1092
(S'turn'
S''
S''
tp1093
aa(lp1094
(S'travel'
S''
S''
tp1095
aa(lp1096
(S'travel'
S'steps'
S' 3'
tp1097
aa(lp1098
(S'verify'
S'front'
S' grass hallway'
tp1099
aa(lp1100
(S'turn'
S'left'
S''
tp1101
aa(lp1102
(S'turn'
S''
S''
tp1103
aa(lp1104
(S'turn'
S''
S''
tp1105
aa(lp1106
(S'turn'
S'left'
S''
tp1107
aa(lp1108
(S'turn'
S'left'
S''
tp1109
aa(lp1110
(S'turn'
S'right'
S''
tp1111
aa(lp1112
(S'travel'
S'steps'
S' 1'
tp1113
aa(lp1114
(S'travel'
S'steps'
S' 2'
tp1115
aa(lp1116
(S'travel'
S''
S''
tp1117
aa(lp1118
(S'turn'
S''
S''
tp1119
aa(lp1120
(S'verify'
S'at'
S' easel'
tp1121
aa(lp1122
(S'travel'
S''
S''
tp1123
aa(lp1124
(S'turn'
S'left'
S''
tp1125
aa(lp1126
(S'turn'
S'left'
S''
tp1127
aa(lp1128
(S'travel'
S''
S''
tp1129
aa(lp1130
(S'travel'
S'steps'
S' 1'
tp1131
aa(lp1132
(S'travel'
S'steps'
S' 1'
tp1133
aa(lp1134
(S'travel'
S'steps'
S' 1'
tp1135
aa(lp1136
(S'travel'
S'steps'
S' 1'
tp1137
aa(lp1138
(S'travel'
S'steps'
S' 1'
tp1139
aa(lp1140
(S'travel'
S'steps'
S' 1'
tp1141
aa(lp1142
(S'turn'
S'right'
S''
tp1143
aa(lp1144
(S'turn'
S'left'
S''
tp1145
aa(lp1146
(S'travel'
S''
S''
tp1147
aa(lp1148
(S'travel'
S'steps'
S' 1'
tp1149
aa(lp1150
(g316
S''
S''
tp1151
aa(lp1152
(S'turn'
S'right'
S''
tp1153
aa(lp1154
(S'travel'
S''
S''
tp1155
aa(lp1156
(S'turn'
S''
S''
tp1157
aa(lp1158
(S'verify'
p1159
S'front'
S' lamp'
tp1160
a(g1159
S'front'
S' hatrack'
tp1161
aa(lp1162
(S'verify'
S'front'
S' blue hallway'
tp1163
aa(lp1164
(S'verify'
S'side'
S' flower hallway'
tp1165
aa(lp1166
(S'travel'
S'steps'
S' 4'
tp1167
aa(lp1168
(S'travel'
S'steps'
S' 2'
tp1169
aa(lp1170
(S'turn'
S''
S''
tp1171
aa(lp1172
(S'travel'
S'steps'
S' 2'
tp1173
aa(lp1174
(S'travel'
S'steps'
S' 1'
tp1175
aa(lp1176
(S'travel'
S''
S''
tp1177
aa(lp1178
(S'turn'
S''
S''
tp1179
aa(lp1180
(S'travel'
S'steps'
S' 2'
tp1181
aa(lp1182
(S'travel'
S''
S''
tp1183
aa(lp1184
(S'verify'
S'front'
S' yellow hallway'
tp1185
aa(lp1186
(S'turn'
S'left'
S''
tp1187
aa(lp1188
(S'turn'
S'left'
S''
tp1189
aa(lp1190
(S'turn'
S'right'
S''
tp1191
aa(lp1192
(S'turn'
S''
S''
tp1193
aa(lp1194
(S'turn'
S''
S''
tp1195
aa(lp1196
(S'travel'
S'steps'
S' 1'
tp1197
aa(lp1198
(S'verify'
S'front'
S' gravel hallway'
tp1199
aa(lp1200
(S'travel'
S'steps'
S' 1'
tp1201
aa(lp1202
(S'travel'
S'steps'
S' 2'
tp1203
aa(lp1204
(S'travel'
S'steps'
S' 1'
tp1205
aa(lp1206
(S'turn'
S'left'
S''
tp1207
aa(lp1208
(S'verify'
S'back'
S' sofa'
p1209
tp1210
aa(lp1211
(S'verify'
S'front'
S' brick hallway'
tp1212
aa(lp1213
(S'verify'
S'front'
S' blue hallway'
tp1214
aa(lp1215
(S'turn'
S''
S''
tp1216
aa(lp1217
(S'travel'
S''
S''
tp1218
aa(lp1219
(S'turn'
S''
S''
tp1220
aa(lp1221
(S'verify'
p1222
S'front'
S' hatrack'
tp1223
a(g1222
S'front'
S' lamp'
tp1224
aa(lp1225
(S'travel'
S'steps'
S' 2'
tp1226
aa(lp1227
(S'travel'
S''
S''
tp1228
aa(lp1229
(g316
S''
S''
tp1230
aa(lp1231
(S'travel'
S''
S''
tp1232
aa(lp1233
(S'travel'
S'steps'
p1234
S' 1'
p1235
tp1236
aa(lp1237
(S'turn'
S'left'
S''
tp1238
aa(lp1239
(S'turn'
S'left'
S''
tp1240
aa(lp1241
(S'verify'
p1242
S'front'
S' flower hallway'
tp1243
a(g1242
S'front'
S' easel'
tp1244
aa(lp1245
(S'verify'
S'at'
S' easel'
tp1246
aa(lp1247
(S'turn'
S'left'
S''
tp1248
aa(lp1249
(S'travel'
S''
S''
tp1250
aa(lp1251
(S'travel'
S''
S''
tp1252
aa(lp1253
(S'travel'
S''
S''
tp1254
aa(lp1255
(S'turn'
S'left'
S''
tp1256
aa(lp1257
(S'verify'
p1258
S'front'
S' lamp'
tp1259
a(g1258
S'right'
S' concrete hallway'
tp1260
aa(lp1261
(S'turn'
S''
S''
tp1262
aa(lp1263
(S'travel'
S'steps'
S' 3'
tp1264
aa(lp1265
(S'turn'
S''
S''
tp1266
aa(lp1267
(S'turn'
S'left'
S''
tp1268
aa(lp1269
(S'turn'
S''
S''
tp1270
aa(lp1271
(S'turn'
S''
S''
tp1272
aa(lp1273
(S'verify'
p1274
S'front'
S' blue hallway'
tp1275
a(g1274
S'front'
S' barstool'
tp1276
a(g1274
S'front'
S' sofa'
tp1277
aa(lp1278
(S'verify'
p1279
S'front'
S' barstool'
p1280
tp1281
a(g1279
S'front'
S' chair'
tp1282
aa(lp1283
(S'turn'
S''
S''
tp1284
aa(lp1285
(S'turn'
S'left'
S''
tp1286
aa(lp1287
(S'turn'
S'right'
S''
tp1288
aa(lp1289
(S'turn'
S''
S''
tp1290
aa(lp1291
(S'travel'
S'steps'
S' 1'
tp1292
aa(lp1293
(S'travel'
S'steps'
S' 1'
tp1294
aa(lp1295
(S'turn'
S''
S''
tp1296
aa(lp1297
(S'travel'
S''
S''
tp1298
aa(lp1299
(S'turn'
S''
S''
tp1300
aa(lp1301
(S'turn'
S'right'
S''
tp1302
aa(lp1303
(S'verify'
S'at'
S' easel'
tp1304
aa(lp1305
(S'turn'
S'left'
S''
tp1306
aa(lp1307
(S'travel'
S''
S''
tp1308
aa(lp1309
(S'verify'
S'right'
S' grass hallway'
tp1310
aa(lp1311
(S'turn'
S''
S''
tp1312
aa(lp1313
(S'turn'
S'left'
S''
tp1314
aa(lp1315
(S'turn'
S'left'
S''
tp1316
aa(lp1317
(S'travel'
S''
S''
tp1318
aa(lp1319
(S'travel'
S''
S''
tp1320
aa(lp1321
(S'travel'
S''
S''
tp1322
aa(lp1323
(S'travel'
S''
S''
tp1324
aa(lp1325
(S'turn'
S''
S''
tp1326
aa(lp1327
(S'travel'
S'steps'
S' 1'
tp1328
aa(lp1329
(S'travel'
S''
S''
tp1330
aa(lp1331
(g316
S''
S''
tp1332
aa(lp1333
(S'travel'
S'steps'
S' 1'
tp1334
aa(lp1335
(S'turn'
S'left'
S''
tp1336
aa(lp1337
(S'turn'
S''
S''
tp1338
aa(lp1339
(S'travel'
S''
S''
tp1340
aa(lp1341
(S'turn'
S'right'
S''
tp1342
aa(lp1343
(S'travel'
S'steps'
S' 1'
tp1344
aa(lp1345
(S'turn'
S'left'
S''
tp1346
aa(lp1347
(S'turn'
S''
S''
tp1348
aa(lp1349
(S'turn'
S''
S''
tp1350
aa(lp1351
(S'travel'
S'steps'
S' 1'
tp1352
aa(lp1353
(S'verify'
p1354
S'front'
S' blue hallway'
tp1355
a(g1354
S'front'
S' chair'
tp1356
aa(lp1357
(S'verify'
p1358
S'left'
S' wall'
p1359
tp1360
a(g1358
S'front'
S' wall'
p1361
tp1362
aa(lp1363
(S'turn'
S'left'
S''
tp1364
aa(lp1365
(S'travel'
S''
S''
tp1366
aa(lp1367
(S'travel'
S''
S''
tp1368
aa(lp1369
(S'travel'
S'steps'
S' 5'
tp1370
aa(lp1371
(S'travel'
S'steps'
S' 2'
tp1372
aa(lp1373
(S'travel'
S''
S''
tp1374
aa(lp1375
(S'travel'
S''
S''
tp1376
aa(lp1377
(S'turn'
S''
S''
tp1378
aa(lp1379
(S'turn'
S''
S''
tp1380
aa(lp1381
(S'travel'
S''
S''
tp1382
aa(lp1383
(S'travel'
S'steps'
S' 1'
tp1384
aa(lp1385
(S'turn'
S''
S''
tp1386
aa(lp1387
(S'turn'
S''
S''
tp1388
aa(lp1389
(S'travel'
S'steps'
S' 1'
tp1390
aa(lp1391
(S'travel'
S'steps'
S' 1'
tp1392
aa(lp1393
(S'travel'
S'steps'
S' 1'
tp1394
aa(lp1395
(S'travel'
S''
S''
tp1396
aa(lp1397
(S'travel'
S'steps'
S' 4'
tp1398
aa(lp1399
(S'turn'
S'left'
S''
tp1400
aa(lp1401
(g316
S''
S''
tp1402
aa(lp1403
(S'travel'
S'steps'
S' 1'
tp1404
aa(lp1405
(S'turn'
S'left'
S''
tp1406
aa(lp1407
(g316
S''
S''
tp1408
aa(lp1409
(S'travel'
S'steps'
S' 1'
tp1410
aa(lp1411
(g316
S''
S''
tp1412
aa(lp1413
(S'turn'
S''
S''
tp1414
aa(lp1415
(S'turn'
S'right'
S''
tp1416
aa(lp1417
(S'travel'
S'steps'
S' 2'
tp1418
aa(lp1419
(S'turn'
S''
S''
tp1420
aa(lp1421
(S'travel'
S''
S''
tp1422
aa(lp1423
(S'travel'
S''
S''
tp1424
aa(lp1425
(S'turn'
S''
S''
tp1426
aa(lp1427
(S'turn'
S'left'
S''
tp1428
aa(lp1429
(S'turn'
S'right'
S''
tp1430
aa(lp1431
(S'turn'
S'left'
S''
tp1432
aa(lp1433
(S'turn'
S'right'
S''
tp1434
aa(lp1435
(S'travel'
S'steps'
S' 1'
tp1436
aa(lp1437
(S'travel'
S''
S''
tp1438
aa(lp1439
(S'travel'
S'steps'
S' 3'
tp1440
aa(lp1441
(S'turn'
S''
S''
tp1442
aa(lp1443
(S'turn'
S'left'
S''
tp1444
aa(lp1445
(S'travel'
S''
S''
tp1446
aa(lp1447
(S'turn'
S''
S''
tp1448
aa(lp1449
(S'turn'
S''
S''
tp1450
aa(lp1451
(S'travel'
S'steps'
S' 1'
tp1452
aa(lp1453
(S'verify'
p1454
S'front'
S' blue hallway'
tp1455
a(g1454
S'front'
S' sofa'
tp1456
a(g1454
S'front'
S' barstool'
tp1457
a(g1454
S'front'
S' chair'
tp1458
aa(lp1459
(S'travel'
S''
S''
tp1460
aa(lp1461
(S'travel'
S'steps'
S' 2'
tp1462
aa(lp1463
(S'verify'
p1464
S'left'
S' concrete hallway'
tp1465
a(g1464
S'left'
S' sofa'
tp1466
aa(lp1467
(S'turn'
S'left'
S''
tp1468
aa(lp1469
(S'travel'
S''
S''
tp1470
aa(lp1471
(S'turn'
S''
S''
tp1472
aa(lp1473
(S'turn'
S'left'
S''
tp1474
aa(lp1475
(S'travel'
S'steps'
S' 3'
tp1476
aa(lp1477
(S'turn'
S'left'
S''
tp1478
aa(lp1479
(g316
S''
S''
tp1480
aa(lp1481
(S'turn'
S''
S''
tp1482
aa(lp1483
(S'verify'
S'front'
S' yellow hallway'
tp1484
aa(lp1485
(S'turn'
S'right'
S''
tp1486
aa(lp1487
(S'verify'
S'front'
S' blue hallway'
tp1488
aa(lp1489
(S'travel'
S''
S''
tp1490
aa(lp1491
(S'verify'
S'front'
S' chair'
tp1492
aa(lp1493
(S'turn'
S'left'
S''
tp1494
aa(lp1495
(S'verify'
S'at'
S' easel'
tp1496
aa(lp1497
(S'turn'
S'left'
S''
tp1498
aa(lp1499
(S'travel'
S''
S''
tp1500
aa(lp1501
(S'turn'
S''
S''
tp1502
aa(lp1503
(S'travel'
S'steps'
S' 1'
tp1504
aa(lp1505
(S'turn'
S'right'
S''
tp1506
aa(lp1507
(S'travel'
S'steps'
S' 1'
tp1508
aa(lp1509
(S'travel'
S''
S''
tp1510
aa(lp1511
(S'turn'
S''
S''
tp1512
aa(lp1513
(S'travel'
S'steps'
S' 1'
tp1514
aa(lp1515
(S'travel'
S'steps'
S' 1'
tp1516
aa(lp1517
(S'verify'
S'front'
S' blue hallway'
tp1518
aa(lp1519
(S'turn'
S'right'
S''
tp1520
aa(lp1521
(S'turn'
S''
S''
tp1522
aa(lp1523
(S'travel'
S'steps'
S' 1'
tp1524
aa(lp1525
(S'verify'
S'front'
S' brick hallway'
tp1526
aa(lp1527
(S'turn'
S''
S''
tp1528
aa(lp1529
(S'turn'
S''
S''
tp1530
aa(lp1531
(S'travel'
S''
S''
tp1532
aa(lp1533
(S'verify'
S'front'
S' blue hallway'
tp1534
aa(lp1535
(S'verify'
S'front'
S' wall'
tp1536
aa(lp1537
(S'turn'
S'left'
S''
tp1538
aa(lp1539
(S'turn'
S''
S''
tp1540
aa(lp1541
(S'turn'
S'right'
S''
tp1542
aa(lp1543
(S'turn'
S'left'
S''
tp1544
aa(lp1545
(S'turn'
S''
S''
tp1546
aa(lp1547
(S'verify'
p1548
S'back'
S' wall'
p1549
tp1550
a(g1548
S'at'
S' 3-intersection'
tp1551
aa(lp1552
(S'travel'
S''
S''
tp1553
aa(lp1554
(S'travel'
S'steps'
S' 1'
tp1555
aa(lp1556
(S'turn'
S'right'
S''
tp1557
aa(lp1558
(S'travel'
S'steps'
S' 2'
tp1559
aa(lp1560
(S'travel'
S''
S''
tp1561
aa(lp1562
(S'turn'
S''
S''
tp1563
aa(lp1564
(S'turn'
S''
S''
tp1565
aa(lp1566
(S'turn'
S''
S''
tp1567
aa(lp1568
(S'travel'
S'steps'
S' 1'
tp1569
aa(lp1570
(S'turn'
S'left'
S''
tp1571
aa(lp1572
(S'turn'
S'left'
S''
tp1573
aa(lp1574
(S'turn'
S''
S''
tp1575
aa(lp1576
(S'turn'
S'left'
S''
tp1577
aa(lp1578
(S'turn'
S'left'
S''
tp1579
aa(lp1580
(S'travel'
S''
S''
tp1581
aa(lp1582
(S'travel'
S''
S''
tp1583
aa(lp1584
(S'travel'
S'steps'
S' 1'
tp1585
aa(lp1586
(S'turn'
S''
S''
tp1587
aa(lp1588
(S'travel'
S'steps'
S' 1'
tp1589
aa(lp1590
(S'travel'
S'steps'
S' 2'
tp1591
aa(lp1592
(S'travel'
S'steps'
S' 1'
tp1593
aa(lp1594
(S'travel'
S''
S''
tp1595
aa(lp1596
(S'travel'
S'steps'
S' 1'
tp1597
aa(lp1598
(S'verify'
S'left'
S' chair'
tp1599
aa(lp1600
(S'turn'
S''
S''
tp1601
aa(lp1602
(S'travel'
S'steps'
S' 3'
tp1603
aa(lp1604
(S'travel'
S'steps'
S' 5'
tp1605
aa(lp1606
(S'verify'
S'front'
S' yellow hallway'
tp1607
aa(lp1608
(S'verify'
S'front'
S' lamp'
tp1609
aa(lp1610
(S'travel'
S'steps'
S' 1'
tp1611
aa(lp1612
(S'travel'
S'steps'
S' 1'
tp1613
aa(lp1614
(S'turn'
S''
S''
tp1615
aa(lp1616
(S'turn'
S'right'
S''
tp1617
aa(lp1618
(S'travel'
S''
S''
tp1619
aa(lp1620
(S'travel'
S''
S''
tp1621
aa(lp1622
(S'travel'
S''
S''
tp1623
aa(lp1624
(S'verify'
S'front'
S' tower wall'
p1625
tp1626
aa(lp1627
(S'travel'
S'steps'
S' 3'
tp1628
aa(lp1629
(S'travel'
S'steps'
S' 1'
tp1630
aa(lp1631
(S'verify'
S'at'
S' sofa'
tp1632
aa(lp1633
(S'travel'
S''
S''
tp1634
aa(lp1635
(S'verify'
p1636
S'front'
S' brick hallway'
tp1637
a(g1636
S'front'
S' lamp'
tp1638
aa(lp1639
(S'turn'
S''
S''
tp1640
aa(lp1641
(S'travel'
S''
S''
tp1642
aa(lp1643
(S'travel'
S'steps'
S' 4'
tp1644
aa(lp1645
(S'verify'
p1646
S'front'
S' wall'
tp1647
a(g1646
S'left'
S' wall'
tp1648
aa(lp1649
(g316
S''
S''
tp1650
aa(lp1651
(S'turn'
S'left'
S''
tp1652
aa(lp1653
(S'travel'
S'steps'
S' 1'
tp1654
aa(lp1655
(S'travel'
S'steps'
S' 3'
tp1656
aa(lp1657
(S'turn'
S''
S''
tp1658
aa(lp1659
(S'turn'
S'left'
S''
tp1660
aa(lp1661
(S'turn'
S'right'
S''
tp1662
aa(lp1663
(S'turn'
S'left'
S''
tp1664
aa(lp1665
(S'turn'
S'left'
S''
tp1666
aa(lp1667
(S'turn'
S'left'
S''
tp1668
aa(lp1669
(S'turn'
S''
S''
tp1670
aa(lp1671
(S'turn'
S''
S''
tp1672
aa(lp1673
(S'verify'
S'front'
S' chair'
tp1674
aa(lp1675
(S'travel'
S'steps'
S' 3'
tp1676
aa(lp1677
(S'turn'
S'left'
S''
tp1678
aa(lp1679
(S'verify'
S'at'
S' easel'
tp1680
aa(lp1681
(S'travel'
S'steps'
S' 1'
tp1682
aa(lp1683
(S'turn'
S'right'
S''
tp1684
aa(lp1685
(S'verify'
S'back'
p1686
S' fish wall'
p1687
tp1688
aa(lp1689
(S'travel'
S''
S''
tp1690
aa(lp1691
(S'travel'
S'steps'
S' 1'
tp1692
aa(lp1693
(S'travel'
S'steps'
S' 2'
tp1694
aa(lp1695
(S'travel'
S'steps'
S' 1'
tp1696
aa(lp1697
(S'travel'
S''
S''
tp1698
aa(lp1699
(S'verify'
S'front'
S' fish wall'
p1700
tp1701
aa(lp1702
(S'verify'
S'at'
S' hatrack'
tp1703
aa(lp1704
(S'verify'
S'front'
S' flower hallway'
tp1705
aa(lp1706
(S'turn'
S'left'
S''
tp1707
aa(lp1708
(S'verify'
S'back'
S' blue hallway'
p1709
tp1710
aa(lp1711
(S'turn'
S''
S''
tp1712
aa(lp1713
(S'travel'
S'steps'
S' 1'
tp1714
aa(lp1715
(S'verify'
S'front'
S' barstool'
tp1716
aa(lp1717
(S'turn'
S'left'
S''
tp1718
aa(lp1719
(S'turn'
S'left'
S''
tp1720
aa(lp1721
(S'turn'
S'right'
S''
tp1722
aa(lp1723
(S'turn'
S'right'
S''
tp1724
aa(lp1725
(S'turn'
S'right'
S''
tp1726
aa(lp1727
(S'turn'
S''
S''
tp1728
aa(lp1729
(S'turn'
S''
S''
tp1730
aa(lp1731
(S'travel'
S''
S''
tp1732
aa(lp1733
(S'verify'
p1734
S'front'
S' blue hallway'
tp1735
a(g1734
S'front'
S' chair'
tp1736
a(g1734
S'front'
S' barstool'
tp1737
a(g1734
S'front'
S' sofa'
tp1738
aa(lp1739
(S'travel'
S''
S''
tp1740
aa(lp1741
(S'travel'
S'steps'
S' 1'
tp1742
aa(lp1743
(S'travel'
S'steps'
S' 1'
tp1744
aa(lp1745
(S'turn'
S'right'
S''
tp1746
aa(lp1747
(S'turn'
S'left'
S''
tp1748
aa(lp1749
(S'travel'
S''
S''
tp1750
aa(lp1751
(S'turn'
S''
S''
tp1752
aa(lp1753
(S'turn'
S''
S''
tp1754
aa(lp1755
(S'travel'
S'steps'
S' 2'
tp1756
aa(lp1757
(S'turn'
S'right'
S''
tp1758
aa(lp1759
(S'travel'
S''
S''
tp1760
aa(lp1761
(S'travel'
S'steps'
S' 1'
tp1762
aa(lp1763
(S'turn'
S''
S''
tp1764
aa(lp1765
(S'verify'
S'side'
S' flower hallway'
tp1766
aa(lp1767
(S'verify'
S'front'
S' brick hallway'
tp1768
aa(lp1769
(g316
S''
S''
tp1770
aa(lp1771
(S'travel'
S''
S''
tp1772
aa(lp1773
(S'verify'
S'front'
S' fish wall'
tp1774
aa(lp1775
(S'verify'
S'at'
S' hatrack'
tp1776
aa(lp1777
(S'turn'
S'left'
S''
tp1778
aa(lp1779
(S'travel'
S''
S''
tp1780
aa(lp1781
(S'travel'
S''
S''
tp1782
aa(lp1783
(S'turn'
S''
S''
tp1784
aa(lp1785
(S'travel'
S''
S''
tp1786
aa(lp1787
(g316
S''
S''
tp1788
aa(lp1789
(S'travel'
S''
S''
tp1790
aa(lp1791
(S'travel'
S''
S''
tp1792
aa(lp1793
(S'turn'
S''
S''
tp1794
aa(lp1795
(S'turn'
S'right'
S''
tp1796
aa(lp1797
(S'verify'
S'side'
S' yellow hallway'
p1798
tp1799
aa(lp1800
(S'travel'
S'steps'
S' 2'
tp1801
aa(lp1802
(S'travel'
S''
S''
tp1803
aa(lp1804
(S'turn'
S'right'
S''
tp1805
aa(lp1806
(S'travel'
S''
S''
tp1807
aa(lp1808
(S'turn'
S'right'
S''
tp1809
aa(lp1810
(S'travel'
S''
S''
tp1811
aa(lp1812
(S'turn'
S''
S''
tp1813
aa(lp1814
(S'turn'
S''
S''
tp1815
aa(lp1816
(S'travel'
S''
S''
tp1817
aa(lp1818
(S'turn'
S''
S''
tp1819
aa(lp1820
(S'travel'
S'steps'
S' 1'
tp1821
aa(lp1822
(S'verify'
S'side'
S' blue hallway'
tp1823
aa(lp1824
(S'turn'
S'right'
S''
tp1825
aa(lp1826
(S'turn'
S'right'
S''
tp1827
aa(lp1828
(S'travel'
S'steps'
S' 1'
tp1829
aa(lp1830
(S'travel'
S''
S''
tp1831
aa(lp1832
(S'turn'
S'right'
S''
tp1833
aa(lp1834
(S'travel'
p1835
S''
S''
tp1836
aa(lp1837
(S'turn'
S''
S''
tp1838
aa(lp1839
(S'travel'
S''
S''
tp1840
aa(lp1841
(S'verify'
S'front'
S' chair'
tp1842
aa(lp1843
(S'turn'
S'left'
S''
tp1844
aa(lp1845
(S'turn'
S'left'
S''
tp1846
aa(lp1847
(S'travel'
S'steps'
S' 1'
tp1848
aa(lp1849
(S'turn'
S'right'
S''
tp1850
aa(lp1851
(S'turn'
S'left'
S''
tp1852
aa(lp1853
(S'turn'
S'left'
S''
tp1854
aa(lp1855
(S'verify'
p1856
S'at'
S' easel'
tp1857
a(g1856
S'side'
S' brick hallway'
tp1858
aa(lp1859
(S'travel'
S'steps'
S' 2'
tp1860
aa(lp1861
(S'turn'
S''
S''
tp1862
aa(lp1863
(S'turn'
S'left'
S''
tp1864
aa(lp1865
(S'travel'
S'steps'
S' 1'
tp1866
aa(lp1867
(S'turn'
S''
S''
tp1868
aa(lp1869
(S'travel'
S''
S''
tp1870
aa(lp1871
(S'travel'
S''
S''
tp1872
aa(lp1873
(S'travel'
S'steps'
S' 1'
tp1874
aa(lp1875
(S'turn'
S'left'
S''
tp1876
aa(lp1877
(S'turn'
S'left'
S''
tp1878
aa(lp1879
(S'verify'
p1880
S'front'
S' brick hallway'
tp1881
a(g1880
S'back'
S' lamp'
tp1882
aa(lp1883
(S'turn'
S'right'
S''
tp1884
aa(lp1885
(S'travel'
S''
S''
tp1886
aa(lp1887
(S'turn'
S''
S''
tp1888
aa(lp1889
(S'travel'
S'steps'
S' 2'
tp1890
aa(lp1891
(S'turn'
S''
S''
tp1892
aa(lp1893
(S'turn'
S'right'
S''
tp1894
aa(lp1895
(S'turn'
S'right'
S''
tp1896
aa(lp1897
(S'travel'
S''
S''
tp1898
aa(lp1899
(S'verify'
S'at'
S' easel'
tp1900
aa(lp1901
(S'travel'
S''
S''
tp1902
aa(lp1903
(S'turn'
S''
S''
tp1904
aa(lp1905
(S'travel'
S''
S''
tp1906
aa(lp1907
(S'travel'
S'steps'
S' 2'
tp1908
aa(lp1909
(S'turn'
S'right'
S''
tp1910
aa(lp1911
(S'verify'
S'at'
S' hatrack'
tp1912
aa(lp1913
(S'verify'
S'front'
S' wall'
tp1914
aa(lp1915
(S'travel'
S''
S''
tp1916
aa(lp1917
(S'turn'
S'right'
S''
tp1918
aa(lp1919
(S'travel'
S'steps'
S' 1'
tp1920
aa(lp1921
(S'travel'
S'steps'
S' 2'
tp1922
aa(lp1923
(S'travel'
S''
S''
tp1924
aa(lp1925
(S'travel'
S'steps'
S' 1'
tp1926
aa(lp1927
(S'turn'
S'left'
S''
tp1928
aa(lp1929
(S'turn'
S'left'
S''
tp1930
aa(lp1931
(S'turn'
S'right'
S''
tp1932
aa(lp1933
(S'travel'
S''
S''
tp1934
aa(lp1935
(g316
S''
S''
tp1936
aa(lp1937
(S'travel'
S'steps'
S' 1'
tp1938
aa(lp1939
(S'travel'
S''
S''
tp1940
aa(lp1941
(S'turn'
S'right'
S''
tp1942
aa(lp1943
(S'turn'
S'left'
S''
tp1944
aa(lp1945
(S'turn'
S'right'
S''
tp1946
aa(lp1947
(S'travel'
S''
S''
tp1948
aa(lp1949
(S'turn'
S'right'
S''
tp1950
aa(lp1951
(S'travel'
S''
S''
tp1952
aa(lp1953
(S'turn'
S''
S''
tp1954
aa(lp1955
(S'verify'
p1956
S'left'
S' sofa'
tp1957
a(g1956
S'right'
S' barstool'
tp1958
aa(lp1959
(S'turn'
S'left'
S''
tp1960
aa(lp1961
(S'turn'
S''
S''
tp1962
aa(lp1963
(S'turn'
S'right'
S''
tp1964
aa(lp1965
(S'travel'
S'steps'
S' 2'
tp1966
aa(lp1967
(S'turn'
S''
S''
tp1968
aa(lp1969
(S'turn'
S'right'
S''
tp1970
aa(lp1971
(S'travel'
S'steps'
S' 1'
tp1972
aa(lp1973
(S'turn'
S'right'
S''
tp1974
aa(lp1975
(S'travel'
S''
S''
tp1976
aa(lp1977
(S'turn'
S'left'
S''
tp1978
aa(lp1979
(S'travel'
S'steps'
S' 3'
tp1980
aa(lp1981
(S'turn'
S'right'
S''
tp1982
aa(lp1983
(S'turn'
S'right'
S''
tp1984
aa(lp1985
(S'travel'
S'steps'
S' 1'
tp1986
aa(lp1987
(S'turn'
S''
S''
tp1988
aa(lp1989
(S'travel'
S'steps'
S' 1'
tp1990
aa(lp1991
(S'turn'
S''
S''
tp1992
aa(lp1993
(S'verify'
p1994
S'left'
S' concrete hallway'
tp1995
a(g1994
S'left'
S' sofa'
p1996
tp1997
aa(lp1998
(S'travel'
S''
S''
tp1999
aa(lp2000
(S'travel'
S''
S''
tp2001
aa(lp2002
(S'turn'
S'right'
S''
tp2003
aa(lp2004
(S'turn'
S'right'
S''
tp2005
aa(lp2006
(S'turn'
S'right'
S''
tp2007
aa(lp2008
(S'turn'
S''
S''
tp2009
aa(lp2010
(S'turn'
S'left'
S''
tp2011
aa(lp2012
(S'travel'
S'steps'
S' 1'
tp2013
aa(lp2014
(S'turn'
S''
S''
tp2015
aa(lp2016
(S'turn'
S''
S''
tp2017
aa(lp2018
(S'verify'
S'front'
S' butterfly wall'
tp2019
aa(lp2020
(S'turn'
S''
S''
tp2021
aa(lp2022
(S'turn'
S''
S''
tp2023
aa(lp2024
(S'turn'
S''
S''
tp2025
aa(lp2026
(S'travel'
S''
S''
tp2027
aa(lp2028
(S'turn'
S'right'
S''
tp2029
aa(lp2030
(S'travel'
S'steps'
S' 1'
tp2031
aa(lp2032
(S'travel'
S'steps'
S' 1'
tp2033
aa(lp2034
(S'verify'
S'at'
S' hatrack'
tp2035
aa(lp2036
(S'turn'
S''
S''
tp2037
aa(lp2038
(S'turn'
S'left'
S''
tp2039
aa(lp2040
(S'travel'
S''
S''
tp2041
aa(lp2042
(S'travel'
S''
S''
tp2043
aa(lp2044
(S'travel'
S'steps'
S' 2'
tp2045
aa(lp2046
(S'travel'
S'steps'
S' 1'
tp2047
aa(lp2048
(S'turn'
S'left'
S''
tp2049
aa(lp2050
(S'turn'
S'left'
S''
tp2051
aa(lp2052
(S'travel'
S''
S''
tp2053
aa(lp2054
(S'turn'
S'right'
S''
tp2055
aa(lp2056
(S'turn'
S''
S''
tp2057
aa(lp2058
(S'verify'
S'front'
S' lamp'
tp2059
aa(lp2060
(S'verify'
S'front'
S' chair'
tp2061
aa(lp2062
(S'verify'
p2063
S'front'
S' brick hallway'
tp2064
a(g2063
S'front'
S' lamp'
tp2065
a(g2063
S'front'
S' easel'
tp2066
aa(lp2067
(S'travel'
S''
S''
tp2068
aa(lp2069
(S'turn'
S''
S''
tp2070
aa(lp2071
(S'turn'
S'left'
S''
tp2072
aa(lp2073
(S'turn'
S'left'
S''
tp2074
aa(lp2075
(S'travel'
S''
S''
tp2076
aa(lp2077
(S'travel'
S'steps'
S' 1'
tp2078
aa(lp2079
(S'turn'
S'left'
S''
tp2080
aa(lp2081
(S'travel'
S'steps'
S' 1'
tp2082
aa(lp2083
(S'turn'
S''
S''
tp2084
aa(lp2085
(S'travel'
S''
S''
tp2086
aa(lp2087
(S'verify'
S'back'
S' sofa'
tp2088
aa(lp2089
(S'travel'
S''
S''
tp2090
aa(lp2091
(S'verify'
S'front'
S' blue hallway'
tp2092
aa(lp2093
(S'travel'
S'steps'
S' 1'
tp2094
aa(lp2095
(S'travel'
S'steps'
S' 1'
tp2096
aa(lp2097
(S'turn'
S'right'
S''
tp2098
aa(lp2099
(S'verify'
p2100
S'front'
S' yellow hallway'
tp2101
a(g2100
S'side'
S' gravel hallway'
tp2102
aa(lp2103
(g316
S''
S''
tp2104
aa(lp2105
(S'verify'
p2106
S'front'
S' hatrack'
p2107
tp2108
a(g2106
S'front'
S' flower hallway'
tp2109
aa(lp2110
(S'verify'
S'at'
S' hatrack'
tp2111
aa(lp2112
(S'verify'
p2113
S'left'
S' wall'
tp2114
a(g2113
S'right'
S' wall'
tp2115
a(g2113
S'front'
S' wall'
tp2116
a(g2113
S'back'
S' fish wall'
tp2117
a(g2113
S'back'
S' yellow hallway'
tp2118
aa(lp2119
(S'travel'
S'steps'
S' 1'
tp2120
aa(lp2121
(S'turn'
S'left'
S''
tp2122
aa(lp2123
(S'travel'
S'steps'
S' 1'
tp2124
aa(lp2125
(S'verify'
S'front'
S' blue hallway'
tp2126
aa(lp2127
(S'travel'
S'steps'
S' 2'
tp2128
aa(lp2129
(S'travel'
S'steps'
S' 1'
tp2130
aa(lp2131
(S'turn'
S'right'
S''
tp2132
aa(lp2133
(S'travel'
S''
S''
tp2134
aa(lp2135
(S'travel'
S'steps'
S' 1'
tp2136
aa(lp2137
(S'travel'
S''
S''
tp2138
aa(lp2139
(S'travel'
S'steps'
S' 2'
tp2140
aa(lp2141
(S'travel'
S'steps'
S' 2'
tp2142
aa(lp2143
(S'turn'
S''
S''
tp2144
aa(lp2145
(S'turn'
S'left'
S''
tp2146
aa(lp2147
(S'travel'
S''
S''
tp2148
aa(lp2149
(S'turn'
S'left'
S''
tp2150
aa(lp2151
(S'travel'
S'steps'
S' 1'
tp2152
aa(lp2153
(S'travel'
S''
S''
tp2154
aa(lp2155
(S'travel'
S'steps'
S' 1'
tp2156
aa(lp2157
(S'verify'
S'front'
S' blue hallway'
tp2158
aa(lp2159
(S'travel'
S'steps'
S' 1'
tp2160
aa(lp2161
(S'travel'
S''
S''
tp2162
aa(lp2163
(S'travel'
S'steps'
S' 1'
tp2164
aa(lp2165
(S'travel'
S'steps'
S' 1'
tp2166
aa(lp2167
(S'verify'
S'left'
S' lamp'
tp2168
aa(lp2169
(S'turn'
S'left'
S''
tp2170
aa(lp2171
(S'travel'
S'steps'
S' 1'
tp2172
aa(lp2173
(S'turn'
S'left'
S''
tp2174
aa(lp2175
(S'travel'
S'steps'
S' 1'
tp2176
aa(lp2177
(S'verify'
S'front'
S' lamp'
tp2178
aa(lp2179
(S'turn'
S''
S''
tp2180
aa(lp2181
(S'travel'
S''
S''
tp2182
aa(lp2183
(S'travel'
S'steps'
S' 1'
tp2184
aa(lp2185
(S'travel'
S''
S''
tp2186
aa(lp2187
(S'travel'
S''
S''
tp2188
aa(lp2189
(S'verify'
S'front'
S' wood hallway'
tp2190
aa(lp2191
(S'travel'
S''
S''
tp2192
aa(lp2193
(S'turn'
S''
S''
tp2194
aa(lp2195
(S'verify'
S'left'
S' hatrack'
p2196
tp2197
aa(lp2198
(S'turn'
S''
S''
tp2199
aa(lp2200
(S'turn'
S''
S''
tp2201
aa(lp2202
(S'turn'
S'right'
S''
tp2203
aa(lp2204
(S'verify'
S'at'
S' easel'
tp2205
aa(lp2206
(S'travel'
S'steps'
S' 1'
tp2207
aa(lp2208
(S'travel'
S''
S''
tp2209
aa(lp2210
(S'travel'
S'steps'
S' 1'
tp2211
aa(lp2212
(S'travel'
S'steps'
S' 1'
tp2213
aa(lp2214
(S'travel'
S''
S''
tp2215
aa(lp2216
(S'turn'
S'right'
S''
tp2217
aa(lp2218
(S'travel'
S''
S''
tp2219
aa(lp2220
(S'turn'
S'left'
S''
tp2221
aa(lp2222
(S'verify'
S'at'
S' easel'
tp2223
aa(lp2224
(S'travel'
S''
S''
tp2225
aa(lp2226
(S'travel'
S'steps'
S' 1'
tp2227
aa(lp2228
(S'turn'
S'right'
S''
tp2229
aa(lp2230
(S'turn'
S''
S''
tp2231
aa(lp2232
(S'travel'
S''
S''
tp2233
aa(lp2234
(S'verify'
p2235
S'front'
S' hatrack'
tp2236
a(g2235
S'left'
S' hallway'
tp2237
aa(lp2238
(S'turn'
S''
S''
tp2239
aa(lp2240
(S'travel'
S'steps'
S' 1'
tp2241
aa(lp2242
(S'travel'
S''
S''
tp2243
aa(lp2244
(S'travel'
S''
S''
tp2245
aa(lp2246
(S'turn'
S'left'
S''
tp2247
aa(lp2248
(S'turn'
S'left'
S''
tp2249
aa(lp2250
(S'turn'
S'left'
S''
tp2251
aa(lp2252
(S'turn'
S'left'
S''
tp2253
aa(lp2254
(S'travel'
S'steps'
S' 1'
tp2255
aa(lp2256
(S'travel'
S'steps'
S' 1'
tp2257
aa(lp2258
(S'turn'
S''
S''
tp2259
aa(lp2260
(S'travel'
S''
S''
tp2261
aa(lp2262
(S'turn'
S'right'
S''
tp2263
aa(lp2264
(S'travel'
S''
S''
tp2265
aa(lp2266
(S'travel'
S'steps'
S' 2'
tp2267
aa(lp2268
(S'turn'
S'left'
S''
tp2269
aa(lp2270
(S'verify'
S'at'
S' easel'
tp2271
aa(lp2272
(S'turn'
S''
S''
tp2273
aa(lp2274
(S'travel'
S'steps'
S' 1'
tp2275
aa(lp2276
(S'travel'
S''
S''
tp2277
aa(lp2278
(S'travel'
S'steps'
S' 1'
tp2279
aa(lp2280
(S'travel'
S''
S''
tp2281
aa(lp2282
(S'turn'
S'left'
S''
tp2283
aa(lp2284
(S'travel'
S'steps'
S' 1'
tp2285
aa(lp2286
(S'travel'
S''
S''
tp2287
aa(lp2288
(S'travel'
S''
S''
tp2289
aa(lp2290
(S'travel'
S'steps'
S' 4'
tp2291
aa(lp2292
(S'travel'
S'steps'
S' 1'
tp2293
aa(lp2294
(S'travel'
S'steps'
S' 1'
tp2295
aa(lp2296
(S'turn'
S'right'
S''
tp2297
aa(lp2298
(S'turn'
S'left'
S''
tp2299
aa(lp2300
(S'turn'
S'left'
S''
tp2301
aa(lp2302
(S'turn'
S''
S''
tp2303
aa(lp2304
(S'travel'
S''
S''
tp2305
aa(lp2306
(S'travel'
S''
S''
tp2307
aa(lp2308
(S'turn'
S'right'
S''
tp2309
aa(lp2310
(S'turn'
S''
S''
tp2311
aa(lp2312
(S'verify'
S'right'
S' grass hallway'
p2313
tp2314
aa(lp2315
(S'travel'
S''
S''
tp2316
aa(lp2317
(S'turn'
S'right'
S''
tp2318
aa(lp2319
(S'verify'
S'front'
S' grass hallway'
tp2320
aa(lp2321
(S'verify'
p2322
S'front'
S' gravel hallway'
tp2323
a(g2322
S'back'
S' easel'
p2324
tp2325
aa(lp2326
(S'turn'
S''
S''
tp2327
aa(lp2328
(S'travel'
S'steps'
S' 2'
tp2329
aa(lp2330
(S'verify'
p2331
S'front'
S' wood hallway'
tp2332
a(g2331
S'side'
S' butterfly wall'
p2333
tp2334
aa(lp2335
(S'verify'
S'front'
S' gravel hallway'
tp2336
aa(lp2337
(S'travel'
S''
S''
tp2338
aa(lp2339
(S'turn'
S'left'
S''
tp2340
aa(lp2341
(g316
S''
S''
tp2342
aa(lp2343
(g316
S''
S''
tp2344
aa(lp2345
(S'travel'
S'steps'
S' 2'
tp2346
aa(lp2347
(S'verify'
p2348
S'front'
S' brick hallway'
tp2349
a(g2348
S'front'
S' lamp'
tp2350
aa(lp2351
(S'turn'
S''
S''
tp2352
aa(lp2353
(S'turn'
S''
S''
tp2354
aa(lp2355
(S'travel'
S'steps'
S' 2'
tp2356
aa(lp2357
(S'travel'
S'steps'
S' 3'
tp2358
aa(lp2359
(S'verify'
p2360
S'front'
S' hatrack'
tp2361
a(g2360
S'back'
S' lamp'
tp2362
aa(lp2363
(S'turn'
S''
S''
tp2364
aa(lp2365
(S'travel'
S''
S''
tp2366
aa(lp2367
(S'travel'
S'steps'
S' 1'
tp2368
aa(lp2369
(S'turn'
S'left'
S''
tp2370
aa(lp2371
(S'verify'
S'left'
S' concrete hallway'
tp2372
aa(lp2373
(S'verify'
S'right'
S' easel'
tp2374
aa(lp2375
(S'turn'
S'right'
S''
tp2376
aa(lp2377
(S'travel'
S'steps'
S' 1'
tp2378
aa(lp2379
(S'travel'
S'steps'
S' 1'
tp2380
aa(lp2381
(S'turn'
S''
S''
tp2382
aa(lp2383
(g316
S''
S''
tp2384
aa(lp2385
(S'turn'
S''
S''
tp2386
aa(lp2387
(S'travel'
S'steps'
S' 2'
tp2388
aa(lp2389
(S'turn'
S'left'
S''
tp2390
aa(lp2391
(S'travel'
S''
S''
tp2392
aa(lp2393
(S'travel'
S''
S''
tp2394
aa(lp2395
(S'verify'
S'front'
S' lamp'
tp2396
aa(lp2397
(S'turn'
S''
S''
tp2398
aa(lp2399
(g316
S''
S''
tp2400
aa(lp2401
(S'verify'
S'front'
S' easel'
tp2402
aa(lp2403
(S'travel'
p2404
S''
S''
tp2405
aa(lp2406
(S'verify'
p2407
S'front'
S' wood hallway'
tp2408
a(g2407
S'front'
S' lamp'
tp2409
aa(lp2410
(S'turn'
S'left'
S''
tp2411
aa(lp2412
(S'travel'
S''
S''
tp2413
aa(lp2414
(S'travel'
S''
S''
tp2415
aa(lp2416
(S'travel'
S''
S''
tp2417
aa(lp2418
(S'travel'
S''
S''
tp2419
aa(lp2420
(S'travel'
S''
S''
tp2421
aa(lp2422
(S'verify'
S'front'
S' yellow hallway'
tp2423
aa(lp2424
(S'travel'
S'steps'
S' 2'
tp2425
aa(lp2426
(S'travel'
S''
S''
tp2427
aa(lp2428
(S'turn'
S''
S''
tp2429
aa(lp2430
(S'turn'
S''
S''
tp2431
aa(lp2432
(S'verify'
S'side'
S' brick hallway'
tp2433
aa(lp2434
(S'turn'
S''
S''
tp2435
aa(lp2436
(S'verify'
p2437
S'at'
S' chair'
tp2438
a(g2437
S'front'
S' chair'
tp2439
aa(lp2440
(S'verify'
S'at'
S' hatrack'
tp2441
aa(lp2442
(S'travel'
S''
S''
tp2443
aa(lp2444
(S'travel'
S''
S''
tp2445
aa(lp2446
(S'travel'
S''
S''
tp2447
aa(lp2448
(g316
S''
S''
tp2449
aa(lp2450
(S'verify'
S'front'
S' wall'
tp2451
aa(lp2452
(S'travel'
S''
S''
tp2453
aa(lp2454
(S'turn'
S'right'
S''
tp2455
aa(lp2456
(S'travel'
S'steps'
S' 2'
tp2457
aa(lp2458
(S'verify'
S'left'
S' easel'
tp2459
aa(lp2460
(S'travel'
S''
S''
tp2461
aa(lp2462
(S'travel'
S'steps'
S' 1'
tp2463
aa(lp2464
(S'travel'
S''
S''
tp2465
aa(lp2466
(S'turn'
S'left'
S''
tp2467
aa(lp2468
(S'verify'
S'at'
S' sofa'
tp2469
aa(lp2470
(S'turn'
S'left'
S''
tp2471
aa(lp2472
(S'turn'
S'right'
S''
tp2473
aa(lp2474
(S'verify'
S'at'
S' lamp'
tp2475
aa(lp2476
(S'turn'
S''
S''
tp2477
aa(lp2478
(S'verify'
S'at'
S' sofa'
p2479
tp2480
aa(lp2481
(S'turn'
S''
S''
tp2482
aa(lp2483
(S'turn'
S'right'
S''
tp2484
aa(lp2485
(S'turn'
S'right'
S''
tp2486
aa(lp2487
(S'turn'
S''
S''
tp2488
aa(lp2489
(S'travel'
S''
S''
tp2490
aa(lp2491
(S'travel'
S''
S''
tp2492
aa(lp2493
(S'turn'
S''
S''
tp2494
aa(lp2495
(S'verify'
p2496
S'left'
S' blue hallway'
tp2497
a(g2496
S'right'
S' blue hallway'
p2498
tp2499
aa(lp2500
(S'turn'
S''
S''
tp2501
aa(lp2502
(S'travel'
S'steps'
S' 1'
tp2503
aa(lp2504
(S'turn'
S''
S''
tp2505
aa(lp2506
(S'turn'
S''
S''
tp2507
aa(lp2508
(S'verify'
p2509
S'front'
S' chair'
tp2510
a(g2509
S'front'
S' hatrack'
tp2511
aa(lp2512
(S'travel'
S''
S''
tp2513
aa(lp2514
(S'travel'
S'steps'
S' 1'
tp2515
aa(lp2516
(S'travel'
S'steps'
S' 1'
tp2517
aa(lp2518
(S'turn'
S'right'
S''
tp2519
aa(lp2520
(S'turn'
S'right'
S''
tp2521
aa(lp2522
(S'verify'
S'side'
S' gravel hallway'
tp2523
aa(lp2524
(S'turn'
S'left'
S''
tp2525
aa(lp2526
(S'turn'
S''
S''
tp2527
aa(lp2528
(S'travel'
S''
S''
tp2529
aa(lp2530
(S'turn'
S''
S''
tp2531
aa(lp2532
(S'verify'
S'front'
S' hatrack'
tp2533
aa(lp2534
(S'travel'
S''
S''
tp2535
aa(lp2536
(S'travel'
S'steps'
S' 2'
tp2537
aa(lp2538
(S'travel'
S''
S''
tp2539
aa(lp2540
(S'turn'
S''
S''
tp2541
aa(lp2542
(g316
S''
S''
tp2543
aa(lp2544
(S'travel'
S'steps'
S' 2'
tp2545
aa(lp2546
(S'turn'
S'right'
S''
tp2547
aa(lp2548
(S'turn'
S'left'
S''
tp2549
aa(lp2550
(S'turn'
S''
S''
tp2551
aa(lp2552
(S'turn'
S'left'
S''
tp2553
aa(lp2554
(S'verify'
S'front'
S' easel'
tp2555
aa(lp2556
(S'verify'
S'front'
S' easel'
tp2557
aa(lp2558
(S'verify'
p2559
S'front'
S' wall'
tp2560
a(g2559
S'right'
S' wall'
tp2561
a(g2559
S'back'
S' yellow hallway'
tp2562
a(g2559
S'left'
S' grass hallway'
tp2563
aa(lp2564
(S'turn'
S''
S''
tp2565
aa(lp2566
(S'turn'
S'left'
S''
tp2567
aa(lp2568
(S'verify'
S'front'
S' gravel hallway'
tp2569
aa(lp2570
(S'turn'
S'left'
S''
tp2571
aa(lp2572
(S'turn'
S''
S''
tp2573
aa(lp2574
(S'travel'
S''
S''
tp2575
aa(lp2576
(g316
S''
S''
tp2577
aa(lp2578
(S'travel'
S'steps'
S' 2'
tp2579
aa(lp2580
(S'verify'
S'at'
S' chair'
tp2581
aa(lp2582
(S'turn'
S'right'
S''
tp2583
aa(lp2584
(S'travel'
S''
S''
tp2585
aa(lp2586
(S'travel'
S''
S''
tp2587
aa(lp2588
(S'verify'
p2589
S'front'
S' sofa'
tp2590
a(g2589
S'right'
S' chair'
p2591
tp2592
aa(lp2593
(S'turn'
S'right'
S''
tp2594
aa(lp2595
(S'travel'
S'steps'
S' 1'
tp2596
aa(lp2597
(S'travel'
S''
S''
tp2598
aa(lp2599
(S'travel'
S''
S''
tp2600
aa(lp2601
(S'verify'
S'at'
S' barstool'
p2602
tp2603
aa(lp2604
(S'turn'
S'right'
S''
tp2605
aa(lp2606
(S'turn'
S'left'
S''
tp2607
aa(lp2608
(S'verify'
p2609
S'right'
S' concrete hallway'
tp2610
a(g2609
S'front'
S' barstool'
tp2611
aa(lp2612
(S'travel'
S''
S''
tp2613
aa(lp2614
(S'travel'
S''
S''
tp2615
aa(lp2616
(S'turn'
S'right'
S''
tp2617
aa(lp2618
(S'turn'
S'right'
S''
tp2619
aa(lp2620
(S'verify'
S'front'
S' yellow hallway'
tp2621
aa(lp2622
(S'travel'
S''
S''
tp2623
aa(lp2624
(S'verify'
S'front'
S' flower hallway'
tp2625
aa(lp2626
(S'travel'
S''
S''
tp2627
aa(lp2628
(S'travel'
S''
S''
tp2629
aa(lp2630
(S'verify'
S'at'
S' hatrack'
tp2631
aa(lp2632
(S'travel'
S'steps'
S' 2'
tp2633
aa(lp2634
(S'turn'
S'right'
S''
tp2635
aa(lp2636
(S'turn'
S''
S''
tp2637
aa(lp2638
(S'travel'
S''
S''
tp2639
aa(lp2640
(S'travel'
S'steps'
S' 1'
tp2641
aa(lp2642
(S'verify'
p2643
S'at'
S' 3-intersection'
tp2644
a(g2643
S'side'
S' concrete hallway'
tp2645
aa(lp2646
(S'travel'
S'steps'
S' 1'
tp2647
aa(lp2648
(S'turn'
S'left'
S''
tp2649
aa(lp2650
(S'travel'
S''
S''
tp2651
aa(lp2652
(S'verify'
S'front'
S' wood hallway'
tp2653
aa(lp2654
(S'turn'
S''
S''
tp2655
aa(lp2656
(S'verify'
S'at'
S' easel'
tp2657
aa(lp2658
(S'turn'
S''
S''
tp2659
aa(lp2660
(S'verify'
p2661
S'left'
p2662
S' concrete hallway'
p2663
tp2664
a(g2661
S'left'
S' chair'
p2665
tp2666
aa(lp2667
(S'travel'
S''
S''
tp2668
aa(lp2669
(S'turn'
S'left'
S''
tp2670
aa(lp2671
(S'travel'
S'steps'
S' 1'
tp2672
aa(lp2673
(S'verify'
p2674
S'front'
S' blue hallway'
tp2675
a(g2674
S'front'
S' chair'
tp2676
aa(lp2677
(S'travel'
S'steps'
S' 1'
tp2678
aa(lp2679
(S'travel'
S''
S''
tp2680
aa(lp2681
(S'travel'
S'steps'
S' 1'
tp2682
aa(lp2683
(S'verify'
p2684
S'left'
S' flower hallway'
p2685
tp2686
a(g2684
S'right'
p2687
S' flower hallway'
p2688
tp2689
aa(lp2690
(g316
S''
S''
tp2691
aa(lp2692
(S'verify'
S'at'
S' hatrack'
tp2693
aa(lp2694
(S'turn'
S''
S''
tp2695
aa(lp2696
(S'verify'
p2697
S'front'
S' blue hallway'
tp2698
a(g2697
S'front'
S' chair'
tp2699
aa(lp2700
(S'travel'
S'steps'
S' 4'
tp2701
aa(lp2702
(S'travel'
S'steps'
S' 1'
tp2703
aa(lp2704
(S'travel'
S'steps'
S' 1'
tp2705
aa(lp2706
(S'verify'
S'side'
S' gravel hallway'
tp2707
aa(lp2708
(S'travel'
S'steps'
S' 1'
tp2709
aa(lp2710
(S'turn'
S''
S''
tp2711
aa(lp2712
(S'verify'
S'front'
S' blue hallway'
tp2713
aa(lp2714
(S'travel'
S'steps'
S' 1'
tp2715
aa(lp2716
(S'turn'
S''
S''
tp2717
aa(lp2718
(S'turn'
S'left'
S''
tp2719
aa(lp2720
(S'turn'
S''
S''
tp2721
aa(lp2722
(S'verify'
S'at'
S' chair'
tp2723
aa(lp2724
(S'travel'
S'steps'
S' 1'
tp2725
aa(lp2726
(S'verify'
p2727
S'front'
S' hatrack'
tp2728
a(g2727
S'left'
S' concrete hallway'
tp2729
aa(lp2730
(S'travel'
S''
S''
tp2731
aa(lp2732
(S'turn'
S'right'
S''
tp2733
aa(lp2734
(S'travel'
S''
S''
tp2735
aa(lp2736
(S'travel'
S''
S''
tp2737
aa(lp2738
(S'verify'
S'front'
S' chair'
tp2739
aa(lp2740
(S'turn'
S'left'
S''
tp2741
aa(lp2742
(S'turn'
S'right'
S''
tp2743
aa(lp2744
(S'travel'
S'steps'
S' 2'
tp2745
aa(lp2746
(S'verify'
S'front'
S' blue hallway'
tp2747
aa(lp2748
(S'travel'
S''
S''
tp2749
aa(lp2750
(S'turn'
S''
S''
tp2751
aa(lp2752
(S'travel'
S''
S''
tp2753
aa(lp2754
(S'turn'
S''
S''
tp2755
aa(lp2756
(S'turn'
S'left'
S''
tp2757
aa(lp2758
(S'verify'
S'front'
S' flower hallway'
tp2759
aa(lp2760
(g316
S''
S''
tp2761
aa(lp2762
(S'verify'
S'front'
S' blue hallway'
tp2763
aa(lp2764
(S'turn'
S'left'
S''
tp2765
aa(lp2766
(S'travel'
S'steps'
S' 1'
tp2767
aa(lp2768
(S'turn'
S'right'
S''
tp2769
aa(lp2770
(S'turn'
S'right'
S''
tp2771
aa(lp2772
(S'turn'
S''
S''
tp2773
aa(lp2774
(S'verify'
S'front'
S' flower hallway'
tp2775
aa(lp2776
(S'travel'
S'steps'
S' 1'
tp2777
aa(lp2778
(S'travel'
S''
S''
tp2779
aa(lp2780
(S'travel'
S'steps'
S' 1'
tp2781
aa(lp2782
(S'travel'
S''
S''
tp2783
aa(lp2784
(S'turn'
S''
S''
tp2785
aa(lp2786
(S'verify'
S'side'
p2787
S' blue hallway'
p2788
tp2789
aa(lp2790
(S'turn'
S''
S''
tp2791
aa(lp2792
(S'travel'
S'steps'
S' 2'
tp2793
aa(lp2794
(S'turn'
S'left'
S''
tp2795
aa(lp2796
(S'turn'
S'left'
S''
tp2797
aa(lp2798
(S'travel'
S''
S''
tp2799
aa(lp2800
(S'travel'
S'steps'
S' 2'
tp2801
aa(lp2802
(S'verify'
S'front'
S' blue hallway'
tp2803
aa(lp2804
(S'verify'
S'front'
S' brick hallway'
tp2805
aa(lp2806
(S'turn'
S''
S''
tp2807
aa(lp2808
(S'travel'
S'steps'
S' 1'
tp2809
aa(lp2810
(S'turn'
S'right'
S''
tp2811
aa(lp2812
(S'travel'
S'steps'
S' 2'
tp2813
aa(lp2814
(S'turn'
S'right'
S''
tp2815
aa(lp2816
(S'turn'
S'left'
S''
tp2817
aa(lp2818
(S'turn'
S'right'
S''
tp2819
aa(lp2820
(S'turn'
S'right'
S''
tp2821
aa(lp2822
(S'turn'
S'left'
S''
tp2823
aa(lp2824
(S'travel'
S'steps'
S' 1'
tp2825
aa(lp2826
(S'turn'
S'left'
S''
tp2827
aa(lp2828
(S'travel'
S'steps'
S' 1'
tp2829
aa(lp2830
(S'turn'
S''
S''
tp2831
aa(lp2832
(S'turn'
S'left'
S''
tp2833
aa(lp2834
(S'turn'
S'right'
S''
tp2835
aa(lp2836
(S'turn'
S'left'
S''
tp2837
aa(lp2838
(S'turn'
S''
S''
tp2839
aa(lp2840
(S'travel'
S'steps'
S' 2'
tp2841
aa(lp2842
(S'travel'
S''
S''
tp2843
aa(lp2844
(S'travel'
S''
S''
tp2845
aa(lp2846
(S'turn'
S'right'
S''
tp2847
aa(lp2848
(S'turn'
S''
S''
tp2849
aa(lp2850
(g316
S''
S''
tp2851
aa(lp2852
(S'turn'
S'left'
S''
tp2853
aa(lp2854
(S'turn'
S''
S''
tp2855
aa(lp2856
(S'verify'
S'left'
S' hatrack'
tp2857
aa(lp2858
(S'turn'
S'left'
S''
tp2859
aa(lp2860
(S'verify'
S'front'
S' yellow hallway'
tp2861
aa(lp2862
(S'turn'
S'right'
S''
tp2863
aa(lp2864
(S'turn'
S'left'
S''
tp2865
aa(lp2866
(S'verify'
S'front'
S' wood hallway'
tp2867
aa(lp2868
(S'turn'
S'left'
S''
tp2869
aa(lp2870
(S'travel'
S''
S''
tp2871
aa(lp2872
(S'turn'
S'left'
S''
tp2873
aa(lp2874
(S'turn'
S'left'
S''
tp2875
aa(lp2876
(S'turn'
S'left'
S''
tp2877
aa(lp2878
(S'verify'
S'right'
S' sofa'
p2879
tp2880
aa(lp2881
(S'travel'
S''
S''
tp2882
aa(lp2883
(S'turn'
S'right'
S''
tp2884
aa(lp2885
(S'turn'
S'left'
S''
tp2886
aa(lp2887
(S'turn'
S''
S''
tp2888
aa(lp2889
(S'travel'
S'steps'
S' 1'
tp2890
aa(lp2891
(S'turn'
S''
S''
tp2892
aa(lp2893
(S'verify'
S'side'
S' brick hallway'
tp2894
aa(lp2895
(S'turn'
S'right'
S''
tp2896
aa(lp2897
(S'verify'
p2898
S'at'
S' barstool'
tp2899
a(g2898
S'front'
S' gravel hallway'
tp2900
a(g2898
S'back'
S' gravel hallway'
p2901
tp2902
aa(lp2903
(S'turn'
S'left'
S''
tp2904
aa(lp2905
(S'turn'
S'left'
S''
tp2906
aa(lp2907
(S'travel'
S''
S''
tp2908
aa(lp2909
(S'turn'
S''
S''
tp2910
aa(lp2911
(S'turn'
S'right'
S''
tp2912
aa(lp2913
(S'travel'
S'steps'
S' 2'
tp2914
aa(lp2915
(S'travel'
S'steps'
S' 1'
tp2916
aa(lp2917
(S'travel'
S'steps'
S' 1'
tp2918
aa(lp2919
(S'turn'
S'right'
S''
tp2920
aa(lp2921
(S'turn'
S'right'
S''
tp2922
aa(lp2923
(S'turn'
S'right'
S''
tp2924
aa(lp2925
(S'travel'
S''
S''
tp2926
aa(lp2927
(S'verify'
S'right'
S' butterfly wall'
tp2928
aa(lp2929
(S'turn'
S'left'
S''
tp2930
aa(lp2931
(S'travel'
S''
S''
tp2932
aa(lp2933
(S'verify'
S'front'
S' sofa'
tp2934
aa(lp2935
(S'verify'
S'front'
S' blue hallway'
tp2936
aa(lp2937
(S'turn'
S'left'
S''
tp2938
aa(lp2939
(S'travel'
S''
S''
tp2940
aa(lp2941
(S'travel'
S''
S''
tp2942
aa(lp2943
(S'travel'
S''
S''
tp2944
aa(lp2945
(S'turn'
S''
S''
tp2946
aa(lp2947
(S'travel'
S''
S''
tp2948
aa(lp2949
(S'turn'
S'left'
S''
tp2950
aa(lp2951
(S'verify'
S'left'
S' concrete hallway'
tp2952
aa(lp2953
(S'turn'
S'left'
S''
tp2954
aa(lp2955
(S'turn'
S'left'
S''
tp2956
aa(lp2957
(S'turn'
S'right'
S''
tp2958
aa(lp2959
(S'turn'
S''
S''
tp2960
aa(lp2961
(S'turn'
S'right'
S''
tp2962
aa(lp2963
(S'turn'
S'left'
S''
tp2964
aa(lp2965
(S'travel'
S'steps'
S' 3'
tp2966
aa(lp2967
(S'turn'
p2968
S'left'
p2969
S''
tp2970
aa(lp2971
(S'turn'
S'left'
S''
tp2972
aa(lp2973
(S'turn'
S''
S''
tp2974
aa(lp2975
(S'verify'
S'front'
S' lamp'
tp2976
aa(lp2977
(S'turn'
S'right'
S''
tp2978
aa(lp2979
(S'verify'
p2980
S'right'
S' tower wall'
tp2981
a(g2980
S'left'
S' butterfly wall'
tp2982
aa(lp2983
(S'travel'
S'steps'
S' 1'
tp2984
aa(lp2985
(S'travel'
S'steps'
S' 1'
tp2986
aa(lp2987
(S'travel'
S''
S''
tp2988
aa(lp2989
(S'travel'
S'steps'
S' 1'
tp2990
aa(lp2991
(S'travel'
S'steps'
S' 1'
tp2992
aa(lp2993
(S'turn'
S'left'
S''
tp2994
aa(lp2995
(S'verify'
S'front'
S' flower hallway'
tp2996
aa(lp2997
(S'travel'
S'steps'
S' 1'
tp2998
aa(lp2999
(S'turn'
S'left'
S''
tp3000
aa(lp3001
(S'verify'
p3002
S'front'
S' easel'
tp3003
a(g3002
S'left'
S' chair'
tp3004
aa(lp3005
(S'travel'
S''
S''
tp3006
aa(lp3007
(S'travel'
S''
S''
tp3008
aa(lp3009
(S'travel'
S'steps'
S' 3'
tp3010
aa(lp3011
(S'travel'
S'steps'
S' 1'
tp3012
aa(lp3013
(S'travel'
S'steps'
S' 1'
tp3014
aa(lp3015
(S'verify'
S'right'
S' concrete hallway'
tp3016
aa(lp3017
(S'turn'
S''
S''
tp3018
aa(lp3019
(S'verify'
S'front'
S' barstool'
tp3020
aa(lp3021
(S'turn'
S''
S''
tp3022
aa(lp3023
(S'turn'
S'left'
S''
tp3024
aa(lp3025
(S'turn'
S''
S''
tp3026
aa(lp3027
(S'verify'
S'back'
S' easel'
tp3028
aa(lp3029
(S'verify'
S'front'
S' easel'
tp3030
aa(lp3031
(S'turn'
S''
S''
tp3032
aa(lp3033
(S'travel'
S'steps'
S' 2'
tp3034
aa(lp3035
(S'turn'
S'left'
S''
tp3036
aa(lp3037
(S'turn'
S''
S''
tp3038
aa(lp3039
(S'travel'
S''
S''
tp3040
aa(lp3041
(S'travel'
S'steps'
S' 1'
tp3042
aa(lp3043
(S'travel'
S'steps'
S' 1'
tp3044
aa(lp3045
(S'travel'
S''
S''
tp3046
aa(lp3047
(S'travel'
S'steps'
S' 2'
tp3048
aa(lp3049
(S'travel'
S''
S''
tp3050
aa(lp3051
(S'verify'
S'front'
S' easel'
tp3052
aa(lp3053
(S'travel'
S''
S''
tp3054
aa(lp3055
(S'turn'
S'right'
S''
tp3056
aa(lp3057
(S'travel'
S''
S''
tp3058
aa(lp3059
(S'verify'
p3060
S'front'
S' wall'
tp3061
a(g3060
S'right'
S' wall'
tp3062
aa(lp3063
(S'turn'
S''
S''
tp3064
aa(lp3065
(S'travel'
S''
S''
tp3066
aa(lp3067
(S'turn'
S''
S''
tp3068
aa(lp3069
(S'travel'
S''
S''
tp3070
aa(lp3071
(S'verify'
S'at'
S' easel'
tp3072
aa(lp3073
(S'travel'
S''
S''
tp3074
aa(lp3075
(S'turn'
S'right'
S''
tp3076
aa(lp3077
(S'turn'
S'right'
S''
tp3078
aa(lp3079
(S'travel'
S'steps'
S' 3'
tp3080
aa(lp3081
(S'turn'
S'right'
S''
tp3082
aa(lp3083
(S'travel'
S''
S''
tp3084
aa(lp3085
(S'travel'
S'steps'
S' 1'
tp3086
aa(lp3087
(S'travel'
S'steps'
S' 1'
tp3088
aa(lp3089
(S'turn'
S''
S''
tp3090
aa(lp3091
(S'turn'
S'right'
S''
tp3092
aa(lp3093
(S'turn'
S''
S''
tp3094
aa(lp3095
(S'travel'
S''
S''
tp3096
aa(lp3097
(S'turn'
S''
S''
tp3098
aa(lp3099
(S'turn'
S''
S''
tp3100
aa(lp3101
(S'travel'
S''
S''
tp3102
aa(lp3103
(S'verify'
p3104
S'front'
S' blue hallway'
tp3105
a(g3104
S'front'
S' barstool'
tp3106
a(g3104
S'front'
S' chair'
tp3107
aa(lp3108
(S'verify'
S'front'
S' barstool'
tp3109
aa(lp3110
(S'turn'
S'right'
S''
tp3111
aa(lp3112
(S'travel'
S'steps'
S' 3'
tp3113
aa(lp3114
(S'turn'
S'left'
S''
tp3115
aa(lp3116
(S'travel'
S'steps'
S' 1'
tp3117
aa(lp3118
(S'verify'
S'front'
S' hatrack'
tp3119
aa(lp3120
(S'turn'
S'left'
S''
tp3121
aa(lp3122
(S'travel'
S''
S''
tp3123
aa(lp3124
(S'travel'
S'steps'
S' 1'
tp3125
aa(lp3126
(S'travel'
S'steps'
S' 1'
tp3127
aa(lp3128
(S'travel'
S''
S''
tp3129
aa(lp3130
(S'verify'
S'front'
S' butterfly wall'
tp3131
aa(lp3132
(S'turn'
S'right'
S''
tp3133
aa(lp3134
(S'verify'
S'front'
S' blue hallway'
tp3135
aa(lp3136
(S'travel'
S''
S''
tp3137
aa(lp3138
(S'verify'
S'front'
S' fish wall'
tp3139
aa(lp3140
(S'travel'
S'steps'
S' 1'
tp3141
aa(lp3142
(g316
S''
S''
tp3143
aa(lp3144
(S'turn'
S''
S''
tp3145
aa(lp3146
(S'turn'
S''
S''
tp3147
aa(lp3148
(S'turn'
S''
S''
tp3149
aa(lp3150
(S'verify'
S'front'
p3151
S' flower hallway'
p3152
tp3153
aa(lp3154
(S'travel'
S''
S''
tp3155
aa(lp3156
(S'travel'
S'steps'
S' 1'
tp3157
aa(lp3158
(S'verify'
S'at'
S' hatrack'
tp3159
aa(lp3160
(S'travel'
S'steps'
S' 1'
tp3161
aa(lp3162
(S'travel'
S''
S''
tp3163
aa(lp3164
(S'turn'
S''
S''
tp3165
aa(lp3166
(S'travel'
S'steps'
S' 1'
tp3167
aa(lp3168
(S'turn'
S''
S''
tp3169
aa(lp3170
(S'turn'
S'right'
S''
tp3171
aa(lp3172
(S'travel'
S'steps'
S' 3'
tp3173
aa(lp3174
(S'turn'
S''
S''
tp3175
aa(lp3176
(S'travel'
S'steps'
S' 1'
tp3177
aa(lp3178
(S'verify'
S'at'
S' easel'
tp3179
aa(lp3180
(S'travel'
S'steps'
S' 1'
tp3181
aa(lp3182
(S'turn'
S'left'
S''
tp3183
aa(lp3184
(S'travel'
S''
S''
tp3185
aa(lp3186
(S'turn'
S''
S''
tp3187
aa(lp3188
(S'travel'
S'steps'
S' 1'
tp3189
aa(lp3190
(S'travel'
S'steps'
S' 4'
tp3191
aa(lp3192
(S'travel'
S''
S''
tp3193
aa(lp3194
(g316
S''
S''
tp3195
aa(lp3196
(S'travel'
S''
S''
tp3197
aa(lp3198
(S'verify'
S'front'
S' wood hallway'
tp3199
aa(lp3200
(S'verify'
S'at'
S' chair'
tp3201
aa(lp3202
(S'travel'
S'steps'
S' 1'
tp3203
aa(lp3204
(S'verify'
S'front'
S' brick hallway'
tp3205
aa(lp3206
(S'turn'
S'left'
S''
tp3207
aa(lp3208
(S'travel'
S'steps'
S' 2'
tp3209
aa(lp3210
(S'verify'
S'side'
S' flower hallway'
p3211
tp3212
aa(lp3213
(S'travel'
S'steps'
S' 1'
tp3214
aa(lp3215
(g316
S''
S''
tp3216
aa(lp3217
(S'travel'
S'steps'
S' 3'
tp3218
aa(lp3219
(S'travel'
S''
S''
tp3220
aa(lp3221
(S'turn'
S''
S''
tp3222
aa(lp3223
(S'turn'
S'right'
S''
tp3224
aa(lp3225
(S'travel'
S''
S''
tp3226
aa(lp3227
(S'turn'
S'right'
S''
tp3228
aa(lp3229
(S'turn'
S''
S''
tp3230
aa(lp3231
(S'turn'
S''
S''
tp3232
aa(lp3233
(S'travel'
S'steps'
S' 4'
tp3234
aa(lp3235
(S'turn'
S'left'
S''
tp3236
aa(lp3237
(S'turn'
S'right'
S''
tp3238
aa(lp3239
(S'turn'
S''
S''
tp3240
aa(lp3241
(S'travel'
S''
S''
tp3242
aa(lp3243
(S'turn'
S''
S''
tp3244
aa(lp3245
(g316
S''
S''
tp3246
aa(lp3247
(S'travel'
S''
S''
tp3248
aa(lp3249
(S'turn'
S''
S''
tp3250
aa(lp3251
(S'travel'
S''
S''
tp3252
aa(lp3253
(S'turn'
S'left'
S''
tp3254
aa(lp3255
(S'travel'
S'steps'
S' 1'
tp3256
aa(lp3257
(S'travel'
S'steps'
S' 1'
tp3258
aa(lp3259
(S'turn'
S'right'
S''
tp3260
aa(lp3261
(S'turn'
S''
S''
tp3262
aa(lp3263
(S'turn'
S''
S''
tp3264
aa(lp3265
(S'travel'
S''
S''
tp3266
aa(lp3267
(S'travel'
S'steps'
S' 1'
tp3268
aa(lp3269
(S'turn'
S'left'
S''
tp3270
aa(lp3271
(S'travel'
S''
S''
tp3272
aa(lp3273
(S'verify'
p3274
S'front'
S' hatrack'
tp3275
a(g3274
S'left'
S' concrete hallway'
tp3276
aa(lp3277
(S'travel'
S''
S''
tp3278
aa(lp3279
(S'turn'
S'left'
S''
tp3280
aa(lp3281
(S'travel'
S''
S''
tp3282
aa(lp3283
(S'travel'
S''
S''
tp3284
aa(lp3285
(S'travel'
S''
S''
tp3286
aa(lp3287
(S'turn'
S'right'
S''
tp3288
aa(lp3289
(S'verify'
S'front'
S' blue hallway'
tp3290
aa(lp3291
(S'turn'
S'right'
S''
tp3292
aa(lp3293
(S'verify'
S'at'
S' sofa'
tp3294
aa(lp3295
(S'turn'
S'left'
S''
tp3296
aa(lp3297
(S'turn'
S''
S''
tp3298
aa(lp3299
(S'travel'
S''
S''
tp3300
aa(lp3301
(S'turn'
S''
S''
tp3302
aa(lp3303
(S'turn'
S'right'
S''
tp3304
aa(lp3305
(S'turn'
S''
S''
tp3306
aa(lp3307
(g316
S''
S''
tp3308
aa(lp3309
(S'travel'
S'steps'
S' 2'
tp3310
aa(lp3311
(S'travel'
S''
S''
tp3312
aa(lp3313
(S'turn'
S'left'
S''
tp3314
aa(lp3315
(S'travel'
S'steps'
S' 1'
tp3316
aa(lp3317
(S'travel'
S''
S''
tp3318
aa(lp3319
(S'travel'
S''
S''
tp3320
aa(lp3321
(S'verify'
p3322
S'front'
S' blue hallway'
tp3323
a(g3322
S'front'
S' chair'
tp3324
aa(lp3325
(S'travel'
S'steps'
S' 1'
tp3326
aa(lp3327
(S'travel'
S'steps'
S' 1'
tp3328
aa(lp3329
(S'travel'
S''
S''
tp3330
aa(lp3331
(S'turn'
S''
S''
tp3332
aa(lp3333
(S'verify'
p3334
S'front'
S' butterfly wall'
p3335
tp3336
a(g3334
S'front'
S' blue hallway'
p3337
tp3338
aa(lp3339
(S'turn'
S'right'
S''
tp3340
aa(lp3341
(S'travel'
S'steps'
S' 6'
p3342
tp3343
aa(lp3344
(S'travel'
S'steps'
S' 3'
tp3345
aa(lp3346
(S'travel'
S''
S''
tp3347
aa(lp3348
(S'travel'
S''
S''
tp3349
aa(lp3350
(S'travel'
S'steps'
S' 2'
tp3351
aa(lp3352
(S'travel'
S''
S''
tp3353
aa(lp3354
(S'verify'
S'front'
S' sofa'
tp3355
aa(lp3356
(S'turn'
S''
S''
tp3357
aa(lp3358
(S'verify'
S'right'
S' concrete hallway'
tp3359
aa(lp3360
(S'travel'
S'steps'
S' 2'
tp3361
aa(lp3362
(S'turn'
S'right'
S''
tp3363
aa(lp3364
(S'turn'
S'right'
p3365
S''
tp3366
aa(lp3367
(S'turn'
S'left'
S''
tp3368
aa(lp3369
(S'travel'
S'steps'
S' 1'
tp3370
aa(lp3371
(S'turn'
S'left'
S''
tp3372
aa(lp3373
(S'turn'
S''
S''
tp3374
aa(lp3375
(S'turn'
S''
S''
tp3376
aa(lp3377
(S'verify'
S'front'
S' gravel hallway'
tp3378
aa(lp3379
(S'verify'
p3380
S'front'
S' blue hallway'
tp3381
a(g3380
S'front'
S' chair'
tp3382
aa(lp3383
(S'verify'
S'front'
S' wood hallway'
tp3384
aa(lp3385
(S'turn'
S''
S''
tp3386
aa(lp3387
(S'travel'
S''
S''
tp3388
aa(lp3389
(S'travel'
S''
S''
tp3390
aa(lp3391
(S'turn'
S''
S''
tp3392
aa(lp3393
(S'turn'
S'right'
S''
tp3394
aa(lp3395
(S'turn'
S'right'
S''
tp3396
aa(lp3397
(S'travel'
S'steps'
S' 1'
tp3398
aa(lp3399
(S'verify'
S'right'
S' wood hallway'
p3400
tp3401
aa(lp3402
(S'travel'
S''
S''
tp3403
aa(lp3404
(S'turn'
S'right'
S''
tp3405
aa(lp3406
(g316
S''
S''
tp3407
aa(lp3408
(S'verify'
p3409
S'right'
S' butterfly wall'
tp3410
a(g3409
S'left'
S' tower wall'
tp3411
aa(lp3412
(S'travel'
S'steps'
S' 1'
tp3413
aa(lp3414
(S'turn'
S'left'
S''
tp3415
aa(lp3416
(S'turn'
S'right'
S''
tp3417
aa(lp3418
(S'travel'
S'steps'
S' 2'
tp3419
aa(lp3420
(S'turn'
S''
S''
tp3421
aa(lp3422
(S'verify'
S'front'
S' chair'
tp3423
aa(lp3424
(S'turn'
S'left'
S''
tp3425
aa(lp3426
(S'turn'
S''
S''
tp3427
aa(lp3428
(S'turn'
S''
S''
tp3429
aa(lp3430
(S'turn'
S''
S''
tp3431
aa(lp3432
(S'turn'
S'left'
S''
tp3433
aa(lp3434
(S'travel'
S'steps'
S' 1'
tp3435
aa(lp3436
(S'turn'
S'left'
S''
tp3437
aa(lp3438
(S'travel'
S'steps'
S' 1'
tp3439
aa(lp3440
(S'verify'
S'front'
S' gravel hallway'
tp3441
aa(lp3442
(S'travel'
S''
S''
tp3443
aa(lp3444
(S'travel'
S'steps'
S' 4'
tp3445
aa(lp3446
(S'turn'
S''
S''
tp3447
aa(lp3448
(S'travel'
S''
S''
tp3449
aa(lp3450
(S'turn'
S'right'
S''
tp3451
aa(lp3452
(S'travel'
S''
S''
tp3453
aa(lp3454
(S'travel'
S''
S''
tp3455
aa(lp3456
(S'travel'
S''
S''
tp3457
aa(lp3458
(S'verify'
S'at'
S' barstool'
tp3459
aa(lp3460
(S'travel'
S''
S''
tp3461
aa(lp3462
(S'verify'
S'front'
S' flower hallway'
tp3463
aa(lp3464
(S'travel'
S'steps'
S' 2'
tp3465
aa(lp3466
(S'turn'
S'left'
S''
tp3467
aa(lp3468
(S'verify'
S'front'
S' easel'
tp3469
aa(lp3470
(S'turn'
S'right'
S''
tp3471
aa(lp3472
(S'travel'
S''
S''
tp3473
aa(lp3474
(S'turn'
S'left'
S''
tp3475
aa(lp3476
(S'turn'
S''
S''
tp3477
aa(lp3478
(S'travel'
S''
S''
tp3479
aa(lp3480
(S'travel'
S'steps'
S' 3'
tp3481
aa(lp3482
(S'turn'
S''
S''
tp3483
aa(lp3484
(g316
S''
S''
tp3485
aa(lp3486
(S'travel'
S'steps'
S' 2'
tp3487
aa(lp3488
(S'travel'
S''
S''
tp3489
aa(lp3490
(S'turn'
S''
S''
tp3491
aa(lp3492
(S'turn'
S'right'
S''
tp3493
aa(lp3494
(S'verify'
S'front'
S' easel'
tp3495
aa(lp3496
(S'turn'
S'left'
S''
tp3497
aa(lp3498
(S'travel'
S'steps'
S' 1'
tp3499
aa(lp3500
(S'verify'
p3501
S'front'
S' chair'
tp3502
a(g3501
S'front'
S' wood hallway'
tp3503
aa(lp3504
(S'travel'
S'steps'
S' 4'
tp3505
aa(lp3506
(S'travel'
S''
S''
tp3507
aa(lp3508
(S'turn'
S'left'
S''
tp3509
aa(lp3510
(S'turn'
S'right'
S''
tp3511
aa(lp3512
(S'turn'
S''
S''
tp3513
aa(lp3514
(S'turn'
S''
S''
tp3515
aa(lp3516
(S'travel'
S''
S''
tp3517
aa(lp3518
(S'travel'
S''
S''
tp3519
aa(lp3520
(S'travel'
S''
S''
tp3521
aa(lp3522
(S'travel'
S''
S''
tp3523
aa(lp3524
(S'turn'
S'left'
S''
tp3525
aa(lp3526
(S'travel'
S'steps'
S' 1'
tp3527
aa(lp3528
(S'travel'
S''
S''
tp3529
aa(lp3530
(S'travel'
S''
S''
tp3531
aa(lp3532
(S'travel'
S'steps'
S' 1'
tp3533
aa(lp3534
(S'verify'
S'front'
S' flower hallway'
tp3535
aa(lp3536
(S'travel'
S''
S''
tp3537
aa(lp3538
(S'turn'
S'left'
S''
tp3539
aa(lp3540
(S'turn'
S'left'
S''
tp3541
aa(lp3542
(S'turn'
S''
S''
tp3543
aa(lp3544
(S'travel'
S''
S''
tp3545
aa(lp3546
(S'turn'
S'right'
S''
tp3547
aa(lp3548
(S'turn'
S''
S''
tp3549
aa(lp3550
(S'turn'
S'left'
S''
tp3551
aa(lp3552
(S'verify'
p3553
S'front'
S' sofa'
tp3554
a(g3553
S'front'
S' hatrack'
tp3555
a(g3553
S'front'
S' blue hallway'
tp3556
aa(lp3557
(S'travel'
S'steps'
S' 2'
tp3558
aa(lp3559
(S'turn'
S'right'
S''
tp3560
aa(lp3561
(S'verify'
p3562
S'front'
S' gravel hallway'
tp3563
a(g3562
S'side'
S' yellow hallway'
tp3564
aa(lp3565
(S'travel'
S''
S''
tp3566
aa(lp3567
(S'turn'
S'right'
S''
tp3568
aa(lp3569
(S'travel'
S''
S''
tp3570
aa(lp3571
(S'turn'
S'right'
S''
tp3572
aa(lp3573
(S'travel'
S'steps'
S' 1'
tp3574
aa(lp3575
(S'travel'
S''
S''
tp3576
aa(lp3577
(S'verify'
S'left'
S' gravel hallway'
p3578
tp3579
aa(lp3580
(S'turn'
S'left'
S''
tp3581
aa(lp3582
(S'turn'
S'right'
S''
tp3583
aa(lp3584
(S'travel'
S'steps'
S' 1'
tp3585
aa(lp3586
(S'verify'
p3587
S'front'
S' hatrack'
tp3588
a(g3587
S'left'
S' concrete hallway'
tp3589
aa(lp3590
(S'travel'
S''
S''
tp3591
aa(lp3592
(S'turn'
S'left'
S''
tp3593
aa(lp3594
(S'travel'
S''
S''
tp3595
aa(lp3596
(S'travel'
S'steps'
S' 1'
tp3597
aa(lp3598
(S'verify'
S'front'
S' gravel hallway'
tp3599
aa(lp3600
(S'turn'
S'right'
S''
tp3601
aa(lp3602
(S'verify'
p3603
S'right'
S' concrete hallway'
tp3604
a(g3603
S'front'
S' chair'
tp3605
aa(lp3606
(S'turn'
S'right'
S''
tp3607
aa(lp3608
(S'verify'
S'at'
S' chair'
tp3609
aa(lp3610
(S'turn'
S'right'
S''
tp3611
aa(lp3612
(S'travel'
S'steps'
S' 1'
tp3613
aa(lp3614
(S'travel'
S''
S''
tp3615
aa(lp3616
(S'travel'
S'steps'
S' 4'
tp3617
aa(lp3618
(S'turn'
S''
S''
tp3619
aa(lp3620
(S'travel'
S'steps'
S' 1'
tp3621
aa(lp3622
(S'turn'
S''
S''
tp3623
aa(lp3624
(S'turn'
S''
S''
tp3625
aa(lp3626
(S'verify'
S'front'
S' flower hallway'
tp3627
aa(lp3628
(S'travel'
S'steps'
S' 1'
tp3629
aa(lp3630
(S'verify'
p3631
S'front'
S' gravel hallway'
tp3632
a(g3631
S'side'
S' yellow hallway'
tp3633
aa(lp3634
(S'travel'
S''
S''
tp3635
aa(lp3636
(S'turn'
S'left'
S''
tp3637
aa(lp3638
(S'turn'
S''
S''
tp3639
aa(lp3640
(S'verify'
p3641
S'front'
S' gravel hallway'
tp3642
a(g3641
S'back'
S' gravel hallway'
tp3643
aa(lp3644
(S'verify'
S'front'
S' brick hallway'
tp3645
aa(lp3646
(S'verify'
p3647
S'front'
S' wood hallway'
tp3648
a(g3647
S'front'
S' butterfly wall'
tp3649
aa(lp3650
(S'travel'
S'steps'
S' 1'
tp3651
aa(lp3652
(S'travel'
S''
S''
tp3653
aa(lp3654
(S'turn'
S''
S''
tp3655
aa(lp3656
(S'travel'
S''
S''
tp3657
aa(lp3658
(S'turn'
S'left'
S''
tp3659
aa(lp3660
(S'turn'
S''
S''
tp3661
aa(lp3662
(S'turn'
S''
S''
tp3663
aa(lp3664
(S'turn'
S'right'
S''
tp3665
aa(lp3666
(S'travel'
S'steps'
S' 1'
tp3667
aa(lp3668
(S'travel'
S'steps'
S' 1'
tp3669
aa(lp3670
(S'travel'
S''
S''
tp3671
aa(lp3672
(S'turn'
S''
S''
tp3673
aa(lp3674
(S'verify'
S'front'
S' brick hallway'
tp3675
aa(lp3676
(S'travel'
S'steps'
S' 2'
tp3677
aa(lp3678
(S'verify'
S'front'
S' blue hallway'
tp3679
aa(lp3680
(S'verify'
S'front'
S' chair'
tp3681
aa(lp3682
(S'turn'
S''
S''
tp3683
aa(lp3684
(S'travel'
S'steps'
S' 1'
tp3685
aa(lp3686
(S'turn'
S'right'
S''
tp3687
aa(lp3688
(S'turn'
S''
S''
tp3689
aa(lp3690
(S'turn'
S''
S''
tp3691
aa(lp3692
(S'travel'
S'steps'
S' 2'
tp3693
aa(lp3694
(S'turn'
S'right'
S''
tp3695
aa(lp3696
(S'verify'
S'at'
S' easel'
tp3697
aa(lp3698
(S'turn'
S''
S''
tp3699
aa(lp3700
(S'turn'
S''
S''
tp3701
aa(lp3702
(S'turn'
S''
S''
tp3703
aa(lp3704
(S'travel'
S'steps'
S' 1'
tp3705
aa(lp3706
(S'turn'
S''
S''
tp3707
aa(lp3708
(S'travel'
S''
S''
tp3709
aa(lp3710
(S'verify'
p3711
S'side'
S' concrete hallway'
tp3712
a(g3711
S'right'
S' sofa'
tp3713
aa(lp3714
(S'turn'
S''
S''
tp3715
aa(lp3716
(S'travel'
S'steps'
S' 1'
tp3717
aa(lp3718
(S'travel'
S'steps'
S' 3'
tp3719
aa(lp3720
(S'travel'
S''
S''
tp3721
aa(lp3722
(S'travel'
S''
S''
tp3723
aa(lp3724
(S'turn'
S''
S''
tp3725
aa(lp3726
(S'turn'
S'left'
S''
tp3727
aa(lp3728
(S'travel'
S'steps'
S' 1'
tp3729
aa(lp3730
(S'verify'
S'front'
S' gravel hallway'
tp3731
aa(lp3732
(S'travel'
S'steps'
S' 3'
tp3733
aa(lp3734
(S'turn'
S''
S''
tp3735
aa(lp3736
(S'verify'
S'front'
S' hatrack'
tp3737
aa(lp3738
(S'verify'
S'front'
S' chair'
tp3739
aa(lp3740
(S'turn'
S''
S''
tp3741
aa(lp3742
(S'travel'
S'steps'
S' 1'
tp3743
aa(lp3744
(S'travel'
S'steps'
S' 1'
tp3745
aa(lp3746
(S'travel'
S''
S''
tp3747
aa(lp3748
(S'verify'
S'front'
S' brick hallway'
tp3749
aa(lp3750
(S'turn'
S''
S''
tp3751
aa(lp3752
(S'turn'
S''
S''
tp3753
aa(lp3754
(S'turn'
S'left'
S''
tp3755
aa(lp3756
(S'travel'
S'steps'
S' 1'
tp3757
aa(lp3758
(S'travel'
S''
S''
tp3759
aa(lp3760
(S'turn'
S''
S''
tp3761
aa(lp3762
(S'travel'
S'steps'
S' 1'
tp3763
aa(lp3764
(S'travel'
S'steps'
S' 1'
tp3765
aa(lp3766
(S'turn'
S''
S''
tp3767
aa(lp3768
(S'verify'
S'front'
S' wood hallway'
p3769
tp3770
aa(lp3771
(S'travel'
S'steps'
S' 1'
tp3772
aa(lp3773
(S'travel'
S'steps'
S' 4'
tp3774
aa(lp3775
(S'verify'
p3776
S'left'
S' blue hallway'
tp3777
a(g3776
S'right'
S' blue hallway'
tp3778
a(g3776
S'front'
S' wall'
tp3779
aa(lp3780
(S'turn'
S'left'
S''
tp3781
aa(lp3782
(S'verify'
S'front'
S' blue hallway'
tp3783
aa(lp3784
(S'turn'
S'right'
S''
tp3785
aa(lp3786
(S'travel'
S'steps'
S' 1'
tp3787
aa(lp3788
(S'turn'
S'left'
S''
tp3789
aa(lp3790
(S'turn'
S'left'
S''
tp3791
aa(lp3792
(S'travel'
S'steps'
S' 1'
tp3793
aa(lp3794
(S'verify'
S'front'
S' yellow hallway'
tp3795
aa(lp3796
(S'verify'
S'front'
S' easel'
tp3797
aa(lp3798
(S'turn'
S''
S''
tp3799
aa(lp3800
(S'travel'
S'steps'
S' 1'
tp3801
aa(lp3802
(S'verify'
S'at'
S' hatrack'
tp3803
aa(lp3804
(S'travel'
S''
S''
tp3805
aa(lp3806
(S'travel'
S'steps'
S' 1'
tp3807
aa(lp3808
(S'verify'
S'front'
S' easel'
tp3809
aa(lp3810
(S'turn'
S'left'
S''
tp3811
aa(lp3812
(S'turn'
S'left'
S''
tp3813
aa(lp3814
(S'turn'
S''
S''
tp3815
aa(lp3816
(S'travel'
S'steps'
S' 1'
tp3817
aa(lp3818
(S'travel'
S''
S''
tp3819
aa(lp3820
(S'travel'
S''
S''
tp3821
aa(lp3822
(S'turn'
S''
S''
tp3823
aa(lp3824
(S'verify'
S'back'
S' easel'
tp3825
aa(lp3826
(S'turn'
S'right'
S''
tp3827
aa(lp3828
(S'turn'
S'right'
S''
tp3829
aa(lp3830
(S'turn'
S''
S''
tp3831
aa(lp3832
(S'travel'
S''
S''
tp3833
aa(lp3834
(S'travel'
S'steps'
S' 3'
tp3835
aa(lp3836
(S'verify'
S'front'
S' wood hallway'
tp3837
aa(lp3838
(S'turn'
S'left'
S''
tp3839
aa(lp3840
(S'turn'
S'right'
S''
tp3841
aa(lp3842
(S'turn'
S'right'
S''
tp3843
aa(lp3844
(S'turn'
S''
S''
tp3845
aa(lp3846
(S'verify'
S'front'
S' sofa'
tp3847
aa(lp3848
(S'turn'
S''
S''
tp3849
aa(lp3850
(S'travel'
S''
S''
tp3851
aa(lp3852
(S'turn'
S'right'
S''
tp3853
aa(lp3854
(S'travel'
S''
S''
tp3855
aa(lp3856
(S'travel'
S''
S''
tp3857
aa(lp3858
(S'turn'
S'left'
S''
tp3859
aa(lp3860
(S'turn'
S''
S''
tp3861
aa(lp3862
(S'turn'
S'right'
S''
tp3863
aa(lp3864
(S'verify'
p3865
S'front'
S' yellow hallway'
tp3866
a(g3865
S'front'
S' fish wall'
tp3867
aa(lp3868
(S'travel'
S''
S''
tp3869
aa(lp3870
(g316
S''
S''
tp3871
aa(lp3872
(S'travel'
S'steps'
S' 1'
tp3873
aa(lp3874
(S'travel'
S'steps'
S' 1'
tp3875
aa(lp3876
(S'turn'
S'right'
S''
tp3877
aa(lp3878
(S'travel'
S''
S''
tp3879
aa(lp3880
(S'turn'
S''
S''
tp3881
aa(lp3882
(S'turn'
S'right'
S''
tp3883
aa(lp3884
(S'travel'
S''
S''
tp3885
aa(lp3886
(S'verify'
S'front'
S' blue hallway'
tp3887
aa(lp3888
(S'travel'
S'steps'
S' 1'
tp3889
aa(lp3890
(S'travel'
S'steps'
S' 1'
tp3891
aa(lp3892
(S'turn'
S''
S''
tp3893
aa(lp3894
(S'travel'
S'steps'
S' 1'
tp3895
aa(lp3896
(S'verify'
S'front'
S' chair'
tp3897
aa(lp3898
(S'verify'
S'front'
S' chair'
tp3899
aa(lp3900
(S'turn'
S'left'
S''
tp3901
aa(lp3902
(S'turn'
S'right'
S''
tp3903
aa(lp3904
(S'verify'
S'at'
S' easel'
tp3905
aa(lp3906
(S'turn'
S''
S''
tp3907
aa(lp3908
(S'turn'
S''
S''
tp3909
aa(lp3910
(S'travel'
S''
S''
tp3911
aa(lp3912
(S'travel'
S'steps'
S' 1'
tp3913
aa(lp3914
(S'verify'
p3915
S'front'
S' flower hallway'
tp3916
a(g3915
S'front'
S' hatrack'
tp3917
aa(lp3918
(S'turn'
S'right'
S''
tp3919
aa(lp3920
(S'turn'
S'right'
S''
tp3921
aa(lp3922
(S'turn'
S'left'
S''
tp3923
aa(lp3924
(S'travel'
S''
S''
tp3925
aa(lp3926
(S'travel'
S'steps'
S' 1'
tp3927
aa(lp3928
(S'turn'
S'left'
S''
tp3929
aa(lp3930
(S'travel'
S'steps'
S' 1'
tp3931
aa(lp3932
(S'verify'
S'front'
S' easel'
p3933
tp3934
aa(lp3935
(S'verify'
S'front'
S' gravel hallway'
tp3936
aa(lp3937
(S'travel'
S'steps'
S' 1'
tp3938
aa(lp3939
(S'turn'
S'right'
S''
tp3940
aa(lp3941
(S'turn'
S'right'
S''
tp3942
aa(lp3943
(S'turn'
S''
S''
tp3944
aa(lp3945
(S'verify'
S'front'
S' butterfly wall'
tp3946
aa(lp3947
(S'travel'
S'steps'
S' 1'
tp3948
aa(lp3949
(S'travel'
S'steps'
S' 3'
tp3950
aa(lp3951
(S'turn'
S'right'
S''
tp3952
aa(lp3953
(S'travel'
S'steps'
S' 1'
tp3954
aa(lp3955
(S'verify'
p3956
S'front'
S' chair'
tp3957
a(g3956
S'front'
S' hatrack'
tp3958
aa(lp3959
(S'travel'
S'steps'
S' 1'
tp3960
aa(lp3961
(S'turn'
S'right'
S''
tp3962
aa(lp3963
(S'travel'
S''
S''
tp3964
aa(lp3965
(S'travel'
S'steps'
S' 2'
tp3966
aa(lp3967
(S'travel'
S'steps'
S' 1'
tp3968
aa(lp3969
(S'turn'
S'right'
S''
tp3970
aa(lp3971
(S'travel'
S'steps'
S' 2'
tp3972
aa(lp3973
(S'travel'
S'steps'
S' 1'
tp3974
aa(lp3975
(S'travel'
S'steps'
S' 1'
tp3976
aa(lp3977
(S'verify'
p3978
S'right'
S' brick hallway'
tp3979
a(g3978
S'left'
S' brick hallway'
tp3980
a(g3978
S'front'
S' chair'
tp3981
aa(lp3982
(S'turn'
S''
S''
tp3983
aa(lp3984
(S'turn'
S'right'
S''
tp3985
aa(lp3986
(S'travel'
S''
S''
tp3987
aa(lp3988
(S'verify'
S'front'
S' gravel hallway'
tp3989
aa(lp3990
(S'travel'
S''
S''
tp3991
aa(lp3992
(S'turn'
S''
S''
tp3993
aa(lp3994
(S'turn'
S''
S''
tp3995
aa(lp3996
(S'turn'
S'right'
S''
tp3997
aa(lp3998
(S'verify'
p3999
S'front'
S' brick hallway'
tp4000
a(g3999
S'left'
S' concrete hallway'
tp4001
aa(lp4002
(S'turn'
S''
S''
tp4003
aa(lp4004
(S'verify'
S'front'
S' gravel hallway'
p4005
tp4006
aa(lp4007
(g316
S''
S''
tp4008
aa(lp4009
(S'turn'
S'left'
S''
tp4010
aa(lp4011
(S'travel'
S'steps'
S' 1'
tp4012
aa(lp4013
(S'travel'
S'steps'
S' 6'
tp4014
aa(lp4015
(S'verify'
S'front'
S' yellow hallway'
tp4016
aa(lp4017
(S'travel'
S''
S''
tp4018
aa(lp4019
(S'verify'
S'front'
S' flower hallway'
tp4020
aa(lp4021
(S'turn'
S'left'
S''
tp4022
aa(lp4023
(S'turn'
S'right'
S''
tp4024
aa(lp4025
(S'verify'
S'left'
S' hallway'
p4026
tp4027
aa(lp4028
(S'verify'
S'front'
S' easel'
tp4029
aa(lp4030
(S'turn'
S'left'
S''
tp4031
aa(lp4032
(S'turn'
S''
S''
tp4033
aa(lp4034
(S'turn'
S'right'
S''
tp4035
aa(lp4036
(S'turn'
S'left'
S''
tp4037
aa(lp4038
(S'verify'
S'front'
S' chair'
tp4039
aa(lp4040
(S'turn'
S'left'
S''
tp4041
aa(lp4042
(S'travel'
S''
S''
tp4043
aa(lp4044
(S'turn'
S'right'
S''
tp4045
aa(lp4046
(S'travel'
S'steps'
S' 1'
tp4047
aa(lp4048
(S'verify'
S'side'
S' brick hallway'
tp4049
aa(lp4050
(S'turn'
S''
S''
tp4051
aa(lp4052
(S'travel'
S''
S''
tp4053
aa(lp4054
(S'turn'
S''
S''
tp4055
aa(lp4056
(S'travel'
S''
S''
tp4057
aa(lp4058
(S'travel'
S'steps'
S' 2'
tp4059
aa(lp4060
(S'verify'
S'side'
S' gravel hallway'
tp4061
aa(lp4062
(S'turn'
S'left'
S''
tp4063
aa(lp4064
(S'travel'
S'steps'
S' 1'
tp4065
aa(lp4066
(S'travel'
S''
S''
tp4067
aa(lp4068
(S'turn'
S'left'
S''
tp4069
aa(lp4070
(S'travel'
S''
S''
tp4071
aa(lp4072
(S'turn'
S''
S''
tp4073
aa(lp4074
(S'travel'
S'steps'
S' 2'
tp4075
aa(lp4076
(S'travel'
S''
S''
tp4077
aa(lp4078
(S'turn'
S''
S''
tp4079
aa(lp4080
(S'turn'
S'left'
S''
tp4081
aa(lp4082
(S'turn'
S''
S''
tp4083
aa(lp4084
(S'turn'
S'left'
S''
tp4085
aa(lp4086
(S'travel'
S'steps'
S' 1'
tp4087
aa(lp4088
(S'turn'
S''
S''
tp4089
aa(lp4090
(S'travel'
S''
S''
tp4091
aa(lp4092
(S'verify'
S'front'
S' easel'
tp4093
aa(lp4094
(S'turn'
S'right'
S''
tp4095
aa(lp4096
(S'travel'
S''
S''
tp4097
aa(lp4098
(S'verify'
S'left'
S' gravel hallway'
tp4099
aa(lp4100
(S'travel'
S'steps'
S' 1'
tp4101
aa(lp4102
(S'verify'
S'at'
S' hatrack'
tp4103
aa(lp4104
(S'turn'
S''
S''
tp4105
aa(lp4106
(S'turn'
S''
S''
tp4107
aa(lp4108
(S'turn'
S'left'
S''
tp4109
aa(lp4110
(S'travel'
S'steps'
S' 1'
tp4111
aa(lp4112
(S'turn'
S'left'
S''
tp4113
aa(lp4114
(S'turn'
S'right'
S''
tp4115
aa(lp4116
(S'turn'
S''
S''
tp4117
aa(lp4118
(S'travel'
S''
S''
tp4119
aa(lp4120
(S'travel'
S'steps'
S' 2'
tp4121
aa(lp4122
(S'travel'
S'steps'
S' 1'
tp4123
aa(lp4124
(S'turn'
S'left'
S''
tp4125
aa(lp4126
(S'turn'
S''
S''
tp4127
aa(lp4128
(S'verify'
S'front'
S' gravel hallway'
tp4129
aa(lp4130
(S'turn'
S'left'
S''
tp4131
aa(lp4132
(S'turn'
S''
S''
tp4133
aa(lp4134
(S'travel'
S''
S''
tp4135
aa(lp4136
(S'travel'
S''
S''
tp4137
aa(lp4138
(S'travel'
S''
S''
tp4139
aa(lp4140
(S'turn'
S'right'
S''
tp4141
aa(lp4142
(S'travel'
S'steps'
S' 1'
tp4143
aa(lp4144
(S'turn'
S'right'
S''
tp4145
aa(lp4146
(S'verify'
S'side'
S' yellow hallway'
tp4147
aa(lp4148
(S'turn'
S''
S''
tp4149
aa(lp4150
(S'turn'
S''
S''
tp4151
aa(lp4152
(S'travel'
S''
S''
tp4153
aa(lp4154
(S'turn'
S'right'
S''
tp4155
aa(lp4156
(S'travel'
S''
S''
tp4157
aa(lp4158
(S'travel'
S'steps'
S' 1'
tp4159
aa(lp4160
(g316
S''
S''
tp4161
aa(lp4162
(S'verify'
S'at'
S' easel'
tp4163
aa(lp4164
(S'turn'
S''
S''
tp4165
aa(lp4166
(S'travel'
S''
S''
tp4167
aa(lp4168
(S'turn'
S'right'
S''
tp4169
aa(lp4170
(S'travel'
S'steps'
S' 1'
tp4171
aa(lp4172
(S'turn'
S'right'
S''
tp4173
aa(lp4174
(S'turn'
S''
S''
tp4175
aa(lp4176
(S'travel'
S''
S''
tp4177
aa(lp4178
(S'travel'
S''
S''
tp4179
aa(lp4180
(S'travel'
S'steps'
S' 6'
tp4181
aa(lp4182
(S'travel'
S'steps'
S' 2'
tp4183
aa(lp4184
(S'travel'
S''
S''
tp4185
aa(lp4186
(S'verify'
S'at'
S' hatrack'
tp4187
aa(lp4188
(S'travel'
S'steps'
S' 2'
tp4189
aa(lp4190
(S'turn'
S'right'
S''
tp4191
aa(lp4192
(S'verify'
S'front'
S' lamp'
tp4193
aa(lp4194
(S'turn'
S'right'
S''
tp4195
aa(lp4196
(S'travel'
S''
S''
tp4197
aa(lp4198
(S'turn'
S''
S''
tp4199
aa(lp4200
(S'turn'
S'left'
S''
tp4201
aa(lp4202
(S'travel'
S''
S''
tp4203
aa(lp4204
(S'travel'
S'steps'
S' 3'
tp4205
aa(lp4206
(S'travel'
S''
S''
tp4207
aa(lp4208
(S'travel'
S''
S''
tp4209
aa(lp4210
(S'travel'
S''
S''
tp4211
aa(lp4212
(g316
S''
S''
tp4213
aa(lp4214
(S'turn'
S''
S''
tp4215
aa(lp4216
(S'turn'
S'left'
S''
tp4217
aa(lp4218
(S'travel'
S'steps'
S' 1'
tp4219
aa(lp4220
(S'travel'
S''
S''
tp4221
aa(lp4222
(S'travel'
S'steps'
S' 3'
tp4223
aa(lp4224
(S'travel'
S''
S''
tp4225
aa(lp4226
(S'verify'
S'back'
S' tower wall'
tp4227
aa(lp4228
(S'travel'
S''
S''
tp4229
aa(lp4230
(S'turn'
S'right'
S''
tp4231
aa(lp4232
(S'turn'
S''
S''
tp4233
aa(lp4234
(S'turn'
S'left'
S''
tp4235
aa(lp4236
(S'turn'
S''
S''
tp4237
aa(lp4238
(S'turn'
S''
S''
tp4239
aa(lp4240
(S'verify'
S'front'
S' wood hallway'
tp4241
aa(lp4242
(S'turn'
S'left'
S''
tp4243
aa(lp4244
(S'verify'
S'front'
S' butterfly wall'
tp4245
aa(lp4246
(S'verify'
S'side'
S' wood hallway'
tp4247
aa(lp4248
(S'turn'
S'left'
S''
tp4249
aa(lp4250
(S'travel'
S'steps'
S' 1'
tp4251
aa(lp4252
(S'travel'
S'steps'
S' 1'
tp4253
aa(lp4254
(S'turn'
S'right'
S''
tp4255
aa(lp4256
(S'turn'
S'left'
S''
tp4257
aa(lp4258
(S'travel'
S'steps'
S' 1'
tp4259
aa(lp4260
(S'verify'
S'side'
S' brick hallway'
p4261
tp4262
aa(lp4263
(S'travel'
S'steps'
S' 2'
tp4264
aa(lp4265
(S'turn'
S'right'
S''
tp4266
aa(lp4267
(S'turn'
S''
S''
tp4268
aa(lp4269
(S'turn'
S''
S''
tp4270
aa(lp4271
(S'turn'
S''
S''
tp4272
aa(lp4273
(S'verify'
S'right'
S' concrete hallway'
tp4274
aa(lp4275
(S'travel'
S''
S''
tp4276
aa(lp4277
(S'verify'
S'at'
S' chair'
tp4278
aa(lp4279
(S'turn'
S'left'
S''
tp4280
aa(lp4281
(S'turn'
S''
S''
tp4282
aa(lp4283
(S'travel'
S'steps'
S' 2'
tp4284
aa(lp4285
(S'turn'
S'left'
S''
tp4286
aa(lp4287
(S'travel'
S''
S''
tp4288
aa(lp4289
(S'travel'
S'steps'
S' 3'
tp4290
aa(lp4291
(S'travel'
S'steps'
S' 3'
tp4292
aa(lp4293
(S'verify'
S'front'
S' lamp'
tp4294
aa(lp4295
(S'travel'
S''
S''
tp4296
aa(lp4297
(S'travel'
S'steps'
S' 1'
tp4298
aa(lp4299
(S'travel'
S'steps'
S' 1'
tp4300
aa(lp4301
(S'travel'
S''
S''
tp4302
aa(lp4303
(S'verify'
S'front'
S' easel'
tp4304
aa(lp4305
(S'travel'
S''
S''
tp4306
aa(lp4307
(S'turn'
S'right'
S''
tp4308
aa(lp4309
(S'turn'
S'left'
S''
tp4310
aa(lp4311
(S'turn'
S''
S''
tp4312
aa(lp4313
(S'verify'
p4314
S'front'
S' chair'
tp4315
a(g4314
S'front'
S' hatrack'
tp4316
aa(lp4317
(S'turn'
S''
S''
tp4318
aa(lp4319
(S'verify'
S'front'
S' lamp'
tp4320
aa(lp4321
(S'travel'
S'steps'
S' 2'
tp4322
aa(lp4323
(S'travel'
S'steps'
S' 1'
tp4324
aa(lp4325
(S'turn'
S'right'
S''
tp4326
aa(lp4327
(S'travel'
S''
S''
tp4328
aa(lp4329
(S'turn'
S''
S''
tp4330
aa(lp4331
(S'travel'
S''
S''
tp4332
aa(lp4333
(S'travel'
S''
S''
tp4334
aa(lp4335
(S'verify'
S'at'
S' easel'
tp4336
aa(lp4337
(S'travel'
S''
S''
tp4338
aa(lp4339
(S'travel'
S'steps'
S' 1'
tp4340
aa(lp4341
(S'travel'
S''
S''
tp4342
aa(lp4343
(S'travel'
S'steps'
S' 1'
tp4344
aa(lp4345
(S'verify'
S'side'
S' yellow hallway'
tp4346
aa(lp4347
(S'travel'
S''
S''
tp4348
aa(lp4349
(S'turn'
S'left'
S''
tp4350
aa(lp4351
(S'verify'
S'front'
S' concrete hallway'
p4352
tp4353
aa(lp4354
(S'travel'
S'steps'
S' 2'
tp4355
aa(lp4356
(S'turn'
S''
S''
tp4357
aa(lp4358
(S'turn'
S'left'
S''
tp4359
aa(lp4360
(S'verify'
S'front'
S' sofa'
tp4361
aa(lp4362
(S'turn'
S'right'
S''
tp4363
aa(lp4364
(S'turn'
S'left'
S''
tp4365
aa(lp4366
(S'turn'
S''
S''
tp4367
aa(lp4368
(S'verify'
S'front'
S' blue hallway'
tp4369
aa(lp4370
(S'travel'
S'steps'
S' 1'
tp4371
aa(lp4372
(S'verify'
p4373
S'front'
S' blue hallway'
tp4374
a(g4373
S'front'
S' chair'
tp4375
aa(lp4376
(S'turn'
S'right'
S''
tp4377
aa(lp4378
(S'verify'
S'front'
S' easel'
tp4379
aa(lp4380
(S'turn'
S''
S''
tp4381
aa(lp4382
(S'turn'
S'right'
S''
tp4383
aa(lp4384
(S'turn'
S''
S''
tp4385
aa(lp4386
(S'travel'
S''
S''
tp4387
aa(lp4388
(S'travel'
S''
S''
tp4389
aa(lp4390
(S'travel'
S'steps'
S' 1'
tp4391
aa(lp4392
(S'travel'
S''
S''
tp4393
aa(lp4394
(S'verify'
p4395
S'front'
S' wall'
tp4396
a(g4395
S'left'
S' wall'
tp4397
a(g4395
S'right'
S' wall'
tp4398
aa(lp4399
(S'travel'
S'steps'
S' 2'
tp4400
aa(lp4401
(S'turn'
S''
S''
tp4402
aa(lp4403
(S'travel'
S'steps'
S' 1'
tp4404
aa(lp4405
(S'turn'
S'left'
S''
tp4406
aa(lp4407
(S'travel'
S'steps'
S' 2'
tp4408
aa(lp4409
(S'verify'
S'at'
S' hatrack'
tp4410
aa(lp4411
(S'travel'
S''
S''
tp4412
aa(lp4413
(S'turn'
S'left'
S''
tp4414
aa(lp4415
(S'travel'
S''
S''
tp4416
aa(lp4417
(S'verify'
S'side'
S' yellow hallway'
tp4418
aa(lp4419
(S'verify'
S'side'
S' yellow hallway'
tp4420
aa(lp4421
(S'travel'
S''
S''
tp4422
aa(lp4423
(S'travel'
S'steps'
S' 1'
tp4424
aa(lp4425
(S'turn'
S'right'
S''
tp4426
aa(lp4427
(S'travel'
S'steps'
S' 1'
tp4428
aa(lp4429
(S'verify'
p4430
S'front'
S' brick hallway'
tp4431
a(g4430
S'front'
S' lamp'
tp4432
aa(lp4433
(S'travel'
S'steps'
S' 1'
tp4434
aa(lp4435
(S'travel'
S'steps'
S' 1'
tp4436
aa(lp4437
(S'turn'
S''
S''
tp4438
aa(lp4439
(S'travel'
S''
S''
tp4440
aa(lp4441
(S'turn'
S''
S''
tp4442
aa(lp4443
(S'travel'
S'steps'
S' 1'
tp4444
aa(lp4445
(S'turn'
S'left'
S''
tp4446
aa(lp4447
(S'travel'
S'steps'
S' 1'
tp4448
aa(lp4449
(S'travel'
S'steps'
S' 1'
tp4450
aa(lp4451
(S'verify'
S'front'
S' easel'
tp4452
aa(lp4453
(S'travel'
S'steps'
S' 2'
tp4454
aa(lp4455
(S'travel'
S''
S''
tp4456
aa(lp4457
(S'verify'
S'left'
S' easel'
tp4458
aa(lp4459
(S'turn'
S'right'
S''
tp4460
aa(lp4461
(S'travel'
S''
S''
tp4462
aa(lp4463
(S'travel'
S'steps'
S' 2'
tp4464
aa(lp4465
(S'verify'
S'side'
S' grass hallway'
tp4466
aa(lp4467
(S'travel'
S'steps'
S' 1'
tp4468
aa(lp4469
(S'travel'
S''
S''
tp4470
aa(lp4471
(S'verify'
p4472
S'front'
S' barstool'
tp4473
a(g4472
S'front'
S' chair'
tp4474
aa(lp4475
(S'turn'
S'left'
S''
tp4476
aa(lp4477
(S'travel'
S''
S''
tp4478
aa(lp4479
(S'travel'
S'steps'
S' 1'
tp4480
aa(lp4481
(S'travel'
S''
S''
tp4482
aa(lp4483
(S'travel'
S''
S''
tp4484
aa(lp4485
(S'travel'
S'steps'
S' 1'
tp4486
aa(lp4487
(S'turn'
S''
S''
tp4488
aa(lp4489
(S'travel'
S''
S''
tp4490
aa(lp4491
(S'turn'
S'right'
S''
tp4492
aa(lp4493
(S'turn'
S'right'
S''
tp4494
aa(lp4495
(S'turn'
S'left'
S''
tp4496
aa(lp4497
(S'turn'
S'left'
S''
tp4498
aa(lp4499
(S'verify'
S'right'
S' gravel hallway'
tp4500
aa(lp4501
(S'travel'
S'steps'
S' 1'
tp4502
aa(lp4503
(S'turn'
S''
S''
tp4504
aa(lp4505
(S'travel'
S'steps'
S' 7'
p4506
tp4507
aa(lp4508
(S'travel'
S''
S''
tp4509
aa(lp4510
(S'turn'
S'right'
S''
tp4511
aa(lp4512
(S'turn'
S'left'
S''
tp4513
aa(lp4514
(S'travel'
S'steps'
S' 1'
tp4515
aa(lp4516
(S'travel'
S'steps'
S' 1'
tp4517
aa(lp4518
(S'turn'
S''
S''
tp4519
aa(lp4520
(S'turn'
S'right'
S''
tp4521
aa(lp4522
(S'turn'
S''
S''
tp4523
aa(lp4524
(S'turn'
S'right'
S''
tp4525
aa(lp4526
(S'travel'
S'steps'
S' 1'
tp4527
aa(lp4528
(S'verify'
S'side'
S' gravel hallway'
tp4529
aa(lp4530
(S'travel'
S'steps'
S' 1'
tp4531
aa(lp4532
(S'turn'
S''
S''
tp4533
aa(lp4534
(S'verify'
p4535
S'left'
S' concrete hallway'
tp4536
a(g4535
S'right'
S' concrete hallway'
tp4537
aa(lp4538
(S'travel'
S''
S''
tp4539
aa(lp4540
(S'verify'
S'front'
S' flower hallway'
tp4541
aa(lp4542
(S'turn'
S''
S''
tp4543
aa(lp4544
(S'travel'
S''
S''
tp4545
aa(lp4546
(S'turn'
S'right'
S''
tp4547
aa(lp4548
(S'turn'
S'right'
S''
tp4549
aa(lp4550
(S'turn'
S'left'
S''
tp4551
aa(lp4552
(S'verify'
p4553
S'front'
S' hatrack'
tp4554
a(g4553
S'front'
S' lamp'
tp4555
aa(lp4556
(S'turn'
S'right'
S''
tp4557
aa(lp4558
(S'travel'
S''
S''
tp4559
aa(lp4560
(S'turn'
S''
S''
tp4561
aa(lp4562
(S'turn'
S'right'
S''
tp4563
aa(lp4564
(S'verify'
S'front'
S' grass hallway'
tp4565
aa(lp4566
(S'travel'
S''
S''
tp4567
aa(lp4568
(S'travel'
S''
S''
tp4569
aa(lp4570
(S'travel'
S'steps'
S' 1'
tp4571
aa(lp4572
(S'verify'
S'at'
S' sofa'
tp4573
aa(lp4574
(S'turn'
S''
S''
tp4575
aa(lp4576
(S'turn'
S''
S''
tp4577
aa(lp4578
(S'turn'
S''
S''
tp4579
aa(lp4580
(S'travel'
S''
S''
tp4581
aa(lp4582
(S'turn'
S'left'
S''
tp4583
aa(lp4584
(S'verify'
p4585
S'front'
S' blue hallway'
tp4586
a(g4585
S'front'
S' sofa'
tp4587
aa(lp4588
(S'travel'
S'steps'
S' 3'
tp4589
aa(lp4590
(S'verify'
S'front'
S' gravel hallway'
tp4591
aa(lp4592
(S'turn'
S''
S''
tp4593
aa(lp4594
(S'travel'
S''
S''
tp4595
aa(lp4596
(S'travel'
S''
S''
tp4597
aa(lp4598
(S'verify'
p4599
S'side'
S' gravel hallway'
tp4600
a(g4599
S'right'
S' easel'
p4601
tp4602
aa(lp4603
(S'turn'
S'left'
S''
tp4604
aa(lp4605
(S'travel'
S''
S''
tp4606
aa(lp4607
(S'travel'
S''
S''
tp4608
aa(lp4609
(S'verify'
S'front'
S' blue hallway'
tp4610
aa(lp4611
(S'travel'
S'steps'
S' 1'
tp4612
aa(lp4613
(S'verify'
S'right'
S' wall'
p4614
tp4615
aa(lp4616
(S'turn'
S'left'
S''
tp4617
aa(lp4618
(S'travel'
S''
S''
tp4619
aa(lp4620
(S'travel'
S'steps'
S' 5'
p4621
tp4622
aa(lp4623
(S'turn'
S''
S''
tp4624
aa(lp4625
(S'travel'
S'steps'
S' 5'
tp4626
aa(lp4627
(S'turn'
S'left'
S''
tp4628
aa(lp4629
(S'turn'
S''
S''
tp4630
aa(lp4631
(S'verify'
S'left'
S' grass hallway'
tp4632
aa(lp4633
(S'turn'
S''
S''
tp4634
aa(lp4635
(S'turn'
S'left'
S''
tp4636
aa(lp4637
(S'verify'
p4638
S'front'
S' sofa'
tp4639
a(g4638
S'front'
S' hatrack'
tp4640
aa(lp4641
(S'verify'
S'front'
S' gravel hallway'
tp4642
aa(lp4643
(S'turn'
S'left'
S''
tp4644
aa(lp4645
(S'verify'
S'front'
S' chair'
tp4646
aa(lp4647
(S'turn'
S'left'
S''
tp4648
aa(lp4649
(S'turn'
S'left'
S''
tp4650
aa(lp4651
(S'turn'
S'right'
S''
tp4652
aa(lp4653
(S'verify'
p4654
S'back'
S' gravel hallway'
tp4655
a(g4654
S'front'
S' gravel hallway'
tp4656
aa(lp4657
(S'travel'
S''
S''
tp4658
aa(lp4659
(S'verify'
p4660
S'left'
S' blue hallway'
p4661
tp4662
a(g4660
S'back'
S' chair'
p4663
tp4664
aa(lp4665
(S'travel'
S'steps'
S' 2'
tp4666
aa(lp4667
(S'travel'
S'steps'
S' 1'
tp4668
aa(lp4669
(S'verify'
S'front'
S' chair'
tp4670
aa(lp4671
(S'travel'
S'steps'
S' 1'
tp4672
aa(lp4673
(S'verify'
S'front'
S' brick hallway'
tp4674
aa(lp4675
(S'turn'
S''
S''
tp4676
aa(lp4677
(S'travel'
S'steps'
S' 2'
tp4678
aa(lp4679
(S'turn'
S'left'
S''
tp4680
aa(lp4681
(S'travel'
S''
S''
tp4682
aa(lp4683
(S'verify'
S'at'
S' easel'
tp4684
aa(lp4685
(S'travel'
S'steps'
S' 1'
tp4686
aa(lp4687
(S'turn'
S'left'
S''
tp4688
aa(lp4689
(g316
S''
S''
tp4690
aa(lp4691
(S'travel'
S'steps'
S' 1'
tp4692
aa(lp4693
(S'travel'
S''
S''
tp4694
aa(lp4695
(S'turn'
S'right'
S''
tp4696
aa(lp4697
(S'travel'
S'steps'
S' 1'
tp4698
aa(lp4699
(S'turn'
S'left'
S''
tp4700
aa(lp4701
(S'turn'
S'left'
S''
tp4702
aa(lp4703
(S'turn'
S''
S''
tp4704
aa(lp4705
(S'turn'
S'right'
S''
tp4706
aa(lp4707
(S'turn'
S''
S''
tp4708
aa(lp4709
(S'travel'
S''
S''
tp4710
aa(lp4711
(S'turn'
S'left'
S''
tp4712
aa(lp4713
(S'turn'
S''
S''
tp4714
aa(lp4715
(S'turn'
S'right'
S''
tp4716
aa(lp4717
(S'turn'
S''
S''
tp4718
aa(lp4719
(S'verify'
S'front'
S' hatrack'
tp4720
aa(lp4721
(S'travel'
S'steps'
S' 1'
tp4722
aa(lp4723
(S'travel'
S'steps'
S' 1'
tp4724
aa(lp4725
(S'turn'
S'right'
S''
tp4726
aa(lp4727
(S'turn'
S'left'
S''
tp4728
aa(lp4729
(S'travel'
S''
S''
tp4730
aa(lp4731
(S'turn'
S'left'
S''
tp4732
aa(lp4733
(S'travel'
S''
S''
tp4734
aa(lp4735
(S'travel'
S''
S''
tp4736
aa(lp4737
(S'verify'
S'front'
S' brick hallway'
tp4738
aa(lp4739
(S'verify'
S'front'
S' blue hallway'
tp4740
aa(lp4741
(S'turn'
S''
S''
tp4742
aa(lp4743
(S'turn'
S'right'
S''
tp4744
aa(lp4745
(S'turn'
S''
S''
tp4746
aa(lp4747
(S'turn'
S'right'
S''
tp4748
aa(lp4749
(S'travel'
S'steps'
S' 1'
tp4750
aa(lp4751
(S'verify'
p4752
S'back'
S' butterfly wall'
tp4753
a(g4752
S'left'
S' butterfly wall'
tp4754
aa(lp4755
(S'travel'
S''
S''
tp4756
aa(lp4757
(S'travel'
S''
S''
tp4758
aa(lp4759
(S'travel'
S'steps'
S' 1'
tp4760
aa(lp4761
(S'verify'
p4762
S'front'
S' wood hallway'
tp4763
a(g4762
S'back'
S' wood hallway'
tp4764
a(g4762
S'left'
S' concrete hallway'
tp4765
aa(lp4766
(S'travel'
S''
S''
tp4767
aa(lp4768
(S'travel'
S''
S''
tp4769
aa(lp4770
(S'travel'
S'steps'
S' 1'
tp4771
aa(lp4772
(S'travel'
S'steps'
S' 1'
tp4773
aa(lp4774
(S'turn'
S''
S''
tp4775
aa(lp4776
(S'verify'
S'at'
S' hatrack'
p4777
tp4778
aa(lp4779
(S'turn'
S'right'
S''
tp4780
aa(lp4781
(S'turn'
S''
S''
tp4782
aa(lp4783
(S'turn'
S''
S''
tp4784
aa(lp4785
(S'turn'
S''
S''
tp4786
aa(lp4787
(S'verify'
S'at'
S' barstool'
tp4788
aa(lp4789
(S'turn'
S'left'
S''
tp4790
aa(lp4791
(S'turn'
S''
S''
tp4792
aa(lp4793
(S'turn'
S''
S''
tp4794
aa(lp4795
(S'travel'
S''
S''
tp4796
aa(lp4797
(S'turn'
S''
S''
tp4798
aa(lp4799
(S'turn'
S''
S''
tp4800
aa(lp4801
(S'travel'
S'steps'
S' 1'
tp4802
aa(lp4803
(S'travel'
S'steps'
S' 1'
tp4804
aa(lp4805
(S'travel'
S''
S''
tp4806
aa(lp4807
(S'travel'
S'steps'
S' 1'
tp4808
aa(lp4809
(S'turn'
S''
S''
tp4810
aa(lp4811
(S'turn'
S''
S''
tp4812
aa(lp4813
(S'turn'
S''
S''
tp4814
aa(lp4815
(S'turn'
S''
S''
tp4816
aa(lp4817
(S'turn'
S''
S''
tp4818
aa(lp4819
(S'verify'
S'front'
S' lamp'
tp4820
aa(lp4821
(S'travel'
S''
S''
tp4822
aa(lp4823
(S'turn'
S''
S''
tp4824
aa(lp4825
(S'verify'
S'front'
S' flower hallway'
tp4826
aa(lp4827
(S'turn'
S'right'
S''
tp4828
aa(lp4829
(S'travel'
S'steps'
S' 2'
tp4830
aa.