(lp1
(lp2
(S'turn'
S''
S''
tp3
a(S'verify'
p4
S'front'
S' brick hallway'
tp5
a(g4
S'back'
S' chair'
tp6
a(g4
S'front'
S' lamp'
tp7
a(g4
S'front'
S' easel'
tp8
aa(lp9
(S'turn'
S'right'
S''
tp10
a(S'verify'
S'front'
S' flower hallway'
tp11
aa(lp12
(S'verify'
S'front'
S' blue hallway'
tp13
a(S'travel'
S'steps'
S' 2'
tp14
aa(lp15
(S'travel'
S'steps'
S' 3'
tp16
a(S'verify'
p17
S'side'
S' flower hallway'
tp18
a(g17
S'at'
S' 3-intersection'
tp19
aa(lp20
(S'turn'
S'right'
S''
tp21
a(S'travel'
S'steps'
S' 2'
tp22
aa(lp23
(S'travel'
S''
S''
tp24
a(S'verify'
S'right'
S' hallway'
tp25
a(S'turn'
S'right'
S''
tp26
aa(lp27
(S'travel'
S'steps'
S' 1'
tp28
aa(lp29
(S'travel'
S'steps'
S' 1'
tp30
aa(lp31
(S'verify'
S'at'
S' hatrack'
tp32
a(S'turn'
S'right'
S''
tp33
a(S'verify'
S'front'
S' sofa'
tp34
a(S'travel'
S'steps'
S' 2'
tp35
a(S'verify'
S'back'
S' sofa'
tp36
aa(lp37
(S'travel'
S''
S''
tp38
a(S'verify'
p39
S'front'
S' wall'
tp40
a(g39
S'left'
S' wall'
tp41
a(g39
S'back'
S' grass hallway'
tp42
a(g39
S'side'
S' yellow hallway'
tp43
aa(lp44
(S'turn'
S'right'
S''
tp45
aa(lp46
(S'travel'
S''
S''
tp47
a(S'verify'
S'at'
S' chair'
tp48
aa(lp49
(S'travel'
S'steps'
S' 1'
tp50
aa(lp51
(S'turn'
S'left'
S''
tp52
aa(lp53
(S'turn'
S''
S''
tp54
a(S'verify'
S'front'
S' yellow hallway'
tp55
aa(lp56
(S'travel'
S''
S''
tp57
aa(lp58
(S'turn'
S'left'
S''
tp59
aa(lp60
(S'travel'
S''
S''
tp61
a(S'verify'
S'at'
S' chair'
tp62
aa(lp63
(S'turn'
S'right'
S''
tp64
a(S'travel'
S'steps'
S' 1'
tp65
aa(lp66
(S'travel'
S''
S''
tp67
a(S'verify'
p68
S'at'
S' easel'
tp69
a(g68
S'front'
S' gravel hallway'
tp70
a(g68
S'side'
S' yellow hallway'
tp71
aa(lp72
(S'verify'
S'front'
S' blue hallway'
tp73
a(S'travel'
S''
S''
tp74
a(S'verify'
S'front'
S' wall'
tp75
aa(lp76
(S'turn'
S''
S''
tp77
a(S'verify'
S'front'
S' chair'
tp78
aa(lp79
(S'turn'
S''
S''
tp80
a(S'verify'
S'front'
S' gravel hallway'
tp81
aa(lp82
(S'travel'
S''
S''
tp83
a(S'verify'
p84
S'front'
S' sofa'
tp85
a(g84
S'back'
S' hatrack'
tp86
aa(lp87
(S'verify'
p88
S'front'
S' brick hallway'
tp89
a(g88
S'front'
S' lamp'
tp90
a(S'travel'
S'steps'
S' 3'
tp91
a(S'verify'
p92
S'back'
S' lamp'
tp93
a(g92
S'side'
S' flower hallway'
tp94
aa(lp95
(S'verify'
p96
S'left'
S' blue hallway'
tp97
a(g96
S'right'
S' blue hallway'
tp98
a(g96
S'front'
S' wall'
tp99
aa(lp100
(S'turn'
S''
S''
tp101
a(S'verify'
S'front'
S' barstool'
tp102
aa(lp103
(S'turn'
S'left'
S''
tp104
aa(lp105
(S'travel'
S'steps'
S' 2'
tp106
a(S'verify'
S'side'
S' concrete hallway'
tp107
aa(lp108
(S'turn'
S'right'
S''
tp109
aa(lp110
(S'travel'
S'steps'
S' 2'
tp111
aa(lp112
(S'turn'
S''
S''
tp113
a(S'verify'
S'left'
S' wall'
tp114
aa(lp115
(S'turn'
S'right'
S''
tp116
aa(lp117
(S'verify'
p118
S'side'
S' concrete hallway'
tp119
a(g118
S'right'
S' butterfly wall'
tp120
a(g118
S'left'
S' tower wall'
tp121
aa(lp122
(S'travel'
S'steps'
S' 1'
tp123
aa(lp124
(S'turn'
S'left'
S''
tp125
aa(lp126
(S'travel'
S''
S''
tp127
a(S'verify'
S'side'
S' gravel hallway'
tp128
aa(lp129
(S'turn'
S''
S''
tp130
a(S'verify'
S'back'
S' wall'
tp131
aa(lp132
(S'travel'
S'steps'
S' 1'
tp133
aa(lp134
(S'turn'
S'left'
S''
tp135
a(S'verify'
S'front'
S' blue hallway'
tp136
a(S'travel'
S''
S''
tp137
a(S'verify'
S'front'
S' wall'
tp138
aa(lp139
(S'turn'
S''
S''
tp140
a(S'verify'
p141
S'back'
S' wall'
tp142
a(g141
S'right'
S' wall'
tp143
a(g141
S'left'
S' wall'
tp144
aa(lp145
(S'travel'
S'steps'
S' 1'
tp146
aa(lp147
(S'turn'
S'right'
S''
tp148
a(S'verify'
S'front'
S' gravel hallway'
tp149
a(S'travel'
S''
S''
tp150
a(S'verify'
p151
S'front'
S' gravel hallway'
tp152
a(g151
S'side'
S' yellow hallway'
tp153
aa(lp154
(S'null'
p155
S''
S''
tp156
aa(lp157
(S'turn'
S'right'
S''
tp158
a(S'travel'
S'steps'
S' 1'
tp159
aa(lp160
(S'travel'
S''
S''
tp161
a(S'verify'
S'right'
S' wood hallway'
p162
tp163
aa(lp164
(g155
S''
S''
tp165
aa(lp166
(S'travel'
S''
S''
tp167
a(S'verify'
S'at'
S' chair'
tp168
a(S'turn'
S'right'
S''
tp169
aa(lp170
(S'turn'
S''
S''
tp171
a(S'verify'
S'back'
S' easel'
tp172
a(S'travel'
S'steps'
S' 1'
tp173
aa(lp174
(S'turn'
S'right'
S''
tp175
aa(lp176
(S'travel'
S''
S''
tp177
a(S'verify'
p178
S'front'
S' wall'
tp179
a(g178
S'left'
S' wall'
tp180
aa(lp181
(g155
S''
S''
tp182
aa(lp183
(S'turn'
S'left'
S''
tp184
aa(lp185
(S'travel'
S''
S''
tp186
a(S'turn'
S''
S''
tp187
a(S'travel'
S''
S''
tp188
a(S'turn'
S''
S''
tp189
a(S'travel'
S''
S''
tp190
a(S'verify'
p191
S'front'
S' wall'
tp192
a(g191
S'left'
S' wall'
tp193
a(g191
S'right'
S' wall'
tp194
aa(lp195
(S'verify'
p196
S'front'
S' lamp'
tp197
a(g196
S'front'
S' hatrack'
tp198
a(S'travel'
S'steps'
S' 5'
tp199
a(S'verify'
p200
S'back'
S' lamp'
tp201
a(g200
S'back'
S' hatrack'
tp202
a(g200
S'side'
S' gravel hallway'
tp203
aa(lp204
(S'turn'
S''
S''
tp205
a(S'verify'
p206
S'back'
S' wall'
tp207
a(g206
S'right'
S' wall'
tp208
a(g206
S'left'
S' wall'
tp209
aa(lp210
(S'travel'
S'steps'
S' 1'
tp211
aa(lp212
(S'verify'
p213
S'front'
S' easel'
tp214
a(g213
S'left'
S' chair'
tp215
aa(lp216
(S'turn'
S'right'
S''
tp217
aa(lp218
(S'travel'
S''
S''
tp219
a(S'verify'
S'at'
S' hatrack'
tp220
a(S'turn'
S'right'
S''
tp221
a(S'verify'
S'front'
S' concrete hallway'
tp222
aa(lp223
(g155
S''
S''
tp224
aa(lp225
(S'turn'
S''
S''
tp226
a(S'verify'
p227
S'left'
S' gravel hallway'
tp228
a(g227
S'left'
S' easel'
tp229
a(g227
S'front'
S' yellow hallway'
tp230
aa(lp231
(S'travel'
S'steps'
S' 1'
tp232
a(S'verify'
S'side'
S' wood hallway'
tp233
aa(lp234
(S'turn'
S'right'
S''
tp235
aa(lp236
(S'travel'
S'steps'
S' 1'
tp237
aa(lp238
(S'verify'
S'at'
S' hatrack'
tp239
aa(lp240
(S'turn'
S'left'
S''
tp241
a(S'verify'
S'front'
S' wood hallway'
tp242
aa(lp243
(S'turn'
S'left'
S''
tp244
aa(lp245
(S'verify'
p246
S'front'
S' hatrack'
tp247
a(g246
S'left'
S' concrete hallway'
tp248
aa(lp249
(S'travel'
S''
S''
tp250
a(S'verify'
S'front'
S' flower hallway'
tp251
aa(lp252
(S'travel'
S''
S''
tp253
a(S'verify'
S'side'
S' flower hallway'
tp254
aa(lp255
(S'verify'
S'front'
S' easel'
tp256
a(S'travel'
S''
S''
tp257
a(S'verify'
p258
S'back'
S' easel'
tp259
a(g258
S'front'
S' wall'
tp260
a(g258
S'right'
S' wall'
tp261
a(g258
S'side'
S' brick hallway'
tp262
aa(lp263
(S'verify'
S'front'
S' blue hallway'
tp264
a(S'travel'
S''
S''
tp265
aa(lp266
(S'turn'
S''
S''
tp267
a(S'verify'
S'front'
S' fish wall'
tp268
aa(lp269
(S'travel'
S'steps'
S' 1'
tp270
aa(lp271
(S'turn'
S'left'
S''
tp272
aa(lp273
(S'travel'
S''
S''
tp274
aa(lp275
(S'travel'
S'steps'
S' 1'
tp276
aa(lp277
(S'verify'
S'front'
S' chair'
tp278
a(S'travel'
S''
S''
tp279
a(S'verify'
p280
S'back'
S' chair'
tp281
a(g280
S'at'
S' lamp'
tp282
aa(lp283
(S'travel'
S''
S''
tp284
a(S'verify'
S'at'
S' sofa'
tp285
a(S'turn'
S'right'
S''
tp286
aa(lp287
(S'turn'
S''
S''
tp288
a(S'travel'
S''
S''
tp289
a(S'verify'
p290
S'front'
S' wall'
tp291
a(g290
S'right'
S' wall'
tp292
a(g290
S'left'
S' wall'
tp293
aa(lp294
(S'verify'
S'front'
S' flower hallway'
tp295
a(S'turn'
S''
S''
tp296
a(S'verify'
S'front'
S' tower wall'
tp297
a(S'travel'
S''
S''
tp298
a(S'verify'
p299
S'front'
S' wall'
tp300
a(g299
S'left'
S' wall'
tp301
a(g299
S'right'
S' wall'
tp302
aa(lp303
(S'travel'
S'steps'
S' 1'
tp304
aa(lp305
(S'turn'
S'right'
S''
tp306
aa(lp307
(S'turn'
S''
S''
tp308
a(S'verify'
S'front'
S' hatrack'
tp309
aa(lp310
(S'travel'
S'steps'
S' 2'
tp311
aa(lp312
(S'verify'
S'front'
S' chair'
tp313
a(S'travel'
S''
S''
tp314
a(S'verify'
p315
S'back'
S' chair'
tp316
a(g315
S'side'
S' yellow hallway'
tp317
aa(lp318
(S'travel'
S''
S''
tp319
a(S'verify'
S'front'
S' wall'
tp320
aa(lp321
(S'travel'
S''
S''
tp322
a(S'verify'
p323
S'front'
S' wall'
tp324
a(g323
S'left'
S' wall'
tp325
a(g323
S'back'
S' lamp'
tp326
a(g323
S'right'
S' concrete hallway'
tp327
aa(lp328
(S'turn'
S''
S''
tp329
a(S'verify'
p330
S'back'
S' wall'
tp331
a(g330
S'left'
S' wall'
tp332
aa(lp333
(S'verify'
p334
S'back'
S' gravel hallway'
tp335
a(g334
S'front'
S' gravel hallway'
tp336
aa(lp337
(S'turn'
S'left'
S''
tp338
aa(lp339
(S'travel'
S''
S''
tp340
a(S'verify'
p341
S'front'
S' gravel hallway'
tp342
a(g341
S'side'
S' yellow hallway'
tp343
aa(lp344
(S'travel'
S'steps'
S' 2'
tp345
a(S'verify'
S'at'
S' easel'
tp346
aa(lp347
(S'turn'
S''
S''
tp348
a(S'turn'
S'left'
S''
tp349
aa(lp350
(S'verify'
S'front'
S' wood hallway'
tp351
a(S'travel'
S''
S''
tp352
a(S'turn'
S'left'
S''
tp353
aa(lp354
(S'travel'
S'steps'
S' 3'
tp355
aa(lp356
(S'turn'
S''
S''
tp357
a(S'verify'
S'front'
S' yellow hallway'
tp358
aa(lp359
(S'travel'
S''
S''
tp360
a(S'verify'
S'at'
S' chair'
tp361
a(S'turn'
S'right'
S''
tp362
aa(lp363
(S'verify'
p364
S'front'
S' blue hallway'
tp365
a(g364
S'front'
S' sofa'
tp366
a(S'travel'
S''
S''
tp367
a(S'verify'
p368
S'back'
S' sofa'
tp369
a(g368
S'at'
S' hatrack'
tp370
aa(lp371
(S'turn'
S'right'
S''
tp372
aa(lp373
(S'verify'
S'front'
S' chair'
tp374
a(S'travel'
S'steps'
S' 2'
tp375
a(S'verify'
S'back'
S' chair'
tp376
aa(lp377
(S'travel'
S''
S''
tp378
a(S'verify'
p379
S'at'
S' 4-intersection'
p380
tp381
a(g379
S'front'
S' brick hallway'
tp382
a(g379
S'side'
S' flower hallway'
tp383
a(g379
S'at'
S' easel'
tp384
aa(lp385
(S'turn'
S''
S''
tp386
a(S'verify'
S'front'
S' blue hallway'
tp387
a(S'travel'
S''
S''
tp388
a(S'verify'
S'front'
S' wall'
tp389
aa(lp390
(S'turn'
S'left'
S''
tp391
aa(lp392
(S'travel'
S'steps'
S' 1'
tp393
aa(lp394
(S'travel'
S'steps'
S' 3'
tp395
aa(lp396
(S'travel'
S'steps'
S' 1'
tp397
aa(lp398
(S'turn'
S''
S''
tp399
a(S'verify'
p400
S'front'
S' wood hallway'
tp401
a(g400
S'back'
S' hatrack'
tp402
aa(lp403
(S'turn'
S'left'
S''
tp404
aa(lp405
(S'turn'
S'right'
S''
tp406
aa(lp407
(S'travel'
S'steps'
S' 1'
tp408
a(S'verify'
p409
S'front'
S' wall'
tp410
a(g409
S'left'
S' wall'
tp411
aa(lp412
(S'verify'
S'front'
S' wood hallway'
p413
tp414
a(S'travel'
S''
S''
tp415
a(S'verify'
S'at'
S' chair'
p416
tp417
aa(lp418
(S'travel'
S'steps'
S' 1'
tp419
aa(lp420
(S'travel'
S''
S''
tp421
a(S'verify'
p422
S'front'
S' wall'
tp423
a(g422
S'right'
S' wall'
tp424
a(S'turn'
S'left'
S''
tp425
aa(lp426
(S'turn'
S''
S''
tp427
a(S'verify'
S'front'
S' flower hallway'
tp428
aa(lp429
(S'verify'
p430
S'front'
S' brick hallway'
tp431
a(g430
S'back'
S' lamp'
tp432
a(S'travel'
S'steps'
S' 1'
tp433
aa(lp434
(S'travel'
S''
S''
tp435
a(S'verify'
p436
S'front'
S' wall'
tp437
a(g436
S'left'
S' wall'
tp438
a(g436
S'right'
S' wall'
tp439
a(g436
S'back'
S' yellow hallway'
tp440
a(g436
S'back'
S' fish wall'
tp441
aa(lp442
(S'travel'
S'steps'
S' 4'
tp443
aa(lp444
(S'travel'
S''
S''
tp445
aa(lp446
(S'travel'
S'steps'
S' 1'
tp447
aa(lp448
(S'travel'
S''
S''
tp449
a(S'verify'
S'side'
S' blue hallway'
tp450
aa(lp451
(S'turn'
S'right'
S''
tp452
aa(lp453
(S'verify'
S'front'
S' chair'
tp454
a(S'travel'
S'steps'
S' 2'
tp455
a(S'verify'
p456
S'back'
S' chair'
tp457
a(g456
S'at'
S' barstool'
tp458
aa(lp459
(S'travel'
S'steps'
S' 1'
tp460
aa(lp461
(S'travel'
S''
S''
tp462
a(S'verify'
S'at'
S' barstool'
tp463
aa(lp464
(S'travel'
S''
S''
tp465
a(S'verify'
S'side'
S' brick hallway'
tp466
a(S'turn'
S'right'
S''
tp467
aa(lp468
(S'turn'
S''
S''
tp469
a(S'verify'
p470
S'front'
S' wood hallway'
tp471
a(g470
S'back'
S' hatrack'
tp472
aa(lp473
(S'turn'
S'left'
S''
tp474
aa(lp475
(S'turn'
S''
S''
tp476
a(S'verify'
p477
S'back'
S' wall'
tp478
a(g477
S'at'
S' 3-intersection'
tp479
aa(lp480
(S'travel'
S''
S''
tp481
a(S'verify'
S'left'
S' hallway'
tp482
a(S'turn'
S'left'
S''
tp483
aa(lp484
(S'verify'
S'front'
S' blue hallway'
tp485
aa(lp486
(S'turn'
S''
S''
tp487
a(S'verify'
p488
S'front'
S' gravel hallway'
tp489
a(g488
S'front'
S' fish wall'
tp490
a(g488
S'front'
S' easel'
tp491
aa(lp492
(S'verify'
p493
S'front'
S' flower hallway'
tp494
a(g493
S'side'
S' brick hallway'
tp495
aa(lp496
(S'travel'
S'steps'
S' 1'
tp497
a(S'verify'
S'side'
S' flower hallway'
tp498
aa(lp499
(S'travel'
S'steps'
S' 1'
tp500
aa(lp501
(S'turn'
S''
S''
tp502
a(S'verify'
p503
S'right'
S' wall'
tp504
a(g503
S'left'
S' wall'
tp505
a(g503
S'back'
S' wall'
tp506
aa(lp507
(S'turn'
S'left'
S''
tp508
a(S'verify'
S'front'
S' yellow hallway'
tp509
aa(lp510
(S'turn'
S'right'
S''
tp511
aa(lp512
(S'travel'
S''
S''
tp513
a(S'verify'
S'at'
S' easel'
tp514
a(S'turn'
S'left'
S''
tp515
aa(lp516
(S'travel'
S''
S''
tp517
a(S'verify'
S'side'
S' flower hallway'
p518
tp519
a(S'turn'
S'left'
S''
tp520
a(S'verify'
S'front'
S' flower hallway'
tp521
aa(lp522
(S'travel'
S''
S''
tp523
aa(lp524
(S'travel'
S''
S''
tp525
a(S'verify'
S'at'
S' lamp'
tp526
a(S'travel'
S'steps'
S' 1'
tp527
a(S'verify'
p528
S'side'
S' concrete hallway'
tp529
a(g528
S'at'
S' 3-intersection'
tp530
aa(lp531
(S'travel'
S'steps'
S' 1'
tp532
aa(lp533
(S'turn'
S''
S''
tp534
a(S'verify'
S'back'
S' wall'
tp535
a(S'turn'
S'right'
S''
tp536
a(S'travel'
S''
S''
tp537
a(S'verify'
S'front'
S' wall'
tp538
aa(lp539
(S'verify'
p540
S'front'
S' yellow hallway'
tp541
a(g540
S'front'
S' fish wall'
tp542
a(S'travel'
S''
S''
tp543
a(S'verify'
p544
S'front'
S' wall'
tp545
a(g544
S'left'
S' wall'
tp546
a(g544
S'right'
S' wall'
tp547
aa(lp548
(S'travel'
S''
S''
tp549
a(S'verify'
S'front'
S' wall'
tp550
a(S'turn'
S'left'
S''
tp551
a(S'verify'
S'front'
S' easel'
tp552
aa(lp553
(S'turn'
S''
S''
tp554
a(S'verify'
S'front'
S' easel'
tp555
a(S'travel'
S''
S''
tp556
a(S'verify'
S'at'
S' easel'
tp557
aa(lp558
(S'travel'
S'steps'
S' 2'
tp559
a(S'verify'
S'at'
S' easel'
tp560
aa(lp561
(S'turn'
S''
S''
tp562
a(S'verify'
S'front'
S' hatrack'
tp563
a(S'travel'
S''
S''
tp564
a(S'verify'
S'at'
S' hatrack'
tp565
aa(lp566
(S'verify'
S'front'
S' flower hallway'
tp567
a(S'travel'
S''
S''
tp568
a(S'turn'
S''
S''
tp569
a(S'verify'
S'front'
S' tower wall'
tp570
a(S'travel'
S''
S''
tp571
a(S'verify'
p572
S'front'
S' wall'
tp573
a(g572
S'left'
S' wall'
tp574
a(g572
S'right'
S' wall'
tp575
aa(lp576
(S'turn'
S'right'
S''
tp577
aa(lp578
(S'turn'
S'left'
S''
tp579
aa(lp580
(S'turn'
S'left'
S''
tp581
aa(lp582
(S'travel'
S'steps'
S' 1'
tp583
aa(lp584
(S'verify'
p585
S'front'
S' sofa'
tp586
a(g585
S'front'
S' hatrack'
tp587
aa(lp588
(S'travel'
S'steps'
S' 2'
tp589
aa(lp590
(S'turn'
S''
S''
tp591
a(S'verify'
p592
S'front'
S' butterfly wall'
tp593
a(g592
S'back'
S' tower wall'
tp594
aa(lp595
(S'turn'
S'left'
S''
tp596
aa(lp597
(S'turn'
S''
S''
tp598
a(S'verify'
S'back'
S' wall'
tp599
a(S'turn'
S'left'
S''
tp600
aa(lp601
(S'travel'
S'steps'
S' 1'
tp602
aa(lp603
(S'turn'
S''
S''
tp604
a(S'verify'
S'front'
S' yellow hallway'
tp605
a(S'travel'
S''
S''
tp606
a(S'verify'
p607
S'front'
S' wall'
tp608
a(g607
S'side'
S' gravel hallway'
tp609
aa(lp610
(S'travel'
S''
S''
tp611
a(S'verify'
S'left'
S' hallway'
tp612
a(S'turn'
S'left'
S''
tp613
aa(lp614
(S'travel'
S''
S''
tp615
a(S'verify'
S'front'
S' wall'
tp616
a(S'turn'
S'left'
S''
tp617
aa(lp618
(S'verify'
S'front'
S' gravel hallway'
p619
tp620
a(S'travel'
S''
S''
tp621
a(S'verify'
S'at'
S' barstool'
tp622
aa(lp623
(S'travel'
S''
S''
tp624
a(S'verify'
S'side'
S' yellow hallway'
tp625
aa(lp626
(S'turn'
S''
S''
tp627
a(S'verify'
p628
S'front'
S' gravel hallway'
tp629
a(g628
S'back'
S' easel'
tp630
aa(lp631
(S'travel'
S''
S''
tp632
a(S'verify'
S'right'
S' easel'
tp633
aa(lp634
(S'turn'
S'right'
S''
tp635
aa(lp636
(S'turn'
S'left'
S''
tp637
aa(lp638
(S'travel'
S''
S''
tp639
a(S'verify'
p640
S'at'
S' lamp'
tp641
a(g640
S'left'
S' wall'
tp642
a(g640
S'front'
S' wall'
tp643
a(S'turn'
S'right'
S''
tp644
aa(lp645
(S'turn'
S''
S''
tp646
a(S'travel'
S''
S''
tp647
a(S'verify'
p648
S'right'
S' wall'
tp649
a(g648
S'left'
S' wall'
tp650
a(g648
S'front'
S' wall'
tp651
aa(lp652
(S'turn'
S''
S''
tp653
a(S'verify'
p654
S'back'
S' wall'
tp655
a(g654
S'right'
S' wall'
tp656
aa(lp657
(S'travel'
S''
S''
tp658
a(S'verify'
S'side'
S' gravel hallway'
tp659
aa(lp660
(S'travel'
S''
S''
tp661
a(S'verify'
S'side'
S' wood hallway'
tp662
aa(lp663
(S'turn'
S'left'
S''
tp664
aa(lp665
(S'turn'
S'left'
S''
tp666
aa(lp667
(S'travel'
S'steps'
S' 1'
tp668
a(S'verify'
S'at'
S' barstool'
tp669
aa(lp670
(S'travel'
S'steps'
S' 3'
tp671
aa(lp672
(S'turn'
S'left'
S''
tp673
aa(lp674
(S'turn'
S'left'
S''
tp675
aa(lp676
(S'turn'
S''
S''
tp677
a(S'verify'
p678
S'front'
S' gravel hallway'
tp679
a(g678
S'front'
S' easel'
tp680
aa(lp681
(S'travel'
S'steps'
S' 1'
tp682
aa(lp683
(S'turn'
S''
S''
tp684
a(S'verify'
S'front'
S' lamp'
tp685
aa(lp686
(S'verify'
S'side'
S' flower hallway'
tp687
a(S'turn'
S'left'
S''
tp688
a(S'travel'
S''
S''
tp689
a(S'verify'
p690
S'left'
S' hallway'
tp691
a(g690
S'right'
S' wall'
tp692
aa(lp693
(S'turn'
S'left'
S''
tp694
aa(lp695
(S'travel'
S''
S''
tp696
a(S'verify'
S'front'
S' flower hallway'
tp697
aa(lp698
(S'travel'
S''
S''
tp699
a(S'verify'
S'side'
S' grass hallway'
tp700
aa(lp701
(S'travel'
S''
S''
tp702
a(S'verify'
p703
S'front'
S' brick hallway'
tp704
a(g703
S'side'
S' wood hallway'
tp705
a(S'turn'
S'left'
S''
tp706
a(S'verify'
S'front'
S' wood hallway'
tp707
aa(lp708
(S'travel'
S''
S''
tp709
a(S'verify'
S'front'
S' wall'
tp710
aa(lp711
(S'travel'
S''
S''
tp712
a(S'verify'
S'at'
S' easel'
tp713
a(S'turn'
S'right'
S''
tp714
a(S'verify'
S'front'
S' wood hallway'
tp715
a(S'travel'
S'steps'
S' 1'
tp716
aa(lp717
(S'travel'
S'steps'
S' 4'
tp718
aa(lp719
(S'turn'
S'left'
S''
tp720
aa(lp721
(S'turn'
S'left'
S''
tp722
aa(lp723
(S'turn'
S''
S''
tp724
a(S'verify'
S'front'
S' yellow hallway'
tp725
a(S'travel'
S''
S''
tp726
a(S'verify'
p727
S'right'
S' wall'
tp728
a(g727
S'side'
S' grass hallway'
tp729
a(g727
S'front'
S' wall'
tp730
aa(lp731
(S'turn'
S''
S''
tp732
a(S'verify'
p733
S'back'
S' wall'
tp734
a(g733
S'right'
S' wall'
tp735
a(g733
S'left'
S' wall'
tp736
aa(lp737
(S'turn'
S'left'
S''
tp738
a(S'travel'
S''
S''
tp739
a(S'turn'
S''
S''
tp740
a(S'travel'
S''
S''
tp741
a(S'turn'
S''
S''
tp742
a(S'travel'
S''
S''
tp743
a(S'verify'
p744
S'front'
S' wall'
tp745
a(g744
S'left'
S' wall'
tp746
a(g744
S'right'
S' wall'
tp747
aa(lp748
(S'travel'
S'steps'
S' 1'
tp749
aa(lp750
(S'turn'
S''
S''
tp751
a(S'verify'
S'back'
S' wall'
tp752
a(S'turn'
S'right'
S''
tp753
aa(lp754
(S'turn'
S''
S''
tp755
a(S'verify'
S'front'
S' concrete hallway'
tp756
aa(lp757
(S'verify'
S'front'
S' chair'
tp758
a(S'travel'
S''
S''
tp759
a(S'verify'
S'back'
S' chair'
tp760
aa(lp761
(S'turn'
S'left'
S''
tp762
a(S'verify'
S'front'
S' flower hallway'
tp763
aa(lp764
(S'travel'
S''
S''
tp765
a(S'verify'
S'side'
S' gravel hallway'
tp766
a(S'turn'
S'left'
S''
tp767
aa(lp768
(S'verify'
S'left'
S' hatrack'
tp769
aa(lp770
(S'travel'
S'steps'
S' 1'
tp771
a(S'verify'
p772
S'front'
S' flower hallway'
tp773
a(g772
S'side'
S' brick hallway'
tp774
aa(lp775
(S'turn'
S'right'
S''
tp776
aa(lp777
(g155
S''
S''
tp778
aa(lp779
(S'travel'
S'steps'
S' 2'
tp780
aa(lp781
(S'turn'
S''
S''
tp782
a(S'travel'
S''
S''
tp783
a(S'verify'
S'front'
S' wall'
tp784
aa(lp785
(S'travel'
S'steps'
S' 2'
tp786
a(S'verify'
S'side'
S' flower hallway'
tp787
aa(lp788
(S'turn'
S'left'
S''
tp789
aa(lp790
(S'turn'
S'left'
S''
tp791
aa(lp792
(S'travel'
S''
S''
tp793
a(S'verify'
S'front'
S' wall'
tp794
aa(lp795
(S'travel'
S'steps'
S' 1'
tp796
aa(lp797
(S'travel'
S''
S''
tp798
a(S'verify'
S'at'
S' hatrack'
tp799
a(S'turn'
S'left'
S''
tp800
aa(lp801
(S'travel'
S'steps'
S' 1'
tp802
aa(lp803
(S'turn'
S'left'
S''
tp804
aa(lp805
(S'turn'
S'right'
S''
tp806
aa(lp807
(S'verify'
S'front'
S' butterfly wall'
tp808
aa(lp809
(S'turn'
S''
S''
tp810
a(S'verify'
S'back'
S' lamp'
tp811
a(S'travel'
S''
S''
tp812
a(S'verify'
p813
S'side'
S' wood hallway'
tp814
a(g813
S'back'
S' brick hallway'
tp815
a(g813
S'front'
S' brick hallway'
tp816
aa(lp817
(S'travel'
S''
S''
tp818
a(S'verify'
S'at'
S' hatrack'
tp819
a(S'turn'
S'right'
S''
tp820
a(S'verify'
S'front'
S' blue hallway'
tp821
aa(lp822
(S'verify'
S'front'
S' yellow hallway'
tp823
a(S'travel'
S''
S''
tp824
a(S'verify'
S'side'
S' gravel hallway'
tp825
aa(lp826
(S'verify'
S'front'
S' easel'
tp827
aa(lp828
(S'travel'
S''
S''
tp829
a(S'verify'
S'at'
S' lamp'
tp830
a(S'turn'
S'left'
S''
tp831
a(S'travel'
S''
S''
tp832
a(S'verify'
p833
S'front'
S' wall'
tp834
a(g833
S'left'
S' wall'
tp835
a(S'turn'
S'right'
S''
tp836
aa(lp837
(S'travel'
S''
S''
tp838
a(S'verify'
p839
S'left'
S' wall'
tp840
a(g839
S'front'
S' wall'
tp841
a(S'turn'
S'right'
S''
tp842
a(S'verify'
S'front'
S' wood hallway'
tp843
aa(lp844
(S'turn'
S'right'
S''
tp845
aa(lp846
(S'turn'
S'left'
S''
tp847
aa(lp848
(S'turn'
S''
S''
tp849
a(S'verify'
S'front'
S' blue hallway'
tp850
a(S'travel'
S''
S''
tp851
a(S'verify'
S'side'
S' flower hallway'
tp852
aa(lp853
(S'travel'
S''
S''
tp854
a(S'verify'
S'left'
S' hallway'
tp855
aa(lp856
(S'travel'
S''
S''
tp857
a(S'verify'
p858
S'front'
S' hallway'
tp859
a(g858
S'back'
S' hallway'
p860
tp861
a(g858
S'at'
S' barstool'
tp862
aa(lp863
(S'turn'
S''
S''
tp864
a(S'verify'
S'right'
S' chair'
p865
tp866
aa(lp867
(S'turn'
S''
S''
tp868
a(S'verify'
S'back'
S' wall'
tp869
a(S'travel'
S''
S''
tp870
a(S'verify'
S'at'
S' hatrack'
tp871
aa(lp872
(S'verify'
S'front'
S' easel'
tp873
a(S'travel'
S'steps'
S' 2'
tp874
a(S'verify'
S'back'
S' easel'
tp875
aa(lp876
(S'turn'
S''
S''
tp877
a(S'verify'
p878
S'back'
S' wall'
tp879
a(g878
S'at'
S' 3-intersection'
tp880
aa(lp881
(S'travel'
S'steps'
S' 1'
tp882
aa(lp883
(S'verify'
S'front'
S' chair'
tp884
a(S'travel'
S'steps'
S' 2'
tp885
a(S'verify'
p886
S'back'
S' chair'
tp887
a(g886
S'at'
S' barstool'
tp888
aa(lp889
(S'verify'
S'at'
S' chair'
tp890
aa(lp891
(g155
S''
S''
tp892
aa(lp893
(S'turn'
S'left'
S''
tp894
a(S'travel'
S'steps'
S' 1'
tp895
aa(lp896
(S'travel'
S''
S''
tp897
a(S'verify'
S'side'
S' blue hallway'
tp898
aa(lp899
(S'verify'
p900
S'left'
S' butterfly wall'
tp901
a(g900
S'right'
S' tower wall'
tp902
aa(lp903
(S'turn'
S''
S''
tp904
a(S'verify'
S'back'
S' wall'
tp905
a(S'turn'
S'left'
S''
tp906
aa(lp907
(S'turn'
S''
S''
tp908
a(S'verify'
S'left'
S' wall'
tp909
aa(lp910
(S'verify'
S'front'
S' yellow hallway'
tp911
aa(lp912
(S'verify'
S'front'
S' blue hallway'
tp913
a(S'travel'
S''
S''
tp914
aa(lp915
(S'turn'
S''
S''
tp916
a(S'verify'
S'front'
S' concrete hallway'
tp917
aa(lp918
(S'turn'
S''
S''
tp919
aa(lp920
(S'travel'
S''
S''
tp921
a(S'verify'
S'front'
S' wall'
tp922
aa(lp923
(S'verify'
S'front'
S' blue hallway'
tp924
a(S'travel'
S''
S''
tp925
a(S'verify'
S'at'
S' hatrack'
tp926
aa(lp927
(g155
S''
S''
tp928
aa(lp929
(S'verify'
S'side'
S' gravel hallway'
tp930
aa(lp931
(S'verify'
S'side'
S' flower hallway'
tp932
a(S'turn'
S'right'
S''
tp933
aa(lp934
(S'travel'
S'steps'
S' 1'
tp935
a(S'verify'
S'side'
S' concrete hallway'
tp936
aa(lp937
(S'verify'
p938
S'side'
S' blue hallway'
tp939
a(g938
S'front'
S' flower hallway'
tp940
a(S'travel'
S'steps'
S' 1'
tp941
a(S'turn'
S''
S''
tp942
a(S'verify'
S'front'
S' concrete hallway'
tp943
a(S'travel'
S''
S''
tp944
a(S'verify'
S'front'
S' wall'
tp945
aa(lp946
(S'verify'
S'front'
S' hatrack'
tp947
a(S'travel'
S'steps'
S' 3'
tp948
a(S'verify'
p949
S'back'
S' hatrack'
tp950
a(g949
S'side'
S' blue hallway'
tp951
aa(lp952
(S'travel'
S''
S''
tp953
a(S'verify'
S'side'
S' flower hallway'
tp954
aa(lp955
(S'travel'
S''
S''
tp956
a(S'verify'
S'side'
S' blue hallway'
tp957
a(S'turn'
S'right'
S''
tp958
aa(lp959
(S'turn'
S''
S''
tp960
a(S'travel'
S''
S''
tp961
a(S'verify'
S'at'
S' barstool'
tp962
aa(lp963
(S'travel'
S''
S''
tp964
aa(lp965
(S'turn'
S''
S''
tp966
a(S'verify'
p967
S'front'
S' brick hallway'
tp968
a(g967
S'front'
S' chair'
tp969
aa(lp970
(S'travel'
S''
S''
tp971
a(S'turn'
S''
S''
tp972
a(S'travel'
S''
S''
tp973
a(S'turn'
S''
S''
tp974
a(S'travel'
S''
S''
tp975
a(S'turn'
S''
S''
tp976
aa(lp977
(S'travel'
S'steps'
S' 1'
tp978
a(S'verify'
S'at'
S' lamp'
tp979
aa(lp980
(S'turn'
S'left'
S''
tp981
aa(lp982
(S'turn'
S'left'
S''
tp983
aa(lp984
(S'turn'
S''
S''
tp985
a(S'verify'
p986
S'back'
S' wall'
tp987
a(g986
S'right'
S' wall'
tp988
aa(lp989
(S'turn'
S'left'
S''
tp990
a(S'verify'
S'front'
S' wood hallway'
tp991
aa(lp992
(S'travel'
S''
S''
tp993
aa(lp994
(S'turn'
S'left'
S''
tp995
aa(lp996
(S'travel'
S'steps'
S' 1'
tp997
aa(lp998
(S'travel'
S''
S''
tp999
a(S'verify'
S'front'
S' butterfly wall'
tp1000
aa(lp1001
(S'turn'
S'right'
S''
tp1002
aa(lp1003
(S'verify'
p1004
S'front'
S' butterfly wall'
tp1005
a(g1004
S'back'
S' tower wall'
tp1006
aa(lp1007
(S'travel'
S''
S''
tp1008
a(S'verify'
S'side'
S' gravel hallway'
tp1009
aa(lp1010
(S'travel'
S'steps'
S' 1'
tp1011
aa(lp1012
(S'turn'
S''
S''
tp1013
a(S'turn'
S'left'
S''
tp1014
aa(lp1015
(S'turn'
S'right'
S''
tp1016
aa(lp1017
(S'travel'
S''
S''
tp1018
a(S'verify'
p1019
S'front'
S' fish wall'
tp1020
a(g1019
S'front'
S' gravel hallway'
tp1021
a(g1019
S'side'
S' yellow hallway'
tp1022
aa(lp1023
(S'turn'
S'left'
S''
tp1024
a(S'turn'
S'left'
S''
tp1025
aa(lp1026
(g155
S''
S''
tp1027
aa(lp1028
(S'travel'
S''
S''
tp1029
a(S'turn'
S'right'
S''
tp1030
aa(lp1031
(S'travel'
S''
S''
tp1032
a(S'verify'
p1033
S'front'
S' wall'
tp1034
a(g1033
S'left'
S' wall'
tp1035
a(g1033
S'right'
S' wall'
tp1036
aa(lp1037
(S'verify'
S'at'
S' chair'
tp1038
a(S'turn'
S'left'
S''
tp1039
aa(lp1040
(S'turn'
S'right'
S''
tp1041
a(S'travel'
S''
S''
tp1042
a(S'turn'
S''
S''
tp1043
a(S'travel'
S''
S''
tp1044
a(S'turn'
S''
S''
tp1045
a(S'verify'
S'front'
S' wood hallway'
tp1046
aa(lp1047
(S'turn'
S''
S''
tp1048
a(S'verify'
p1049
S'front'
S' brick hallway'
tp1050
a(g1049
S'front'
S' lamp'
tp1051
aa(lp1052
(S'travel'
S''
S''
tp1053
a(S'verify'
S'right'
S' hallway'
tp1054
a(S'turn'
S'right'
S''
tp1055
a(S'travel'
S''
S''
tp1056
a(S'turn'
S''
S''
tp1057
a(S'travel'
S''
S''
tp1058
a(S'turn'
S''
S''
tp1059
a(S'travel'
S''
S''
tp1060
a(S'verify'
p1061
S'front'
S' wall'
tp1062
a(g1061
S'right'
S' wall'
tp1063
a(g1061
S'left'
S' wall'
tp1064
aa(lp1065
(S'travel'
S'steps'
S' 1'
tp1066
a(S'verify'
S'at'
S' sofa'
tp1067
aa(lp1068
(S'travel'
S'steps'
S' 2'
tp1069
aa(lp1070
(S'travel'
S'steps'
S' 2'
tp1071
aa(lp1072
(S'turn'
S'left'
S''
tp1073
aa(lp1074
(S'travel'
S'steps'
S' 1'
tp1075
a(S'verify'
p1076
S'front'
S' concrete hallway'
tp1077
a(g1076
S'side'
S' blue hallway'
tp1078
aa(lp1079
(S'turn'
S'left'
S''
tp1080
aa(lp1081
(S'turn'
S''
S''
tp1082
a(S'verify'
p1083
S'back'
S' wall'
tp1084
a(g1083
S'at'
S' 3-intersection'
tp1085
aa(lp1086
(S'travel'
S'steps'
S' 1'
tp1087
a(S'verify'
S'side'
S' blue hallway'
tp1088
aa(lp1089
(S'travel'
S'steps'
S' 1'
tp1090
a(S'verify'
S'side'
S' concrete hallway'
tp1091
aa(lp1092
(S'turn'
S'left'
S''
tp1093
aa(lp1094
(S'turn'
S''
S''
tp1095
a(S'verify'
S'front'
S' lamp'
tp1096
aa(lp1097
(S'travel'
S''
S''
tp1098
a(S'verify'
S'front'
S' fish wall'
tp1099
aa(lp1100
(g155
S''
S''
tp1101
aa(lp1102
(S'turn'
S'left'
S''
tp1103
aa(lp1104
(S'turn'
S''
S''
tp1105
a(S'verify'
S'front'
S' grass hallway'
tp1106
a(S'travel'
S''
S''
tp1107
a(S'verify'
S'side'
S' brick hallway'
tp1108
aa(lp1109
(S'turn'
S''
S''
tp1110
a(S'verify'
S'front'
S' chair'
tp1111
a(S'travel'
S'steps'
S' 1'
tp1112
aa(lp1113
(S'travel'
S'steps'
S' 3'
tp1114
aa(lp1115
(S'travel'
S'steps'
S' 4'
tp1116
a(S'verify'
S'side'
S' flower hallway'
tp1117
aa(lp1118
(S'verify'
S'side'
S' grass hallway'
tp1119
a(S'turn'
S'right'
S''
tp1120
aa(lp1121
(S'travel'
S'steps'
S' 1'
tp1122
aa(lp1123
(S'travel'
S'steps'
S' 1'
tp1124
aa(lp1125
(S'turn'
S''
S''
tp1126
a(S'verify'
S'front'
S' chair'
tp1127
a(S'travel'
S''
S''
tp1128
a(S'verify'
p1129
S'back'
S' chair'
tp1130
a(g1129
S'side'
S' yellow hallway'
tp1131
aa(lp1132
(S'travel'
S''
S''
tp1133
a(S'verify'
S'front'
S' fish wall'
tp1134
aa(lp1135
(S'turn'
S'left'
S''
tp1136
aa(lp1137
(S'travel'
S'steps'
S' 1'
tp1138
aa(lp1139
(S'verify'
S'front'
S' blue hallway'
tp1140
aa(lp1141
(S'travel'
S''
S''
tp1142
a(S'verify'
p1143
S'front'
S' wall'
tp1144
a(g1143
S'left'
S' wall'
tp1145
aa(lp1146
(S'verify'
p1147
S'left'
S' wall'
tp1148
a(g1147
S'right'
S' wall'
tp1149
a(g1147
S'front'
S' wall'
tp1150
a(g1147
S'back'
S' fish wall'
tp1151
a(g1147
S'back'
S' yellow hallway'
tp1152
aa(lp1153
(S'verify'
S'right'
S' easel'
tp1154
aa(lp1155
(S'travel'
S''
S''
tp1156
aa(lp1157
(S'travel'
S'steps'
S' 1'
tp1158
a(S'turn'
S'left'
S''
tp1159
a(S'verify'
S'front'
S' blue hallway'
tp1160
aa(lp1161
(S'travel'
S'steps'
S' 1'
tp1162
aa(lp1163
(S'turn'
S''
S''
tp1164
a(S'verify'
p1165
S'front'
S' flower hallway'
tp1166
a(g1165
S'back'
S' sofa'
tp1167
aa(lp1168
(S'turn'
S'left'
S''
tp1169
aa(lp1170
(S'verify'
p1171
S'front'
S' chair'
tp1172
a(g1171
S'front'
S' wood hallway'
tp1173
aa(lp1174
(g155
S''
S''
tp1175
aa(lp1176
(S'verify'
p1177
S'front'
S' blue hallway'
tp1178
a(g1177
S'front'
S' barstool'
tp1179
a(g1177
S'front'
S' sofa'
tp1180
a(S'travel'
S''
S''
tp1181
a(S'verify'
p1182
S'back'
S' barstool'
tp1183
a(g1182
S'back'
S' sofa'
tp1184
aa(lp1185
(S'travel'
S'steps'
S' 1'
tp1186
aa(lp1187
(S'turn'
S'right'
S''
tp1188
aa(lp1189
(S'verify'
S'front'
S' wall'
tp1190
a(S'turn'
S'left'
S''
tp1191
aa(lp1192
(S'turn'
S''
S''
tp1193
a(S'verify'
S'front'
S' chair'
tp1194
a(S'travel'
S''
S''
tp1195
a(S'verify'
S'at'
S' chair'
tp1196
aa(lp1197
(S'turn'
S''
S''
tp1198
a(S'verify'
S'back'
S' wall'
tp1199
a(S'turn'
S'left'
S''
tp1200
aa(lp1201
(S'verify'
S'front'
S' chair'
tp1202
a(S'travel'
S''
S''
tp1203
a(S'verify'
S'at'
S' chair'
tp1204
a(S'travel'
S'steps'
S' 1'
tp1205
aa(lp1206
(S'verify'
S'left'
S' concrete hallway'
tp1207
aa(lp1208
(S'turn'
S'right'
S''
tp1209
aa(lp1210
(S'travel'
S''
S''
tp1211
a(S'verify'
S'at'
S' easel'
tp1212
a(S'turn'
S'left'
S''
tp1213
a(S'travel'
S''
S''
tp1214
a(S'verify'
p1215
S'front'
S' wall'
tp1216
a(g1215
S'left'
S' wall'
tp1217
a(S'turn'
S'right'
S''
tp1218
a(S'verify'
S'front'
S' blue hallway'
tp1219
aa(lp1220
(S'travel'
S'steps'
S' 2'
tp1221
a(S'verify'
S'front'
S' wall'
tp1222
aa(lp1223
(S'turn'
S''
S''
tp1224
a(S'verify'
S'front'
S' grass hallway'
tp1225
aa(lp1226
(S'turn'
S'left'
S''
tp1227
a(S'verify'
S'front'
S' wood hallway'
tp1228
aa(lp1229
(S'travel'
S''
S''
tp1230
a(S'verify'
S'at'
S' hatrack'
tp1231
a(S'turn'
S'left'
S''
tp1232
aa(lp1233
(S'turn'
S'right'
S''
tp1234
a(S'travel'
S'steps'
S' 1'
tp1235
aa(lp1236
(S'travel'
S'steps'
S' 1'
tp1237
a(S'verify'
S'side'
S' flower hallway'
tp1238
aa(lp1239
(S'travel'
S''
S''
tp1240
a(S'verify'
S'left'
S' hallway'
tp1241
a(S'turn'
S'left'
S''
tp1242
aa(lp1243
(S'turn'
S'left'
S''
tp1244
aa(lp1245
(S'travel'
S'steps'
S' 6'
tp1246
aa(lp1247
(S'turn'
S'right'
S''
tp1248
aa(lp1249
(S'verify'
S'left'
S' yellow hallway'
tp1250
aa(lp1251
(S'travel'
S''
S''
tp1252
a(S'verify'
S'front'
S' wall'
tp1253
aa(lp1254
(S'travel'
S''
S''
tp1255
aa(lp1256
(S'verify'
S'back'
S' chair'
tp1257
aa(lp1258
(S'turn'
S''
S''
tp1259
a(S'verify'
S'front'
S' chair'
tp1260
aa(lp1261
(S'travel'
S'steps'
S' 1'
tp1262
a(S'verify'
p1263
S'front'
S' wall'
tp1264
a(g1263
S'left'
S' wall'
tp1265
aa(lp1266
(S'turn'
S''
S''
tp1267
a(S'verify'
S'back'
S' easel'
tp1268
a(S'turn'
S'right'
S''
tp1269
aa(lp1270
(S'turn'
S'left'
S''
tp1271
aa(lp1272
(S'turn'
S'right'
S''
tp1273
aa(lp1274
(S'turn'
S'left'
S''
tp1275
aa(lp1276
(S'travel'
S'steps'
S' 1'
tp1277
a(S'verify'
S'side'
S' blue hallway'
tp1278
aa(lp1279
(S'travel'
S''
S''
tp1280
a(S'verify'
S'at'
S' lamp'
tp1281
a(S'turn'
S'right'
S''
tp1282
a(S'travel'
S''
S''
tp1283
a(S'verify'
p1284
S'front'
S' wall'
tp1285
a(g1284
S'right'
S' wall'
tp1286
aa(lp1287
(S'verify'
S'front'
S' blue hallway'
tp1288
a(S'travel'
S''
S''
tp1289
a(S'verify'
S'front'
S' wall'
tp1290
aa(lp1291
(S'travel'
S'steps'
S' 1'
tp1292
aa(lp1293
(S'turn'
S'left'
S''
tp1294
aa(lp1295
(S'turn'
S''
S''
tp1296
a(S'verify'
S'left'
S' wall'
tp1297
aa(lp1298
(S'travel'
S''
S''
tp1299
a(S'verify'
S'at'
S' hatrack'
tp1300
a(S'turn'
S'right'
S''
tp1301
aa(lp1302
(S'verify'
S'at'
S' chair'
tp1303
a(S'turn'
S'left'
S''
tp1304
a(S'verify'
S'front'
S' blue hallway'
tp1305
aa(lp1306
(S'turn'
S'left'
S''
tp1307
aa(lp1308
(S'travel'
S''
S''
tp1309
aa(lp1310
(g155
S''
S''
tp1311
aa(lp1312
(S'turn'
S'left'
S''
tp1313
aa(lp1314
(S'turn'
S''
S''
tp1315
a(S'verify'
S'front'
S' flower hallway'
tp1316
aa(lp1317
(S'turn'
S'left'
S''
tp1318
aa(lp1319
(S'turn'
S'right'
S''
tp1320
aa(lp1321
(S'turn'
S'right'
S''
tp1322
aa(lp1323
(S'verify'
S'front'
S' yellow hallway'
tp1324
aa(lp1325
(S'verify'
S'front'
S' flower hallway'
tp1326
a(S'travel'
S''
S''
tp1327
a(S'verify'
S'side'
S' blue hallway'
tp1328
aa(lp1329
(S'travel'
S''
S''
tp1330
a(S'verify'
S'side'
S' flower hallway'
tp1331
a(S'travel'
S''
S''
tp1332
aa(lp1333
(S'turn'
S'right'
S''
tp1334
aa(lp1335
(S'turn'
S'right'
S''
tp1336
aa(lp1337
(S'turn'
S''
S''
tp1338
a(S'verify'
S'front'
S' yellow hallway'
tp1339
aa(lp1340
(S'turn'
S'right'
S''
tp1341
aa(lp1342
(S'turn'
S''
S''
tp1343
a(S'verify'
p1344
S'back'
S' wall'
tp1345
a(g1344
S'left'
S' wall'
tp1346
a(g1344
S'right'
S' wall'
tp1347
aa(lp1348
(S'travel'
S''
S''
tp1349
a(S'verify'
S'front'
S' wall'
tp1350
aa(lp1351
(S'turn'
S''
S''
tp1352
a(S'verify'
S'front'
S' flower hallway'
tp1353
aa(lp1354
(S'turn'
S'left'
S''
tp1355
aa(lp1356
(S'turn'
S''
S''
tp1357
a(S'verify'
p1358
S'front'
S' brick hallway'
tp1359
a(g1358
S'back'
S' lamp'
tp1360
a(S'travel'
S''
S''
tp1361
a(S'verify'
S'side'
S' grass hallway'
tp1362
aa(lp1363
(S'turn'
S'right'
S''
tp1364
aa(lp1365
(S'travel'
S'steps'
S' 1'
tp1366
a(S'verify'
S'side'
S' wood hallway'
tp1367
aa(lp1368
(S'travel'
S'steps'
S' 1'
tp1369
a(S'verify'
p1370
S'front'
S' wall'
tp1371
a(g1370
S'left'
S' wall'
tp1372
a(g1370
S'right'
S' wall'
tp1373
aa(lp1374
(S'travel'
S'steps'
S' 1'
tp1375
a(S'turn'
S'right'
S''
tp1376
a(S'travel'
S''
S''
tp1377
a(S'verify'
S'front'
S' wall'
tp1378
aa(lp1379
(S'travel'
S'steps'
S' 2'
tp1380
a(S'verify'
S'right'
S' gravel hallway'
tp1381
aa(lp1382
(S'travel'
S''
S''
tp1383
a(S'verify'
p1384
S'front'
S' brick hallway'
tp1385
a(g1384
S'back'
S' brick hallway'
tp1386
aa(lp1387
(S'verify'
S'at'
S' chair'
tp1388
aa(lp1389
(S'turn'
S'left'
S''
tp1390
a(S'verify'
S'front'
S' brick hallway'
tp1391
aa(lp1392
(S'travel'
S''
S''
tp1393
a(S'verify'
S'right'
S' hallway'
tp1394
aa(lp1395
(S'turn'
S'right'
S''
tp1396
aa(lp1397
(S'travel'
S'steps'
S' 2'
tp1398
a(S'verify'
S'side'
S' yellow hallway'
tp1399
aa(lp1400
(S'verify'
p1401
S'front'
S' wood hallway'
tp1402
a(g1401
S'side'
S' butterfly wall'
tp1403
aa(lp1404
(S'turn'
S'left'
S''
tp1405
aa(lp1406
(S'turn'
S''
S''
tp1407
a(S'verify'
S'front'
S' sofa'
tp1408
a(S'travel'
S''
S''
tp1409
a(S'verify'
S'at'
S' sofa'
tp1410
aa(lp1411
(S'travel'
S'steps'
S' 2'
tp1412
a(S'verify'
S'side'
S' blue hallway'
tp1413
aa(lp1414
(g155
S''
S''
tp1415
aa(lp1416
(S'turn'
S'left'
S''
tp1417
a(S'verify'
S'front'
S' brick hallway'
tp1418
a(S'travel'
S'steps'
S' 1'
tp1419
aa(lp1420
(S'turn'
S''
S''
tp1421
aa(lp1422
(S'travel'
S''
S''
tp1423
a(S'verify'
p1424
S'front'
S' wall'
tp1425
a(g1424
S'right'
S' wall'
tp1426
a(g1424
S'back'
S' yellow hallway'
tp1427
a(g1424
S'left'
S' grass hallway'
tp1428
aa(lp1429
(S'travel'
S'steps'
S' 1'
tp1430
aa(lp1431
(S'turn'
S''
S''
tp1432
a(S'verify'
S'front'
S' easel'
tp1433
a(S'travel'
S'steps'
S' 1'
tp1434
aa(lp1435
(S'turn'
S'left'
S''
tp1436
aa(lp1437
(S'travel'
S'steps'
S' 3'
tp1438
aa(lp1439
(S'turn'
S'right'
S''
tp1440
aa(lp1441
(S'travel'
S'steps'
S' 1'
tp1442
aa(lp1443
(S'travel'
S'steps'
S' 1'
tp1444
aa(lp1445
(S'travel'
S''
S''
tp1446
a(S'verify'
S'side'
S' brick hallway'
tp1447
a(S'turn'
S'right'
S''
tp1448
aa(lp1449
(S'travel'
S''
S''
tp1450
a(S'verify'
S'at'
S' sofa'
tp1451
aa(lp1452
(S'travel'
S''
S''
tp1453
a(S'verify'
p1454
S'front'
S' wall'
tp1455
a(g1454
S'left'
S' wall'
tp1456
aa(lp1457
(S'verify'
S'at'
S' easel'
tp1458
aa(lp1459
(S'verify'
p1460
S'front'
S' barstool'
tp1461
a(g1460
S'front'
S' chair'
tp1462
a(S'travel'
S''
S''
tp1463
a(S'verify'
p1464
S'side'
S' flower hallway'
tp1465
a(g1464
S'back'
S' chair'
tp1466
a(g1464
S'back'
S' barstool'
tp1467
aa(lp1468
(S'travel'
S'steps'
S' 2'
tp1469
aa(lp1470
(S'travel'
S''
S''
tp1471
a(S'verify'
p1472
S'front'
S' wall'
tp1473
a(g1472
S'right'
S' wall'
tp1474
a(S'turn'
S'left'
S''
tp1475
aa(lp1476
(S'travel'
S'steps'
S' 1'
tp1477
aa(lp1478
(S'turn'
S'left'
S''
tp1479
aa(lp1480
(S'turn'
S'left'
S''
tp1481
aa(lp1482
(S'turn'
S'left'
S''
tp1483
a(S'verify'
S'front'
S' wood hallway'
tp1484
aa(lp1485
(S'travel'
S''
S''
tp1486
a(S'verify'
p1487
S'front'
S' tower wall'
tp1488
a(g1487
S'back'
S' butterfly wall'
tp1489
aa(lp1490
(S'verify'
S'front'
S' blue hallway'
tp1491
a(S'travel'
S'steps'
S' 2'
tp1492
a(S'verify'
S'side'
S' flower hallway'
tp1493
aa(lp1494
(S'verify'
S'front'
S' chair'
tp1495
a(S'travel'
S'steps'
S' 2'
tp1496
a(S'verify'
p1497
S'back'
S' chair'
tp1498
a(g1497
S'side'
S' flower hallway'
tp1499
aa(lp1500
(S'turn'
S'left'
S''
tp1501
aa(lp1502
(S'turn'
S''
S''
tp1503
a(S'verify'
S'front'
S' hatrack'
tp1504
aa(lp1505
(S'travel'
S''
S''
tp1506
a(S'verify'
p1507
S'front'
S' wall'
tp1508
a(g1507
S'right'
S' wall'
tp1509
a(g1507
S'back'
S' concrete hallway'
tp1510
a(g1507
S'left'
S' concrete hallway'
tp1511
a(g1507
S'back'
S' butterfly wall'
tp1512
a(g1507
S'left'
S' butterfly wall'
tp1513
aa(lp1514
(S'travel'
S'steps'
S' 1'
tp1515
aa(lp1516
(S'turn'
S''
S''
tp1517
a(S'verify'
S'back'
S' wall'
tp1518
a(S'travel'
S''
S''
tp1519
a(S'verify'
S'at'
S' chair'
tp1520
a(S'turn'
S'left'
S''
tp1521
aa(lp1522
(S'travel'
S'steps'
S' 1'
tp1523
aa(lp1524
(S'travel'
S''
S''
tp1525
a(S'verify'
S'front'
S' wall'
tp1526
a(S'turn'
S'right'
S''
tp1527
aa(lp1528
(S'verify'
p1529
S'front'
S' wood hallway'
tp1530
a(g1529
S'front'
S' butterfly wall'
tp1531
aa(lp1532
(S'travel'
S''
S''
tp1533
a(S'verify'
p1534
S'front'
S' flower hallway'
tp1535
a(g1534
S'back'
S' flower hallway'
tp1536
aa(lp1537
(S'travel'
S''
S''
tp1538
a(S'verify'
S'side'
S' flower hallway'
tp1539
aa(lp1540
(S'travel'
S'steps'
S' 1'
tp1541
a(S'verify'
S'side'
S' blue hallway'
tp1542
aa(lp1543
(S'turn'
S'right'
S''
tp1544
aa(lp1545
(S'verify'
S'front'
S' easel'
tp1546
aa(lp1547
(S'travel'
S'steps'
S' 1'
tp1548
aa(lp1549
(S'verify'
S'right'
S' concrete hallway'
tp1550
aa(lp1551
(S'turn'
S'right'
S''
tp1552
aa(lp1553
(S'travel'
S''
S''
tp1554
a(S'verify'
p1555
S'right'
S' brick hallway'
tp1556
a(g1555
S'left'
S' brick hallway'
tp1557
aa(lp1558
(S'turn'
S''
S''
tp1559
a(S'verify'
p1560
S'back'
S' wall'
tp1561
a(g1560
S'at'
S' 3-intersection'
tp1562
aa(lp1563
(S'turn'
S'left'
S''
tp1564
aa(lp1565
(S'travel'
S''
S''
tp1566
a(S'verify'
p1567
S'at'
S' chair'
tp1568
a(g1567
S'at'
S' hatrack'
tp1569
a(g1567
S'front'
S' concrete hallway'
tp1570
a(g1567
S'back'
S' concrete hallway'
tp1571
aa(lp1572
(S'turn'
S''
S''
tp1573
a(S'verify'
S'front'
S' blue hallway'
tp1574
a(S'travel'
S''
S''
tp1575
a(S'verify'
S'side'
S' flower hallway'
tp1576
aa(lp1577
(S'travel'
S''
S''
tp1578
a(S'verify'
S'front'
S' wall'
tp1579
aa(lp1580
(S'verify'
S'front'
S' blue hallway'
tp1581
a(S'travel'
S'steps'
S' 5'
tp1582
a(S'verify'
S'side'
S' flower hallway'
tp1583
aa(lp1584
(S'verify'
S'front'
S' gravel hallway'
tp1585
a(S'travel'
S''
S''
tp1586
a(S'verify'
S'side'
S' yellow hallway'
tp1587
aa(lp1588
(S'verify'
S'front'
S' lamp'
tp1589
a(S'travel'
S''
S''
tp1590
a(S'verify'
S'at'
S' hatrack'
tp1591
a(S'travel'
S'steps'
S' 1'
tp1592
a(S'verify'
S'back'
S' lamp'
tp1593
aa(lp1594
(S'travel'
S''
S''
tp1595
a(S'verify'
S'at'
S' easel'
tp1596
aa(lp1597
(S'turn'
S''
S''
tp1598
a(S'verify'
S'front'
S' chair'
tp1599
aa(lp1600
(S'travel'
S'steps'
S' 1'
tp1601
aa(lp1602
(S'turn'
S'right'
S''
tp1603
a(S'verify'
S'front'
S' grass hallway'
tp1604
aa(lp1605
(S'travel'
S''
S''
tp1606
a(S'verify'
p1607
S'front'
S' tower wall'
tp1608
a(g1607
S'right'
S' butterfly wall'
p1609
tp1610
aa(lp1611
(S'travel'
S'steps'
S' 1'
tp1612
a(S'turn'
S'right'
S''
tp1613
a(S'verify'
S'front'
S' concrete hallway'
tp1614
a(S'travel'
S''
S''
tp1615
a(S'verify'
S'front'
S' wall'
tp1616
aa(lp1617
(S'turn'
S''
S''
tp1618
a(S'verify'
p1619
S'back'
S' wall'
tp1620
a(g1619
S'right'
S' wall'
tp1621
a(g1619
S'left'
S' wall'
tp1622
aa(lp1623
(S'verify'
p1624
S'front'
S' sofa'
tp1625
a(g1624
S'front'
S' hatrack'
tp1626
a(g1624
S'front'
S' blue hallway'
tp1627
aa(lp1628
(S'verify'
S'front'
S' sofa'
tp1629
aa(lp1630
(S'travel'
S'steps'
S' 1'
tp1631
a(S'turn'
S'left'
S''
tp1632
aa(lp1633
(S'turn'
S''
S''
tp1634
a(S'verify'
p1635
S'back'
S' easel'
tp1636
a(g1635
S'right'
S' sofa'
tp1637
aa(lp1638
(S'travel'
S'steps'
S' 2'
tp1639
a(S'verify'
S'side'
S' yellow hallway'
tp1640
aa(lp1641
(S'verify'
S'left'
S' yellow hallway'
tp1642
aa(lp1643
(S'turn'
S'right'
S''
tp1644
aa(lp1645
(S'travel'
S'steps'
S' 1'
tp1646
aa(lp1647
(S'travel'
S''
S''
tp1648
a(S'verify'
S'front'
S' wall'
tp1649
a(S'turn'
S'right'
S''
tp1650
aa(lp1651
(S'verify'
S'at'
S' hatrack'
tp1652
a(S'turn'
S'left'
S''
tp1653
a(S'verify'
S'front'
S' yellow hallway'
tp1654
a(S'travel'
S''
S''
tp1655
a(S'verify'
S'front'
S' wall'
tp1656
aa(lp1657
(S'travel'
S'steps'
S' 1'
tp1658
aa(lp1659
(S'verify'
S'front'
S' flower hallway'
tp1660
a(S'travel'
S''
S''
tp1661
a(S'turn'
S''
S''
tp1662
a(S'travel'
S''
S''
tp1663
a(S'verify'
p1664
S'front'
S' wall'
tp1665
a(g1664
S'left'
S' wall'
tp1666
a(g1664
S'right'
S' wall'
tp1667
aa(lp1668
(S'verify'
S'back'
S' chair'
tp1669
aa(lp1670
(S'verify'
S'front'
S' flower hallway'
tp1671
a(S'travel'
S'steps'
S' 2'
tp1672
a(S'verify'
S'side'
S' brick hallway'
tp1673
aa(lp1674
(S'turn'
S''
S''
tp1675
a(S'verify'
S'back'
S' wall'
tp1676
a(S'turn'
S'left'
S''
tp1677
aa(lp1678
(S'travel'
S'steps'
S' 1'
tp1679
aa(lp1680
(S'turn'
S''
S''
tp1681
a(S'verify'
S'front'
S' yellow hallway'
tp1682
aa(lp1683
(S'verify'
S'front'
S' brick hallway'
tp1684
a(S'travel'
S''
S''
tp1685
aa(lp1686
(S'travel'
S'steps'
S' 1'
tp1687
aa(lp1688
(S'verify'
S'front'
S' blue hallway'
tp1689
aa(lp1690
(S'turn'
S''
S''
tp1691
a(S'verify'
S'front'
S' flower hallway'
tp1692
aa(lp1693
(S'travel'
S''
S''
tp1694
a(S'verify'
S'at'
S' hatrack'
tp1695
a(S'turn'
S'right'
S''
tp1696
a(S'verify'
S'front'
S' blue hallway'
tp1697
aa(lp1698
(S'turn'
S''
S''
tp1699
a(S'verify'
S'back'
S' wall'
tp1700
aa(lp1701
(S'turn'
S'left'
S''
tp1702
aa(lp1703
(S'turn'
S''
S''
tp1704
a(S'verify'
S'front'
S' yellow hallway'
tp1705
aa(lp1706
(S'verify'
S'front'
S' easel'
tp1707
aa(lp1708
(S'verify'
S'side'
S' gravel hallway'
tp1709
aa(lp1710
(S'travel'
S''
S''
tp1711
a(S'verify'
S'at'
S' chair'
tp1712
a(S'turn'
S'left'
S''
tp1713
a(S'verify'
S'front'
S' chair'
tp1714
aa(lp1715
(S'verify'
p1716
S'front'
S' lamp'
tp1717
a(g1716
S'front'
S' hatrack'
tp1718
a(S'travel'
S''
S''
tp1719
a(S'verify'
p1720
S'back'
S' lamp'
tp1721
a(g1720
S'back'
S' hatrack'
tp1722
a(g1720
S'side'
S' gravel hallway'
tp1723
aa(lp1724
(S'travel'
S''
S''
tp1725
a(S'turn'
S''
S''
tp1726
a(S'travel'
S''
S''
tp1727
a(S'turn'
S''
S''
tp1728
aa(lp1729
(S'verify'
p1730
S'front'
S' wall'
tp1731
a(g1730
S'right'
S' wall'
tp1732
a(S'turn'
S'left'
S''
tp1733
a(S'verify'
S'front'
S' brick hallway'
tp1734
aa(lp1735
(S'turn'
S'left'
S''
tp1736
aa(lp1737
(S'travel'
S'steps'
S' 1'
tp1738
aa(lp1739
(S'turn'
S'left'
S''
tp1740
a(S'travel'
S''
S''
tp1741
a(S'verify'
S'side'
S' blue hallway'
tp1742
a(S'turn'
S''
S''
tp1743
a(S'verify'
S'front'
S' blue hallway'
tp1744
aa(lp1745
(S'turn'
S'right'
S''
tp1746
aa(lp1747
(S'verify'
S'front'
S' flower hallway'
tp1748
a(S'travel'
S''
S''
tp1749
a(S'verify'
S'at'
S' hatrack'
p1750
tp1751
aa(lp1752
(S'travel'
S'steps'
S' 1'
tp1753
aa(lp1754
(S'turn'
S'right'
S''
tp1755
aa(lp1756
(S'verify'
p1757
S'front'
S' brick hallway'
tp1758
a(g1757
S'front'
S' lamp'
tp1759
a(S'travel'
S''
S''
tp1760
a(S'verify'
p1761
S'back'
S' lamp'
tp1762
a(g1761
S'at'
S' hatrack'
tp1763
aa(lp1764
(S'turn'
S'left'
S''
tp1765
a(S'travel'
S'steps'
S' 1'
tp1766
a(S'verify'
S'front'
S' wall'
tp1767
aa(lp1768
(S'travel'
S'steps'
S' 1'
tp1769
aa(lp1770
(S'turn'
S'right'
S''
tp1771
a(S'verify'
S'front'
S' wood hallway'
tp1772
aa(lp1773
(S'turn'
S'right'
S''
tp1774
aa(lp1775
(S'turn'
S'right'
S''
tp1776
a(S'travel'
S'steps'
S' 2'
tp1777
aa(lp1778
(S'verify'
S'at'
S' 3-intersection'
tp1779
aa(lp1780
(S'verify'
p1781
S'back'
S' lamp'
tp1782
a(g1781
S'left'
S' hatrack'
tp1783
aa(lp1784
(S'turn'
S''
S''
tp1785
a(S'verify'
S'left'
S' wall'
tp1786
aa(lp1787
(S'verify'
p1788
S'side'
S' gravel hallway'
tp1789
a(g1788
S'right'
S' easel'
p1790
tp1791
aa(lp1792
(S'turn'
S''
S''
tp1793
a(S'verify'
p1794
S'back'
S' wall'
tp1795
a(g1794
S'left'
S' wall'
tp1796
a(g1794
S'right'
S' wall'
tp1797
aa(lp1798
(S'verify'
p1799
S'front'
S' brick hallway'
tp1800
a(g1799
S'front'
S' lamp'
tp1801
a(S'travel'
S''
S''
tp1802
a(S'verify'
p1803
S'back'
S' lamp'
tp1804
a(g1803
S'at'
S' hatrack'
tp1805
aa(lp1806
(S'turn'
S''
S''
tp1807
a(S'verify'
S'front'
S' lamp'
tp1808
aa(lp1809
(S'verify'
S'front'
S' brick hallway'
tp1810
a(S'travel'
S'steps'
S' 5'
tp1811
a(S'verify'
S'side'
S' gravel hallway'
tp1812
aa(lp1813
(S'turn'
S'right'
S''
tp1814
a(S'verify'
S'front'
S' chair'
tp1815
a(S'travel'
S''
S''
tp1816
a(S'verify'
p1817
S'back'
S' chair'
tp1818
a(g1817
S'at'
S' barstool'
tp1819
aa(lp1820
(S'travel'
S'steps'
S' 1'
tp1821
aa(lp1822
(S'travel'
S''
S''
tp1823
a(S'verify'
S'at'
S' lamp'
tp1824
a(S'travel'
S'steps'
S' 2'
tp1825
a(S'verify'
S'side'
S' concrete hallway'
tp1826
a(S'turn'
S'right'
S''
tp1827
aa(lp1828
(S'travel'
S''
S''
tp1829
aa(lp1830
(S'turn'
S''
S''
tp1831
a(S'verify'
S'front'
S' easel'
tp1832
aa(lp1833
(S'turn'
S'right'
S''
tp1834
a(S'verify'
p1835
S'front'
S' brick hallway'
tp1836
a(g1835
S'front'
S' lamp'
tp1837
aa(lp1838
(S'travel'
S''
S''
tp1839
a(S'verify'
p1840
S'right'
S' fish wall'
tp1841
a(g1840
S'front'
S' tower wall'
tp1842
aa(lp1843
(S'verify'
S'front'
S' easel'
tp1844
aa(lp1845
(S'turn'
S''
S''
tp1846
a(S'verify'
p1847
S'front'
S' gravel hallway'
tp1848
a(g1847
S'front'
S' easel'
tp1849
aa(lp1850
(S'turn'
S'left'
S''
tp1851
a(S'verify'
S'front'
S' brick hallway'
tp1852
aa(lp1853
(S'turn'
S''
S''
tp1854
a(S'verify'
p1855
S'back'
S' wall'
tp1856
a(g1855
S'at'
S' 3-intersection'
tp1857
aa(lp1858
(S'turn'
S'right'
S''
tp1859
a(S'travel'
S'steps'
S' 1'
tp1860
aa(lp1861
(S'turn'
S'left'
S''
tp1862
a(S'verify'
S'front'
S' yellow hallway'
tp1863
a(S'travel'
S'steps'
S' 2'
tp1864
a(S'verify'
S'front'
S' wall'
tp1865
aa(lp1866
(S'turn'
S'left'
S''
tp1867
a(S'verify'
S'front'
S' yellow hallway'
tp1868
aa(lp1869
(S'travel'
S'steps'
S' 1'
tp1870
aa(lp1871
(S'travel'
S''
S''
tp1872
a(S'verify'
S'at'
S' chair'
tp1873
a(S'travel'
S'steps'
S' 1'
tp1874
aa(lp1875
(S'turn'
S'right'
S''
tp1876
aa(lp1877
(S'travel'
S'steps'
S' 1'
tp1878
a(S'verify'
S'side'
S' flower hallway'
tp1879
aa(lp1880
(S'turn'
S''
S''
tp1881
a(S'verify'
S'front'
S' easel'
tp1882
aa(lp1883
(S'verify'
S'front'
S' yellow hallway'
tp1884
aa(lp1885
(S'verify'
p1886
S'front'
S' lamp'
tp1887
a(g1886
S'front'
S' hatrack'
tp1888
a(S'travel'
S''
S''
tp1889
a(S'verify'
p1890
S'back'
S' lamp'
tp1891
a(g1890
S'back'
S' hatrack'
tp1892
aa(lp1893
(S'verify'
p1894
S'front'
S' brick hallway'
tp1895
a(g1894
S'left'
S' concrete hallway'
tp1896
aa(lp1897
(S'turn'
S''
S''
tp1898
a(S'verify'
p1899
S'front'
S' yellow hallway'
tp1900
a(g1899
S'back'
S' wall'
tp1901
a(S'travel'
S''
S''
tp1902
a(S'verify'
S'side'
S' blue hallway'
tp1903
aa(lp1904
(S'turn'
S'right'
S''
tp1905
aa(lp1906
(S'travel'
S'steps'
S' 1'
tp1907
aa(lp1908
(S'verify'
S'at'
S' barstool'
tp1909
a(S'turn'
S'left'
S''
tp1910
a(S'verify'
S'front'
S' blue hallway'
tp1911
aa(lp1912
(S'travel'
S'steps'
S' 1'
tp1913
aa(lp1914
(S'travel'
S''
S''
tp1915
a(S'verify'
S'left'
S' hallway'
tp1916
a(S'turn'
S'left'
S''
tp1917
aa(lp1918
(S'verify'
S'at'
S' sofa'
tp1919
aa(lp1920
(S'travel'
S''
S''
tp1921
a(S'verify'
p1922
S'front'
S' wall'
tp1923
a(g1922
S'left'
S' wall'
tp1924
a(S'turn'
S'right'
S''
tp1925
a(S'verify'
S'front'
S' easel'
tp1926
aa(lp1927
(S'travel'
S''
S''
tp1928
aa(lp1929
(S'turn'
S'right'
S''
tp1930
aa(lp1931
(S'turn'
S'left'
S''
tp1932
aa(lp1933
(S'travel'
S'steps'
S' 1'
tp1934
aa(lp1935
(S'travel'
S''
S''
tp1936
a(S'verify'
p1937
S'front'
S' wall'
tp1938
a(g1937
S'left'
S' wall'
tp1939
a(g1937
S'right'
S' wall'
tp1940
aa(lp1941
(S'turn'
S'right'
S''
tp1942
aa(lp1943
(S'verify'
S'front'
S' gravel hallway'
tp1944
a(S'travel'
S''
S''
tp1945
a(S'verify'
S'at'
S' sofa'
tp1946
aa(lp1947
(S'turn'
S''
S''
tp1948
a(S'travel'
S''
S''
tp1949
a(S'verify'
S'at'
S' chair'
tp1950
a(S'travel'
S'steps'
S' 1'
tp1951
aa(lp1952
(S'turn'
S'left'
S''
tp1953
a(S'travel'
S''
S''
tp1954
a(S'verify'
S'at'
S' lamp'
tp1955
a(S'travel'
S'steps'
S' 1'
tp1956
aa(lp1957
(S'turn'
S'right'
S''
tp1958
aa(lp1959
(S'turn'
S'right'
S''
tp1960
aa(lp1961
(S'travel'
S''
S''
tp1962
a(S'verify'
S'at'
S' barstool'
tp1963
a(S'turn'
S'right'
S''
tp1964
aa(lp1965
(S'turn'
S''
S''
tp1966
a(S'verify'
S'front'
S' easel'
tp1967
aa(lp1968
(S'travel'
S''
S''
tp1969
a(S'turn'
S'right'
S''
tp1970
aa(lp1971
(S'turn'
S''
S''
tp1972
a(S'verify'
p1973
S'front'
S' gravel hallway'
tp1974
a(g1973
S'front'
S' chair'
tp1975
aa(lp1976
(S'travel'
S''
S''
tp1977
a(S'verify'
S'front'
S' wall'
tp1978
a(S'turn'
S'left'
S''
tp1979
aa(lp1980
(S'turn'
S''
S''
tp1981
a(S'verify'
S'front'
S' yellow hallway'
tp1982
a(S'travel'
S''
S''
tp1983
a(S'verify'
S'side'
S' wood hallway'
tp1984
aa(lp1985
(S'turn'
S'right'
S''
tp1986
aa(lp1987
(S'turn'
S'right'
S''
tp1988
aa(lp1989
(S'travel'
S''
S''
tp1990
a(S'verify'
S'right'
S' hallway'
tp1991
a(S'turn'
S'right'
S''
tp1992
aa(lp1993
(S'verify'
S'front'
S' chair'
tp1994
a(S'travel'
S''
S''
tp1995
a(S'verify'
S'at'
S' chair'
tp1996
a(S'travel'
S'steps'
S' 1'
tp1997
aa(lp1998
(S'travel'
S'steps'
S' 2'
tp1999
a(S'verify'
S'side'
S' flower hallway'
tp2000
aa(lp2001
(S'travel'
S'steps'
S' 1'
tp2002
aa(lp2003
(S'travel'
S'steps'
S' 1'
tp2004
aa(lp2005
(S'turn'
S'right'
S''
tp2006
aa(lp2007
(S'travel'
S''
S''
tp2008
aa(lp2009
(S'verify'
S'right'
S' yellow hallway'
p2010
tp2011
aa(lp2012
(S'turn'
S'left'
S''
tp2013
a(S'travel'
S'steps'
S' 1'
tp2014
aa(lp2015
(S'turn'
S'right'
S''
tp2016
aa(lp2017
(S'turn'
S'left'
S''
tp2018
aa(lp2019
(S'travel'
S''
S''
tp2020
a(S'verify'
S'at'
S' chair'
tp2021
aa(lp2022
(S'verify'
p2023
S'left'
S' wood hallway'
p2024
tp2025
a(g2023
S'right'
S' wood hallway'
tp2026
aa(lp2027
(g155
S''
S''
tp2028
aa(lp2029
(S'turn'
S'left'
S''
tp2030
a(S'verify'
S'front'
S' yellow hallway'
tp2031
a(S'travel'
S''
S''
tp2032
a(S'verify'
S'front'
S' wall'
tp2033
aa(lp2034
(S'turn'
S''
S''
tp2035
a(S'verify'
S'front'
S' yellow hallway'
tp2036
a(S'travel'
S''
S''
tp2037
a(S'verify'
S'front'
S' wall'
tp2038
aa(lp2039
(S'travel'
S''
S''
tp2040
a(S'verify'
S'at'
S' chair'
tp2041
a(S'turn'
S'right'
S''
tp2042
a(S'verify'
S'front'
S' brick hallway'
tp2043
a(S'travel'
S'steps'
S' 1'
tp2044
aa(lp2045
(S'turn'
S'left'
S''
tp2046
aa(lp2047
(S'verify'
S'side'
S' grass hallway'
tp2048
a(S'turn'
S'right'
S''
tp2049
a(S'travel'
S''
S''
tp2050
a(S'verify'
S'front'
S' wall'
tp2051
aa(lp2052
(S'turn'
S''
S''
tp2053
a(S'verify'
p2054
S'left'
S' wall'
tp2055
a(g2054
S'back'
S' wall'
tp2056
aa(lp2057
(S'turn'
S'right'
S''
tp2058
aa(lp2059
(S'verify'
S'right'
S' hatrack'
p2060
tp2061
aa(lp2062
(S'travel'
S''
S''
tp2063
a(S'verify'
S'right'
S' hallway'
tp2064
a(S'turn'
S'right'
S''
tp2065
aa(lp2066
(S'travel'
S'steps'
S' 1'
tp2067
a(S'verify'
S'at'
S' chair'
tp2068
aa(lp2069
(S'turn'
S'right'
S''
tp2070
aa(lp2071
(S'verify'
S'at'
S' chair'
tp2072
a(S'turn'
S'right'
S''
tp2073
aa(lp2074
(S'turn'
S''
S''
tp2075
a(S'verify'
S'front'
S' yellow hallway'
tp2076
a(S'travel'
S''
S''
tp2077
a(S'verify'
S'side'
S' wood hallway'
tp2078
aa(lp2079
(S'turn'
S''
S''
tp2080
a(S'verify'
S'front'
S' brick hallway'
tp2081
aa(lp2082
(S'travel'
S''
S''
tp2083
a(S'verify'
S'right'
S' flower hallway'
tp2084
aa(lp2085
(S'verify'
S'front'
S' lamp'
tp2086
a(S'travel'
S'steps'
S' 4'
tp2087
a(S'verify'
p2088
S'back'
S' lamp'
tp2089
a(g2088
S'side'
S' flower hallway'
tp2090
aa(lp2091
(S'turn'
S'left'
S''
tp2092
aa(lp2093
(S'travel'
S'steps'
S' 1'
tp2094
aa(lp2095
(S'verify'
S'at'
S' hatrack'
tp2096
aa(lp2097
(S'turn'
S'right'
S''
tp2098
aa(lp2099
(S'turn'
S'left'
S''
tp2100
a(S'travel'
S''
S''
tp2101
a(S'verify'
S'at'
S' easel'
tp2102
aa(lp2103
(S'travel'
S''
S''
tp2104
a(S'verify'
p2105
S'front'
S' blue hallway'
tp2106
a(g2105
S'side'
S' flower hallway'
tp2107
aa(lp2108
(g155
S''
S''
tp2109
aa(lp2110
(S'travel'
S'steps'
S' 2'
tp2111
aa(lp2112
(S'verify'
S'front'
S' brick hallway'
tp2113
aa(lp2114
(S'turn'
S'left'
S''
tp2115
aa(lp2116
(S'turn'
S''
S''
tp2117
a(S'verify'
S'front'
S' wood hallway'
tp2118
aa(lp2119
(S'travel'
S''
S''
tp2120
a(S'verify'
p2121
S'front'
S' wall'
tp2122
a(g2121
S'back'
S' butterfly wall'
tp2123
aa(lp2124
(g155
S''
S''
tp2125
aa(lp2126
(S'turn'
S''
S''
tp2127
a(S'verify'
p2128
S'right'
S' wall'
tp2129
a(g2128
S'left'
S' wall'
tp2130
a(g2128
S'back'
S' wall'
tp2131
aa(lp2132
(S'travel'
S''
S''
tp2133
a(S'verify'
S'side'
S' blue hallway'
tp2134
aa(lp2135
(S'turn'
S'right'
S''
tp2136
aa(lp2137
(S'verify'
S'front'
S' blue hallway'
tp2138
a(S'travel'
S''
S''
tp2139
a(S'verify'
S'front'
S' wall'
tp2140
aa(lp2141
(S'travel'
S'steps'
S' 1'
tp2142
aa(lp2143
(S'turn'
S'right'
S''
tp2144
aa(lp2145
(g155
S''
S''
tp2146
aa(lp2147
(S'turn'
S'left'
S''
tp2148
aa(lp2149
(S'travel'
S'steps'
S' 1'
tp2150
aa(lp2151
(S'travel'
S''
S''
tp2152
a(S'verify'
S'side'
S' blue hallway'
tp2153
aa(lp2154
(S'travel'
S''
S''
tp2155
a(S'verify'
S'side'
S' brick hallway'
tp2156
a(S'turn'
S'left'
S''
tp2157
aa(lp2158
(S'verify'
p2159
S'front'
S' wall'
tp2160
a(g2159
S'left'
S' wall'
tp2161
a(g2159
S'right'
S' wall'
tp2162
aa(lp2163
(S'verify'
p2164
S'front'
S' wall'
tp2165
a(g2164
S'right'
S' wall'
tp2166
a(S'turn'
S'left'
S''
tp2167
a(S'travel'
S''
S''
tp2168
a(S'verify'
p2169
S'front'
S' wall'
tp2170
a(g2169
S'left'
S' wall'
tp2171
a(g2169
S'at'
S' lamp'
tp2172
a(S'turn'
S'right'
S''
tp2173
aa(lp2174
(S'travel'
S''
S''
tp2175
a(S'verify'
S'at'
S' chair'
tp2176
a(S'travel'
S'steps'
S' 1'
tp2177
aa(lp2178
(S'turn'
S''
S''
tp2179
a(S'verify'
S'back'
S' wall'
tp2180
a(S'turn'
S'left'
S''
tp2181
aa(lp2182
(S'travel'
S'steps'
S' 2'
tp2183
aa(lp2184
(S'travel'
S'steps'
S' 2'
tp2185
a(S'verify'
S'front'
S' wall'
tp2186
aa(lp2187
(S'verify'
S'front'
S' brick hallway'
tp2188
aa(lp2189
(S'verify'
p2190
S'front'
S' blue hallway'
tp2191
a(g2190
S'front'
S' chair'
tp2192
a(S'travel'
S''
S''
tp2193
a(S'verify'
p2194
S'back'
S' chair'
tp2195
a(g2194
S'front'
S' wall'
tp2196
aa(lp2197
(S'travel'
S''
S''
tp2198
aa(lp2199
(S'verify'
S'front'
S' butterfly wall'
tp2200
aa(lp2201
(S'turn'
S''
S''
tp2202
aa(lp2203
(S'verify'
S'front'
S' gravel hallway'
tp2204
a(S'travel'
S'steps'
S' 3'
tp2205
a(S'verify'
S'front'
S' wall'
tp2206
aa(lp2207
(S'turn'
S''
S''
tp2208
a(S'verify'
S'front'
S' wood hallway'
tp2209
aa(lp2210
(S'turn'
S''
S''
tp2211
a(S'verify'
p2212
S'front'
S' gravel hallway'
tp2213
a(g2212
S'front'
S' lamp'
tp2214
aa(lp2215
(S'turn'
S'right'
S''
tp2216
a(S'verify'
S'front'
S' wood hallway'
tp2217
aa(lp2218
(S'travel'
S''
S''
tp2219
a(S'verify'
p2220
S'front'
S' wall'
tp2221
a(g2220
S'left'
S' grass hallway'
tp2222
aa(lp2223
(S'turn'
S''
S''
tp2224
a(S'verify'
S'front'
S' wood hallway'
tp2225
aa(lp2226
(S'verify'
p2227
S'left'
S' concrete hallway'
tp2228
a(g2227
S'left'
S' sofa'
p2229
tp2230
aa(lp2231
(S'verify'
p2232
S'front'
S' blue hallway'
tp2233
a(g2232
S'front'
S' chair'
tp2234
a(S'travel'
S''
S''
tp2235
a(S'verify'
S'back'
S' chair'
tp2236
aa(lp2237
(S'turn'
S''
S''
tp2238
a(S'verify'
p2239
S'back'
S' wall'
tp2240
a(g2239
S'front'
S' gravel hallway'
tp2241
a(S'travel'
S''
S''
tp2242
a(S'verify'
S'front'
S' wall'
tp2243
aa(lp2244
(S'turn'
S'right'
S''
tp2245
a(S'verify'
S'front'
S' brick hallway'
tp2246
a(S'travel'
S''
S''
tp2247
a(S'verify'
S'side'
S' concrete hallway'
tp2248
aa(lp2249
(S'turn'
S'left'
S''
tp2250
aa(lp2251
(S'turn'
S'left'
S''
tp2252
a(S'verify'
S'front'
S' gravel hallway'
tp2253
a(S'travel'
S'steps'
S' 1'
tp2254
aa(lp2255
(S'turn'
S'right'
S''
tp2256
aa(lp2257
(S'travel'
S'steps'
S' 1'
tp2258
aa(lp2259
(S'travel'
S'steps'
S' 1'
tp2260
aa(lp2261
(S'turn'
S''
S''
tp2262
a(S'verify'
S'left'
S' wall'
tp2263
aa(lp2264
(S'verify'
S'front'
S' blue hallway'
tp2265
a(S'travel'
S''
S''
tp2266
a(S'verify'
S'side'
S' wood hallway'
tp2267
aa(lp2268
(S'verify'
S'left'
S' sofa'
tp2269
aa(lp2270
(S'travel'
S''
S''
tp2271
a(S'verify'
S'at'
S' hatrack'
tp2272
a(S'turn'
S'right'
S''
tp2273
a(S'verify'
S'front'
S' blue hallway'
tp2274
aa(lp2275
(S'travel'
S'steps'
S' 1'
tp2276
a(S'verify'
p2277
S'front'
S' wall'
tp2278
a(g2277
S'left'
S' wall'
tp2279
aa(lp2280
(S'turn'
S''
S''
tp2281
a(S'verify'
S'front'
S' yellow hallway'
tp2282
a(S'travel'
S''
S''
tp2283
a(S'verify'
p2284
S'side'
S' grass hallway'
tp2285
a(g2284
S'back'
S' yellow hallway'
tp2286
a(g2284
S'front'
S' wall'
tp2287
aa(lp2288
(S'travel'
S''
S''
tp2289
a(S'verify'
S'at'
S' easel'
tp2290
a(S'turn'
S'right'
S''
tp2291
aa(lp2292
(S'travel'
S'steps'
S' 2'
tp2293
aa(lp2294
(S'turn'
S'right'
S''
tp2295
a(S'verify'
S'front'
S' gravel hallway'
tp2296
aa(lp2297
(S'travel'
S'steps'
S' 2'
tp2298
aa(lp2299
(S'turn'
S''
S''
tp2300
a(S'verify'
S'front'
S' yellow hallway'
tp2301
a(S'travel'
S'steps'
S' 1'
tp2302
aa(lp2303
(S'travel'
S''
S''
tp2304
a(S'verify'
S'right'
S' brick hallway'
tp2305
aa(lp2306
(S'travel'
S'steps'
S' 2'
tp2307
a(S'verify'
S'at'
S' chair'
tp2308
aa(lp2309
(S'turn'
S'left'
S''
tp2310
a(S'verify'
S'front'
S' gravel hallway'
tp2311
aa(lp2312
(S'turn'
S''
S''
tp2313
a(S'verify'
S'front'
S' flower hallway'
tp2314
aa(lp2315
(S'travel'
S''
S''
tp2316
a(S'verify'
S'front'
S' wall'
tp2317
aa(lp2318
(S'travel'
S'steps'
S' 1'
tp2319
aa(lp2320
(S'turn'
S''
S''
tp2321
a(S'verify'
S'front'
S' easel'
tp2322
aa(lp2323
(S'turn'
S''
S''
tp2324
a(S'verify'
p2325
S'front'
S' wood hallway'
tp2326
a(g2325
S'front'
S' chair'
tp2327
aa(lp2328
(S'turn'
S'right'
S''
tp2329
aa(lp2330
(S'travel'
S''
S''
tp2331
a(S'verify'
S'side'
S' concrete hallway'
tp2332
aa(lp2333
(S'travel'
S'steps'
S' 1'
tp2334
a(S'verify'
S'side'
S' flower hallway'
tp2335
aa(lp2336
(S'turn'
S'left'
S''
tp2337
aa(lp2338
(S'turn'
S'left'
S''
tp2339
aa(lp2340
(S'travel'
S''
S''
tp2341
a(S'verify'
S'at'
S' sofa'
tp2342
aa(lp2343
(S'travel'
S''
S''
tp2344
a(S'verify'
S'at'
S' easel'
tp2345
aa(lp2346
(S'turn'
S'left'
S''
tp2347
aa(lp2348
(S'turn'
S'left'
S''
tp2349
aa(lp2350
(S'travel'
S''
S''
tp2351
a(S'verify'
p2352
S'front'
S' wall'
tp2353
a(g2352
S'left'
S' wall'
tp2354
aa(lp2355
(S'turn'
S'left'
S''
tp2356
aa(lp2357
(S'verify'
S'front'
S' yellow hallway'
tp2358
aa(lp2359
(S'travel'
S''
S''
tp2360
a(S'verify'
S'at'
S' easel'
tp2361
aa(lp2362
(S'travel'
S'steps'
S' 2'
tp2363
aa(lp2364
(S'travel'
S''
S''
tp2365
a(S'verify'
S'side'
S' brick hallway'
tp2366
aa(lp2367
(S'turn'
S''
S''
tp2368
a(S'verify'
S'front'
S' yellow hallway'
tp2369
a(S'travel'
S''
S''
tp2370
a(S'verify'
S'side'
S' flower hallway'
tp2371
aa(lp2372
(S'turn'
S''
S''
tp2373
a(S'verify'
p2374
S'left'
S' wall'
tp2375
a(g2374
S'right'
S' wall'
tp2376
a(g2374
S'back'
S' wall'
tp2377
aa(lp2378
(S'travel'
S'steps'
S' 3'
tp2379
a(S'verify'
S'side'
S' flower hallway'
tp2380
aa(lp2381
(S'travel'
S''
S''
tp2382
a(S'verify'
p2383
S'side'
S' concrete hallway'
tp2384
a(g2383
S'front'
S' wood hallway'
tp2385
aa(lp2386
(S'travel'
S'steps'
S' 1'
tp2387
aa(lp2388
(S'turn'
S''
S''
tp2389
a(S'verify'
S'front'
S' brick hallway'
tp2390
aa(lp2391
(S'travel'
S''
S''
tp2392
a(S'verify'
S'side'
S' flower hallway'
tp2393
aa(lp2394
(S'travel'
S'steps'
S' 4'
tp2395
a(S'verify'
S'front'
S' wall'
tp2396
aa(lp2397
(S'turn'
S'right'
S''
tp2398
aa(lp2399
(S'verify'
S'at'
S' chair'
tp2400
aa(lp2401
(S'travel'
S'steps'
S' 1'
tp2402
a(S'verify'
S'at'
S' easel'
tp2403
aa(lp2404
(S'turn'
S''
S''
tp2405
a(S'verify'
S'front'
S' yellow hallway'
tp2406
aa(lp2407
(S'travel'
S'steps'
S' 1'
tp2408
aa(lp2409
(S'travel'
S''
S''
tp2410
a(S'verify'
S'side'
S' yellow hallway'
tp2411
aa(lp2412
(g155
S''
S''
tp2413
aa(lp2414
(S'travel'
S''
S''
tp2415
a(S'verify'
S'at'
S' easel'
p2416
tp2417
a(S'turn'
S'left'
S''
tp2418
aa(lp2419
(S'turn'
S'left'
S''
tp2420
aa(lp2421
(S'travel'
S'steps'
S' 1'
tp2422
aa(lp2423
(S'turn'
S'right'
S''
tp2424
aa(lp2425
(S'turn'
S'left'
S''
tp2426
aa(lp2427
(S'turn'
S'right'
S''
tp2428
a(S'verify'
S'front'
S' easel'
tp2429
aa(lp2430
(S'travel'
S''
S''
tp2431
a(S'verify'
S'front'
S' wall'
tp2432
aa(lp2433
(S'turn'
S''
S''
tp2434
a(S'verify'
S'back'
S' wall'
tp2435
aa(lp2436
(S'turn'
S'left'
S''
tp2437
aa(lp2438
(S'travel'
S''
S''
tp2439
a(S'verify'
S'at'
S' easel'
tp2440
a(S'turn'
S'right'
S''
tp2441
a(S'verify'
S'front'
S' wood hallway'
tp2442
a(S'travel'
S'steps'
S' 1'
tp2443
aa(lp2444
(S'turn'
S''
S''
tp2445
a(S'verify'
p2446
S'right'
S' wall'
tp2447
a(g2446
S'back'
S' wall'
tp2448
aa(lp2449
(S'verify'
S'right'
S' gravel hallway'
tp2450
aa(lp2451
(S'travel'
S'steps'
S' 3'
tp2452
aa(lp2453
(S'turn'
S''
S''
tp2454
a(S'verify'
p2455
S'back'
S' wall'
tp2456
a(g2455
S'left'
S' wall'
tp2457
a(g2455
S'right'
S' wall'
tp2458
aa(lp2459
(S'turn'
S'right'
S''
tp2460
a(S'verify'
S'front'
S' gravel hallway'
tp2461
aa(lp2462
(S'travel'
S''
S''
tp2463
a(S'verify'
S'side'
S' blue hallway'
tp2464
aa(lp2465
(S'travel'
S'steps'
S' 1'
tp2466
a(S'verify'
S'front'
S' wall'
tp2467
aa(lp2468
(S'travel'
S'steps'
S' 1'
tp2469
aa(lp2470
(S'turn'
S'left'
S''
tp2471
aa(lp2472
(S'turn'
S'right'
S''
tp2473
aa(lp2474
(S'turn'
S'right'
S''
tp2475
aa(lp2476
(S'travel'
S''
S''
tp2477
a(S'verify'
S'front'
S' wall'
tp2478
a(S'turn'
S'left'
S''
tp2479
aa(lp2480
(S'verify'
S'front'
S' lamp'
tp2481
a(S'travel'
S''
S''
tp2482
a(S'verify'
p2483
S'back'
S' lamp'
tp2484
a(g2483
S'front'
S' wall'
tp2485
a(g2483
S'right'
S' wall'
tp2486
aa(lp2487
(S'turn'
S''
S''
tp2488
a(S'verify'
S'front'
S' chair'
tp2489
a(S'travel'
S''
S''
tp2490
a(S'verify'
S'at'
S' chair'
tp2491
aa(lp2492
(S'verify'
S'side'
S' yellow hallway'
tp2493
a(S'turn'
S'left'
S''
tp2494
a(S'travel'
S''
S''
tp2495
a(S'verify'
S'front'
S' wall'
tp2496
aa(lp2497
(S'turn'
S''
S''
tp2498
a(S'verify'
S'left'
S' wall'
tp2499
aa(lp2500
(S'turn'
S''
S''
tp2501
a(S'verify'
S'back'
S' wall'
tp2502
a(S'travel'
S'steps'
S' 1'
tp2503
aa(lp2504
(S'travel'
S''
S''
tp2505
a(S'verify'
S'front'
S' wall'
tp2506
a(S'turn'
S'right'
S''
tp2507
aa(lp2508
(S'turn'
S'right'
S''
tp2509
a(S'verify'
S'front'
S' butterfly wall'
tp2510
aa(lp2511
(S'travel'
S'steps'
S' 2'
tp2512
aa(lp2513
(S'travel'
S''
S''
tp2514
a(S'verify'
S'at'
S' easel'
tp2515
a(S'turn'
S'left'
S''
tp2516
aa(lp2517
(S'turn'
S'left'
S''
tp2518
aa(lp2519
(S'verify'
S'front'
S' blue hallway'
tp2520
a(S'travel'
S''
S''
tp2521
a(S'verify'
p2522
S'front'
S' wall'
tp2523
a(g2522
S'right'
S' wall'
tp2524
a(S'turn'
S'left'
S''
tp2525
a(S'verify'
S'front'
S' easel'
tp2526
aa(lp2527
(S'travel'
S'steps'
S' 1'
tp2528
a(S'verify'
S'at'
S' easel'
tp2529
aa(lp2530
(S'travel'
S'steps'
S' 1'
tp2531
aa(lp2532
(S'verify'
S'front'
S' brick hallway'
tp2533
aa(lp2534
(S'travel'
S'steps'
S' 1'
tp2535
aa(lp2536
(S'travel'
S'steps'
S' 1'
tp2537
aa(lp2538
(S'turn'
S''
S''
tp2539
a(S'verify'
S'front'
S' gravel hallway'
tp2540
a(S'travel'
S''
S''
tp2541
a(S'verify'
S'side'
S' yellow hallway'
tp2542
aa(lp2543
(S'turn'
S'right'
S''
tp2544
aa(lp2545
(g155
S''
S''
tp2546
aa(lp2547
(S'turn'
S'left'
S''
tp2548
aa(lp2549
(S'turn'
S'right'
S''
tp2550
a(S'verify'
S'front'
S' gravel hallway'
tp2551
aa(lp2552
(S'turn'
S''
S''
tp2553
a(S'verify'
p2554
S'back'
S' wall'
tp2555
a(g2554
S'at'
S' 3-intersection'
tp2556
aa(lp2557
(S'travel'
S'steps'
S' 1'
tp2558
a(S'verify'
S'at'
S' lamp'
tp2559
aa(lp2560
(S'turn'
S''
S''
tp2561
a(S'verify'
S'front'
S' easel'
tp2562
aa(lp2563
(S'turn'
S''
S''
tp2564
a(S'verify'
S'back'
S' sofa'
tp2565
aa(lp2566
(g155
S''
S''
tp2567
aa(lp2568
(S'verify'
S'front'
S' grass hallway'
tp2569
a(S'travel'
S''
S''
tp2570
a(S'verify'
S'front'
S' wall'
tp2571
aa(lp2572
(S'turn'
S''
S''
tp2573
a(S'verify'
S'front'
S' yellow hallway'
tp2574
a(S'travel'
S''
S''
tp2575
a(S'verify'
S'side'
S' flower hallway'
tp2576
aa(lp2577
(S'travel'
S'steps'
S' 1'
tp2578
aa(lp2579
(S'travel'
S'steps'
S' 1'
tp2580
aa(lp2581
(S'turn'
S'right'
S''
tp2582
a(S'verify'
S'front'
S' blue hallway'
tp2583
aa(lp2584
(g155
S''
S''
tp2585
aa(lp2586
(S'verify'
S'front'
S' hallway'
tp2587
a(S'turn'
S'left'
S''
tp2588
aa(lp2589
(S'travel'
S''
S''
tp2590
aa(lp2591
(S'verify'
S'at'
S' hatrack'
tp2592
aa(lp2593
(S'turn'
S'left'
S''
tp2594
aa(lp2595
(S'travel'
S'steps'
S' 1'
tp2596
a(S'verify'
S'side'
S' wood hallway'
tp2597
aa(lp2598
(S'travel'
S'steps'
S' 1'
tp2599
aa(lp2600
(S'travel'
S'steps'
S' 1'
tp2601
a(S'verify'
S'at'
S' barstool'
tp2602
aa(lp2603
(S'travel'
S'steps'
S' 1'
tp2604
a(S'turn'
S'left'
S''
tp2605
aa(lp2606
(S'turn'
S'right'
S''
tp2607
aa(lp2608
(S'travel'
S'steps'
S' 2'
tp2609
a(S'verify'
p2610
S'side'
S' yellow hallway'
tp2611
a(g2610
S'at'
S' 3-intersection'
tp2612
aa(lp2613
(S'travel'
S'steps'
S' 1'
tp2614
a(S'turn'
S'right'
S''
tp2615
a(S'verify'
S'front'
S' blue hallway'
tp2616
aa(lp2617
(S'verify'
S'side'
S' blue hallway'
tp2618
a(S'turn'
S'left'
S''
tp2619
aa(lp2620
(S'travel'
S'steps'
S' 5'
tp2621
aa(lp2622
(S'travel'
S''
S''
tp2623
a(S'verify'
S'front'
S' wall'
tp2624
a(S'turn'
S'left'
S''
tp2625
a(S'verify'
S'front'
S' lamp'
tp2626
aa(lp2627
(S'travel'
S''
S''
tp2628
a(S'verify'
S'left'
S' flower hallway'
tp2629
aa(lp2630
(S'travel'
S'steps'
S' 2'
tp2631
aa(lp2632
(S'travel'
S''
S''
tp2633
a(S'verify'
p2634
S'side'
S' concrete hallway'
tp2635
a(g2634
S'right'
p2636
S' butterfly wall'
p2637
tp2638
aa(lp2639
(S'travel'
S'steps'
S' 1'
tp2640
a(S'verify'
S'side'
S' concrete hallway'
tp2641
aa(lp2642
(S'travel'
S''
S''
tp2643
a(S'verify'
p2644
S'front'
S' wall'
tp2645
a(g2644
S'left'
S' wall'
tp2646
aa(lp2647
(S'turn'
S'left'
S''
tp2648
aa(lp2649
(S'verify'
S'front'
S' yellow hallway'
tp2650
a(S'travel'
S'steps'
S' 2'
tp2651
aa(lp2652
(S'turn'
S'left'
S''
tp2653
aa(lp2654
(S'travel'
S'steps'
S' 1'
tp2655
aa(lp2656
(S'travel'
S''
S''
tp2657
a(S'verify'
S'at'
S' sofa'
tp2658
aa(lp2659
(S'travel'
S'steps'
S' 2'
tp2660
aa(lp2661
(S'turn'
S''
S''
tp2662
a(S'verify'
S'front'
S' chair'
tp2663
aa(lp2664
(S'turn'
S'left'
S''
tp2665
aa(lp2666
(S'verify'
S'right'
S' wall'
tp2667
aa(lp2668
(S'verify'
p2669
S'at'
S' easel'
tp2670
a(g2669
S'front'
S' wood hallway'
tp2671
a(g2669
S'side'
S' hallway'
tp2672
aa(lp2673
(S'travel'
S'steps'
S' 2'
tp2674
aa(lp2675
(S'travel'
S'steps'
S' 2'
tp2676
aa(lp2677
(S'travel'
S''
S''
tp2678
aa(lp2679
(S'turn'
S'left'
S''
tp2680
aa(lp2681
(S'verify'
S'front'
S' blue hallway'
tp2682
a(S'travel'
S'steps'
S' 2'
tp2683
aa(lp2684
(S'verify'
S'front'
S' sofa'
tp2685
a(S'travel'
S'steps'
S' 4'
p2686
tp2687
a(S'verify'
p2688
S'back'
S' sofa'
p2689
tp2690
a(g2688
S'at'
S' hatrack'
tp2691
aa(lp2692
(S'turn'
S'left'
S''
tp2693
a(S'travel'
S'steps'
S' 2'
tp2694
aa(lp2695
(S'travel'
S'steps'
S' 1'
tp2696
aa(lp2697
(S'turn'
S''
S''
tp2698
a(S'verify'
S'left'
S' wall'
tp2699
aa(lp2700
(S'travel'
S'steps'
S' 2'
tp2701
aa(lp2702
(S'travel'
S''
S''
tp2703
a(S'verify'
S'at'
S' easel'
tp2704
a(S'turn'
S'right'
S''
tp2705
a(S'verify'
S'front'
S' wood hallway'
tp2706
a(S'travel'
S'steps'
S' 1'
tp2707
aa(lp2708
(g155
S''
S''
tp2709
aa(lp2710
(S'turn'
S''
S''
tp2711
a(S'verify'
S'front'
S' brick hallway'
tp2712
aa(lp2713
(S'verify'
S'front'
S' lamp'
tp2714
aa(lp2715
(S'verify'
S'front'
S' easel'
tp2716
aa(lp2717
(S'turn'
S'left'
S''
tp2718
aa(lp2719
(S'turn'
S''
S''
tp2720
a(S'verify'
p2721
S'back'
S' wall'
tp2722
a(g2721
S'at'
S' 3-intersection'
tp2723
aa(lp2724
(S'verify'
S'front'
S' flower hallway'
tp2725
aa(lp2726
(S'turn'
S'left'
S''
tp2727
aa(lp2728
(S'travel'
S''
S''
tp2729
a(S'verify'
S'right'
S' concrete hallway'
tp2730
aa(lp2731
(S'travel'
S''
S''
tp2732
a(S'verify'
S'at'
S' easel'
tp2733
aa(lp2734
(S'turn'
S'right'
S''
tp2735
aa(lp2736
(S'travel'
S'steps'
S' 1'
tp2737
a(S'verify'
S'side'
S' gravel hallway'
tp2738
aa(lp2739
(S'turn'
S'right'
S''
tp2740
aa(lp2741
(S'turn'
S'left'
S''
tp2742
a(S'verify'
S'front'
S' concrete hallway'
tp2743
aa(lp2744
(S'turn'
S''
S''
tp2745
a(S'verify'
S'front'
S' brick hallway'
tp2746
aa(lp2747
(S'travel'
S'steps'
S' 1'
tp2748
aa(lp2749
(S'verify'
S'at'
S' easel'
tp2750
aa(lp2751
(S'turn'
S''
S''
tp2752
a(S'verify'
p2753
S'back'
S' wall'
tp2754
a(g2753
S'at'
S' 3-intersection'
tp2755
aa(lp2756
(S'verify'
S'right'
S' blue hallway'
tp2757
aa(lp2758
(S'travel'
S''
S''
tp2759
a(S'verify'
S'at'
S' lamp'
tp2760
a(S'travel'
S'steps'
S' 1'
tp2761
a(S'turn'
S'right'
S''
tp2762
a(S'verify'
S'front'
S' concrete hallway'
tp2763
aa(lp2764
(S'verify'
S'front'
S' brick hallway'
tp2765
a(S'travel'
S'steps'
S' 5'
tp2766
a(S'verify'
S'side'
S' gravel hallway'
tp2767
aa(lp2768
(S'verify'
p2769
S'front'
S' brick hallway'
tp2770
a(g2769
S'front'
S' butterfly wall'
tp2771
a(S'travel'
S''
S''
tp2772
aa(lp2773
(g155
S''
S''
tp2774
aa(lp2775
(S'turn'
S'right'
S''
tp2776
aa(lp2777
(S'verify'
S'left'
S' concrete hallway'
tp2778
aa(lp2779
(g155
S''
S''
tp2780
aa(lp2781
(S'travel'
S''
S''
tp2782
aa(lp2783
(g155
S''
S''
tp2784
aa(lp2785
(S'travel'
S''
S''
tp2786
a(S'verify'
S'front'
S' butterfly wall'
tp2787
aa(lp2788
(S'turn'
S'right'
S''
tp2789
aa(lp2790
(S'travel'
S'steps'
S' 1'
tp2791
a(S'verify'
S'side'
S' wood hallway'
tp2792
aa(lp2793
(S'turn'
S'left'
S''
tp2794
aa(lp2795
(S'travel'
S''
S''
tp2796
a(S'verify'
S'front'
S' wall'
tp2797
aa(lp2798
(S'travel'
S'steps'
S' 2'
tp2799
a(S'verify'
S'front'
S' wall'
tp2800
aa(lp2801
(S'turn'
S'left'
S''
tp2802
aa(lp2803
(S'travel'
S'steps'
S' 2'
tp2804
aa(lp2805
(S'turn'
S'left'
S''
tp2806
a(S'verify'
S'front'
S' yellow hallway'
tp2807
a(S'travel'
S'steps'
S' 2'
tp2808
a(S'verify'
S'front'
S' wall'
tp2809
aa(lp2810
(S'verify'
S'front'
S' blue hallway'
tp2811
aa(lp2812
(S'travel'
S'steps'
S' 1'
tp2813
aa(lp2814
(S'turn'
S'left'
S''
tp2815
a(S'travel'
S''
S''
tp2816
a(S'verify'
S'at'
p2817
S' sofa'
p2818
tp2819
aa(lp2820
(S'turn'
S'left'
S''
tp2821
aa(lp2822
(S'travel'
S''
S''
tp2823
a(S'verify'
S'side'
S' blue hallway'
tp2824
aa(lp2825
(S'turn'
S''
S''
tp2826
a(S'verify'
S'front'
S' blue hallway'
tp2827
a(S'travel'
S''
S''
tp2828
a(S'verify'
S'side'
S' grass hallway'
tp2829
aa(lp2830
(S'turn'
S'right'
S''
tp2831
a(S'travel'
S'steps'
S' 2'
tp2832
aa(lp2833
(S'travel'
S'steps'
S' 1'
tp2834
aa(lp2835
(g155
S''
S''
tp2836
aa(lp2837
(S'turn'
S''
S''
tp2838
a(S'verify'
S'front'
S' gravel hallway'
tp2839
a(S'travel'
S''
S''
tp2840
a(S'verify'
S'side'
S' brick hallway'
tp2841
aa(lp2842
(S'travel'
S'steps'
S' 1'
tp2843
aa(lp2844
(S'turn'
S'left'
S''
tp2845
aa(lp2846
(S'travel'
S''
S''
tp2847
a(S'verify'
p2848
S'front'
S' wall'
tp2849
a(g2848
S'right'
S' wall'
tp2850
a(g2848
S'left'
S' wall'
tp2851
aa(lp2852
(S'travel'
S''
S''
tp2853
a(S'verify'
p2854
S'front'
S' brick hallway'
tp2855
a(g2854
S'back'
S' brick hallway'
p2856
tp2857
aa(lp2858
(S'travel'
S'steps'
S' 1'
tp2859
a(S'verify'
S'side'
S' flower hallway'
tp2860
aa(lp2861
(S'travel'
S'steps'
S' 2'
tp2862
a(S'verify'
S'front'
S' wall'
tp2863
aa(lp2864
(S'turn'
S'right'
S''
tp2865
aa(lp2866
(S'travel'
S'steps'
S' 2'
tp2867
aa(lp2868
(S'verify'
S'front'
S' blue hallway'
tp2869
a(S'travel'
S''
S''
tp2870
a(S'verify'
S'at'
S' hatrack'
tp2871
aa(lp2872
(S'turn'
S'left'
S''
tp2873
aa(lp2874
(S'turn'
S'left'
S''
tp2875
aa(lp2876
(S'turn'
S'left'
S''
tp2877
aa(lp2878
(S'verify'
S'front'
S' flower hallway'
tp2879
a(S'travel'
S''
S''
tp2880
a(S'verify'
S'side'
S' hallway'
tp2881
a(S'turn'
S'right'
S''
tp2882
a(S'travel'
S''
S''
tp2883
a(S'verify'
S'front'
S' wall'
tp2884
aa(lp2885
(S'verify'
S'front'
S' easel'
tp2886
aa(lp2887
(S'verify'
S'front'
S' hatrack'
tp2888
a(S'travel'
S'steps'
S' 3'
tp2889
a(S'verify'
p2890
S'back'
S' hatrack'
tp2891
a(g2890
S'side'
S' yellow hallway'
tp2892
aa(lp2893
(g155
S''
S''
tp2894
aa(lp2895
(S'verify'
S'right'
S' yellow hallway'
tp2896
aa(lp2897
(S'travel'
S''
S''
tp2898
a(S'turn'
S''
S''
tp2899
a(S'travel'
S''
S''
tp2900
a(S'turn'
S''
S''
tp2901
aa(lp2902
(S'travel'
S'steps'
S' 2'
tp2903
a(S'verify'
S'side'
S' blue hallway'
tp2904
aa(lp2905
(S'turn'
S'left'
S''
tp2906
aa(lp2907
(S'turn'
S'right'
S''
tp2908
aa(lp2909
(S'travel'
S''
S''
tp2910
a(S'verify'
S'at'
S' lamp'
tp2911
a(S'travel'
S'steps'
S' 1'
tp2912
aa(lp2913
(S'turn'
S''
S''
tp2914
a(S'verify'
p2915
S'front'
S' lamp'
tp2916
a(g2915
S'front'
S' brick hallway'
tp2917
a(S'travel'
S''
S''
tp2918
a(S'turn'
S'right'
S''
tp2919
a(S'verify'
S'front'
S' wood hallway'
tp2920
aa(lp2921
(S'turn'
S'right'
S''
tp2922
aa(lp2923
(S'travel'
S''
S''
tp2924
a(S'verify'
S'front'
S' fish wall'
tp2925
aa(lp2926
(S'turn'
S'right'
S''
tp2927
aa(lp2928
(S'travel'
S''
S''
tp2929
a(S'verify'
S'at'
S' hatrack'
tp2930
a(S'turn'
S'right'
S''
tp2931
a(S'verify'
S'front'
S' blue hallway'
tp2932
aa(lp2933
(S'travel'
S''
S''
tp2934
a(S'verify'
S'side'
S' hallway'
tp2935
a(S'turn'
S'right'
S''
tp2936
aa(lp2937
(S'turn'
S'left'
S''
tp2938
aa(lp2939
(S'travel'
S''
S''
tp2940
aa(lp2941
(S'turn'
S''
S''
tp2942
a(S'verify'
S'front'
S' flower hallway'
tp2943
a(S'travel'
S''
S''
tp2944
a(S'verify'
S'front'
S' fish wall'
tp2945
aa(lp2946
(S'turn'
S''
S''
tp2947
a(S'verify'
S'front'
S' lamp'
tp2948
aa(lp2949
(S'travel'
S''
S''
tp2950
a(S'verify'
S'at'
S' barstool'
tp2951
aa(lp2952
(S'turn'
S''
S''
tp2953
a(S'verify'
p2954
S'back'
S' wall'
tp2955
a(g2954
S'at'
S' 3-intersection'
tp2956
aa(lp2957
(S'travel'
S'steps'
S' 3'
tp2958
aa(lp2959
(S'turn'
S'right'
S''
tp2960
aa(lp2961
(S'turn'
S''
S''
tp2962
a(S'verify'
S'back'
S' easel'
tp2963
aa(lp2964
(S'turn'
S'right'
S''
tp2965
aa(lp2966
(S'turn'
S''
S''
tp2967
a(S'verify'
S'front'
S' gravel hallway'
tp2968
aa(lp2969
(S'verify'
S'front'
S' flower hallway'
tp2970
a(S'travel'
S'steps'
S' 2'
tp2971
a(S'verify'
S'side'
S' brick hallway'
tp2972
aa(lp2973
(S'turn'
S''
S''
tp2974
a(S'verify'
p2975
S'right'
S' wall'
tp2976
a(g2975
S'left'
S' wall'
tp2977
a(g2975
S'back'
S' wall'
tp2978
aa(lp2979
(S'travel'
S'steps'
S' 1'
tp2980
aa(lp2981
(S'verify'
p2982
S'front'
S' barstool'
tp2983
a(g2982
S'front'
S' chair'
tp2984
a(S'travel'
S''
S''
tp2985
a(S'verify'
p2986
S'back'
S' barstool'
tp2987
a(g2986
S'back'
S' chair'
tp2988
a(g2986
S'side'
S' flower hallway'
tp2989
aa(lp2990
(S'verify'
S'front'
S' wood hallway'
tp2991
aa(lp2992
(S'travel'
S''
S''
tp2993
a(S'verify'
p2994
S'front'
S' wall'
tp2995
a(g2994
S'right'
S' wall'
tp2996
aa(lp2997
(S'travel'
S'steps'
S' 1'
tp2998
aa(lp2999
(S'turn'
S'right'
S''
tp3000
aa(lp3001
(S'turn'
S''
S''
tp3002
a(S'verify'
S'front'
S' flower hallway'
tp3003
a(S'travel'
S'steps'
S' 1'
tp3004
aa(lp3005
(S'travel'
S''
S''
tp3006
a(S'verify'
p3007
S'front'
S' blue hallway'
tp3008
a(g3007
S'back'
S' blue hallway'
tp3009
aa(lp3010
(S'travel'
S'steps'
S' 2'
tp3011
a(S'verify'
S'side'
S' blue hallway'
tp3012
aa(lp3013
(S'travel'
S''
S''
tp3014
a(S'verify'
S'at'
S' lamp'
tp3015
a(S'turn'
S'left'
S''
tp3016
aa(lp3017
(S'turn'
S''
S''
tp3018
a(S'verify'
S'back'
S' wall'
tp3019
a(S'travel'
S'steps'
S' 1'
tp3020
aa(lp3021
(S'travel'
S'steps'
S' 4'
tp3022
aa(lp3023
(S'travel'
S'steps'
S' 1'
tp3024
a(S'verify'
S'side'
S' concrete hallway'
tp3025
aa(lp3026
(S'travel'
S'steps'
S' 1'
tp3027
aa(lp3028
(S'travel'
S'steps'
S' 1'
tp3029
aa(lp3030
(S'travel'
S''
S''
tp3031
a(S'verify'
S'left'
S' hallway'
tp3032
a(S'turn'
S'left'
S''
tp3033
aa(lp3034
(S'travel'
S'steps'
S' 1'
tp3035
a(S'verify'
S'side'
S' flower hallway'
tp3036
aa(lp3037
(S'verify'
S'front'
S' lamp'
tp3038
a(S'travel'
S''
S''
tp3039
a(S'verify'
S'back'
S' lamp'
tp3040
aa(lp3041
(S'verify'
S'front'
S' flower hallway'
tp3042
a(S'travel'
S'steps'
S' 3'
tp3043
aa(lp3044
(S'travel'
S''
S''
tp3045
a(S'verify'
S'at'
S' sofa'
tp3046
a(S'turn'
S'left'
S''
tp3047
a(S'travel'
S''
S''
tp3048
a(S'verify'
S'at'
S' sofa'
tp3049
a(S'turn'
S'right'
S''
tp3050
aa(lp3051
(S'turn'
S''
S''
tp3052
a(S'verify'
S'front'
S' flower hallway'
tp3053
aa(lp3054
(S'travel'
S'steps'
S' 1'
tp3055
aa(lp3056
(S'turn'
S'left'
S''
tp3057
aa(lp3058
(S'travel'
S''
S''
tp3059
a(S'verify'
p3060
S'front'
S' wall'
tp3061
a(g3060
S'left'
S' wall'
tp3062
a(g3060
S'right'
S' wall'
tp3063
a(g3060
S'back'
S' yellow hallway'
tp3064
a(g3060
S'back'
S' fish wall'
tp3065
aa(lp3066
(S'travel'
S''
S''
tp3067
a(S'verify'
p3068
S'front'
S' wall'
tp3069
a(g3068
S'right'
S' wall'
tp3070
a(S'turn'
S'left'
S''
tp3071
a(S'travel'
S''
S''
tp3072
a(S'verify'
S'front'
S' wall'
tp3073
a(S'turn'
S'left'
S''
tp3074
a(S'verify'
S'front'
S' grass hallway'
tp3075
aa(lp3076
(S'verify'
S'at'
S' hatrack'
tp3077
a(S'turn'
S'right'
S''
tp3078
aa(lp3079
(S'verify'
S'front'
S' grass hallway'
tp3080
a(S'travel'
S''
S''
tp3081
a(S'verify'
S'front'
S' wall'
tp3082
a(S'turn'
S'right'
S''
tp3083
aa(lp3084
(S'travel'
S''
S''
tp3085
a(S'verify'
S'at'
S' chair'
tp3086
a(S'turn'
S'left'
S''
tp3087
a(S'verify'
S'front'
S' blue hallway'
tp3088
a(S'travel'
S''
S''
tp3089
a(S'verify'
S'front'
S' wall'
tp3090
aa(lp3091
(S'travel'
S''
S''
tp3092
aa(lp3093
(S'verify'
p3094
S'front'
S' easel'
tp3095
a(g3094
S'front'
S' gravel hallway'
tp3096
aa(lp3097
(S'travel'
S''
S''
tp3098
a(S'verify'
S'front'
S' wall'
tp3099
aa(lp3100
(S'travel'
S'steps'
S' 2'
tp3101
aa(lp3102
(S'travel'
S''
S''
tp3103
aa(lp3104
(S'travel'
S'steps'
S' 1'
tp3105
aa(lp3106
(S'turn'
S'right'
S''
tp3107
aa(lp3108
(S'travel'
S''
S''
tp3109
a(S'verify'
S'front'
S' wall'
tp3110
aa(lp3111
(S'travel'
S'steps'
S' 1'
tp3112
a(S'verify'
S'side'
S' wood hallway'
tp3113
aa(lp3114
(S'turn'
S'right'
S''
tp3115
a(S'verify'
p3116
S'front'
S' brick hallway'
tp3117
a(g3116
S'front'
S' lamp'
tp3118
aa(lp3119
(S'travel'
S''
S''
tp3120
a(S'verify'
p3121
S'front'
S' fish wall'
tp3122
a(g3121
S'front'
S' yellow hallway'
tp3123
aa(lp3124
(S'turn'
S'left'
S''
tp3125
aa(lp3126
(S'travel'
S'steps'
S' 6'
tp3127
aa(lp3128
(S'turn'
S''
S''
tp3129
a(S'verify'
p3130
S'left'
S' wall'
tp3131
a(g3130
S'right'
S' flower hallway'
tp3132
aa(lp3133
(S'verify'
S'at'
S' lamp'
tp3134
aa(lp3135
(S'travel'
S''
S''
tp3136
a(S'verify'
p3137
S'front'
S' wall'
tp3138
a(g3137
S'right'
S' wall'
tp3139
aa(lp3140
(S'travel'
S''
S''
tp3141
a(S'verify'
p3142
S'front'
S' wall'
tp3143
a(g3142
S'left'
S' wall'
tp3144
a(S'turn'
S'right'
S''
tp3145
a(S'verify'
S'front'
S' easel'
tp3146
aa(lp3147
(S'verify'
S'front'
S' fish wall'
tp3148
a(S'turn'
S'left'
S''
tp3149
a(S'travel'
S''
S''
tp3150
a(S'verify'
S'front'
S' wall'
tp3151
aa(lp3152
(S'verify'
S'front'
S' yellow hallway'
tp3153
a(S'travel'
S'steps'
S' 2'
tp3154
a(S'verify'
S'side'
S' gravel hallway'
tp3155
aa(lp3156
(S'travel'
S''
S''
tp3157
a(S'verify'
S'side'
S' flower hallway'
tp3158
aa(lp3159
(S'travel'
S''
S''
tp3160
a(S'turn'
S''
S''
tp3161
a(S'travel'
S''
S''
tp3162
a(S'turn'
S''
S''
tp3163
aa(lp3164
(S'turn'
S'left'
S''
tp3165
aa(lp3166
(S'turn'
S'left'
S''
tp3167
aa(lp3168
(S'travel'
S'steps'
S' 3'
tp3169
a(S'verify'
S'side'
S' flower hallway'
tp3170
aa(lp3171
(S'travel'
S''
S''
tp3172
a(S'verify'
S'side'
S' concrete hallway'
tp3173
aa(lp3174
(S'verify'
S'front'
S' chair'
tp3175
a(S'turn'
S'right'
S''
tp3176
aa(lp3177
(S'travel'
S''
S''
tp3178
a(S'verify'
S'at'
S' hatrack'
tp3179
a(S'turn'
S'left'
S''
tp3180
aa(lp3181
(S'turn'
S''
S''
tp3182
a(S'verify'
S'front'
S' yellow hallway'
tp3183
aa(lp3184
(S'travel'
S'steps'
S' 1'
tp3185
a(S'verify'
S'side'
S' brick hallway'
tp3186
aa(lp3187
(S'travel'
S'steps'
S' 1'
tp3188
a(S'verify'
S'side'
S' brick hallway'
tp3189
aa(lp3190
(S'turn'
S''
S''
tp3191
a(S'verify'
S'front'
S' yellow hallway'
tp3192
a(S'travel'
S''
S''
tp3193
a(S'verify'
S'side'
S' wood hallway'
tp3194
aa(lp3195
(S'turn'
S'right'
S''
tp3196
aa(lp3197
(S'turn'
S''
S''
tp3198
a(S'verify'
S'front'
S' brick hallway'
tp3199
aa(lp3200
(S'verify'
S'front'
S' easel'
tp3201
a(S'travel'
S'steps'
S' 1'
tp3202
aa(lp3203
(S'turn'
S''
S''
tp3204
a(S'verify'
S'front'
S' hatrack'
tp3205
aa(lp3206
(S'travel'
S'steps'
S' 1'
tp3207
aa(lp3208
(S'travel'
S'steps'
S' 1'
tp3209
aa(lp3210
(S'verify'
S'front'
S' wood hallway'
tp3211
a(S'travel'
S''
S''
tp3212
a(S'verify'
S'side'
S' brick hallway'
tp3213
aa(lp3214
(S'turn'
S'right'
S''
tp3215
aa(lp3216
(S'travel'
S''
S''
tp3217
a(S'verify'
p3218
S'front'
S' wall'
tp3219
a(g3218
S'left'
S' wall'
tp3220
a(g3218
S'back'
S' grass hallway'
p3221
tp3222
a(g3218
S'right'
S' yellow hallway'
tp3223
a(g3218
S'back'
S' fish wall'
tp3224
a(g3218
S'right'
S' fish wall'
p3225
tp3226
aa(lp3227
(S'verify'
S'front'
S' wood hallway'
tp3228
aa(lp3229
(S'turn'
S'right'
S''
tp3230
a(S'travel'
S''
S''
tp3231
a(S'verify'
p3232
S'right'
S' wall'
tp3233
a(g3232
S'left'
S' wall'
tp3234
a(g3232
S'front'
S' wall'
tp3235
aa(lp3236
(S'turn'
S''
S''
tp3237
a(S'verify'
S'front'
S' lamp'
tp3238
aa(lp3239
(S'turn'
S''
S''
tp3240
a(S'verify'
S'front'
S' lamp'
tp3241
a(S'travel'
S'steps'
S' 1'
tp3242
aa(lp3243
(S'travel'
S''
S''
tp3244
a(S'verify'
p3245
S'front'
S' wall'
tp3246
a(g3245
S'right'
S' wall'
tp3247
aa(lp3248
(S'travel'
S'steps'
S' 1'
tp3249
aa(lp3250
(S'travel'
S''
S''
tp3251
a(S'verify'
S'side'
S' hallway'
p3252
tp3253
aa(lp3254
(S'turn'
S'right'
S''
tp3255
a(S'travel'
S''
S''
tp3256
a(S'verify'
S'at'
S' hatrack'
tp3257
aa(lp3258
(S'verify'
S'left'
S' butterfly wall'
tp3259
aa(lp3260
(S'travel'
S''
S''
tp3261
a(S'verify'
p3262
S'front'
S' wall'
tp3263
a(g3262
S'left'
S' blue hallway'
tp3264
a(g3262
S'right'
S' blue hallway'
tp3265
aa(lp3266
(S'turn'
S'right'
S''
tp3267
aa(lp3268
(S'travel'
S'steps'
S' 3'
tp3269
aa(lp3270
(S'turn'
S'left'
S''
tp3271
a(S'travel'
S''
S''
tp3272
a(S'verify'
p3273
S'right'
S' wall'
tp3274
a(g3273
S'left'
S' wall'
tp3275
a(g3273
S'front'
S' wall'
tp3276
aa(lp3277
(S'turn'
S'right'
S''
tp3278
aa(lp3279
(S'travel'
S''
S''
tp3280
a(S'verify'
p3281
S'front'
S' wall'
tp3282
a(g3281
S'right'
S' wall'
tp3283
a(S'turn'
S'left'
S''
tp3284
aa(lp3285
(S'travel'
S'steps'
S' 2'
tp3286
aa(lp3287
(S'verify'
S'front'
S' gravel hallway'
tp3288
a(S'travel'
S''
S''
tp3289
a(S'verify'
S'side'
S' concrete hallway'
tp3290
aa(lp3291
(S'verify'
S'front'
S' gravel hallway'
tp3292
a(S'travel'
S'steps'
S' 1'
tp3293
a(S'verify'
S'side'
S' brick hallway'
tp3294
aa(lp3295
(S'travel'
S''
S''
tp3296
a(S'verify'
p3297
S'front'
S' hallway'
tp3298
a(g3297
S'back'
S' hallway'
tp3299
a(g3297
S'left'
S' hallway'
tp3300
aa(lp3301
(S'verify'
S'front'
S' yellow hallway'
tp3302
a(S'travel'
S'steps'
S' 2'
tp3303
aa(lp3304
(S'travel'
S''
S''
tp3305
a(S'verify'
S'at'
S' barstool'
tp3306
aa(lp3307
(S'travel'
S'steps'
S' 1'
tp3308
aa(lp3309
(S'turn'
S'right'
S''
tp3310
aa(lp3311
(S'verify'
S'side'
S' brick hallway'
tp3312
a(S'turn'
S'right'
S''
tp3313
aa(lp3314
(S'turn'
S'left'
S''
tp3315
aa(lp3316
(S'travel'
S''
S''
tp3317
a(S'verify'
S'side'
S' yellow hallway'
tp3318
aa(lp3319
(S'travel'
S''
S''
tp3320
a(S'verify'
S'front'
S' hatrack'
tp3321
aa(lp3322
(S'travel'
S'steps'
S' 1'
tp3323
aa(lp3324
(S'turn'
S'left'
S''
tp3325
a(S'verify'
S'front'
S' blue hallway'
tp3326
aa(lp3327
(S'turn'
S''
S''
tp3328
a(S'verify'
S'front'
S' easel'
tp3329
aa(lp3330
(S'turn'
S'right'
S''
tp3331
aa(lp3332
(S'verify'
S'front'
S' blue hallway'
tp3333
a(S'travel'
S''
S''
tp3334
a(S'verify'
S'side'
S' gravel hallway'
tp3335
a(S'turn'
S'right'
S''
tp3336
a(S'verify'
S'front'
S' gravel hallway'
tp3337
aa(lp3338
(S'travel'
S'steps'
S' 2'
tp3339
a(S'verify'
S'side'
S' yellow hallway'
tp3340
aa(lp3341
(S'turn'
S'right'
S''
tp3342
aa(lp3343
(S'travel'
S'steps'
S' 1'
tp3344
aa(lp3345
(S'turn'
S''
S''
tp3346
a(S'verify'
S'front'
S' hatrack'
tp3347
aa(lp3348
(S'turn'
S'left'
S''
tp3349
a(S'verify'
S'front'
S' brick hallway'
tp3350
aa(lp3351
(S'verify'
S'at'
S' lamp'
tp3352
aa(lp3353
(S'travel'
S'steps'
S' 1'
tp3354
a(S'turn'
S'left'
S''
tp3355
aa(lp3356
(S'turn'
S''
S''
tp3357
a(S'verify'
S'front'
S' grass hallway'
tp3358
a(S'travel'
S'steps'
S' 3'
tp3359
a(S'verify'
S'side'
S' blue hallway'
tp3360
aa(lp3361
(S'verify'
S'side'
S' yellow hallway'
tp3362
aa(lp3363
(S'travel'
S'steps'
S' 1'
tp3364
a(S'verify'
S'side'
S' concrete hallway'
tp3365
aa(lp3366
(S'turn'
S''
S''
tp3367
a(S'verify'
S'back'
S' easel'
tp3368
aa(lp3369
(S'turn'
S'left'
S''
tp3370
aa(lp3371
(S'travel'
S'steps'
S' 2'
tp3372
a(S'verify'
S'right'
S' flower hallway'
tp3373
aa(lp3374
(S'travel'
S'steps'
S' 1'
tp3375
aa(lp3376
(S'verify'
p3377
S'at'
S' chair'
tp3378
a(g3377
S'front'
S' wall'
tp3379
a(S'turn'
S'right'
S''
tp3380
aa(lp3381
(S'travel'
S''
S''
tp3382
aa(lp3383
(S'turn'
S'left'
S''
tp3384
a(S'travel'
S''
S''
tp3385
a(S'verify'
S'at'
S' sofa'
tp3386
aa(lp3387
(S'travel'
S''
S''
tp3388
a(S'verify'
S'front'
S' flower hallway'
tp3389
aa(lp3390
(S'turn'
S'left'
S''
tp3391
a(S'travel'
S''
S''
tp3392
a(S'verify'
S'at'
S' easel'
tp3393
aa(lp3394
(S'verify'
S'at'
S' hatrack'
tp3395
a(S'turn'
S'left'
S''
tp3396
a(S'travel'
S''
S''
tp3397
a(S'verify'
p3398
S'front'
S' wall'
tp3399
a(g3398
S'left'
S' wall'
tp3400
aa(lp3401
(S'travel'
S'steps'
S' 1'
tp3402
aa(lp3403
(S'turn'
S'right'
S''
tp3404
aa(lp3405
(S'travel'
S''
S''
tp3406
a(S'verify'
S'at'
S' chair'
tp3407
a(S'travel'
S'steps'
S' 1'
tp3408
aa(lp3409
(S'turn'
S'right'
S''
tp3410
a(S'verify'
S'front'
S' blue hallway'
tp3411
aa(lp3412
(S'turn'
S'left'
S''
tp3413
aa(lp3414
(S'travel'
S'steps'
S' 1'
tp3415
aa(lp3416
(S'verify'
p3417
S'front'
S' blue hallway'
tp3418
a(g3417
S'side'
S' wood hallway'
tp3419
aa(lp3420
(S'turn'
S'left'
S''
tp3421
aa(lp3422
(S'travel'
S''
S''
tp3423
a(S'verify'
p3424
S'front'
S' yellow hallway'
tp3425
a(g3424
S'side'
S' gravel hallway'
tp3426
a(g3424
S'at'
S' easel'
tp3427
aa(lp3428
(S'verify'
S'at'
S' hatrack'
tp3429
aa(lp3430
(S'travel'
S''
S''
tp3431
a(S'verify'
S'front'
S' wall'
tp3432
aa(lp3433
(S'travel'
S'steps'
S' 1'
tp3434
aa(lp3435
(S'turn'
S'left'
S''
tp3436
aa(lp3437
(S'turn'
S'left'
S''
tp3438
aa(lp3439
(S'travel'
S''
S''
tp3440
a(S'verify'
S'front'
S' fish wall'
tp3441
aa(lp3442
(S'travel'
S''
S''
tp3443
a(S'verify'
S'at'
S' easel'
tp3444
a(S'turn'
S'left'
S''
tp3445
aa(lp3446
(S'travel'
S'steps'
S' 1'
tp3447
a(S'verify'
S'side'
S' blue hallway'
tp3448
aa(lp3449
(S'travel'
S'steps'
S' 1'
tp3450
aa(lp3451
(S'verify'
p3452
S'front'
S' wood hallway'
tp3453
a(g3452
S'front'
S' lamp'
tp3454
a(S'travel'
S'steps'
S' 2'
tp3455
a(S'verify'
p3456
S'back'
S' lamp'
p3457
tp3458
a(g3456
S'at'
S' chair'
tp3459
a(g3456
S'side'
S' blue hallway'
tp3460
aa(lp3461
(S'turn'
S''
S''
tp3462
a(S'verify'
S'front'
S' gravel hallway'
tp3463
aa(lp3464
(S'travel'
S'steps'
S' 1'
tp3465
aa(lp3466
(S'verify'
S'back'
S' blue hallway'
tp3467
aa(lp3468
(S'travel'
S'steps'
S' 1'
tp3469
aa(lp3470
(S'verify'
S'left'
S' grass hallway'
p3471
tp3472
aa(lp3473
(S'travel'
S'steps'
S' 1'
tp3474
aa(lp3475
(S'travel'
S''
S''
tp3476
a(S'verify'
S'side'
S' brick hallway'
tp3477
a(S'turn'
S'right'
S''
tp3478
aa(lp3479
(S'turn'
S''
S''
tp3480
a(S'verify'
S'front'
S' lamp'
tp3481
a(S'travel'
S''
S''
tp3482
a(S'verify'
S'at'
S' lamp'
tp3483
aa(lp3484
(S'turn'
S''
S''
tp3485
aa(lp3486
(S'travel'
S''
S''
tp3487
a(S'verify'
S'side'
S' flower hallway'
tp3488
aa(lp3489
(S'verify'
S'front'
S' hatrack'
tp3490
aa(lp3491
(S'travel'
S''
S''
tp3492
a(S'verify'
S'front'
S' wall'
tp3493
a(S'turn'
S'left'
S''
tp3494
a(S'verify'
S'front'
S' easel'
tp3495
aa(lp3496
(S'turn'
S'right'
S''
tp3497
aa(lp3498
(S'travel'
S'steps'
S' 1'
tp3499
a(S'verify'
S'side'
S' concrete hallway'
tp3500
aa(lp3501
(S'verify'
S'right'
S' blue hallway'
tp3502
aa(lp3503
(S'travel'
S''
S''
tp3504
a(S'verify'
S'side'
S' flower hallway'
tp3505
aa(lp3506
(S'turn'
S''
S''
tp3507
a(S'verify'
S'front'
S' grass hallway'
tp3508
a(S'travel'
S''
S''
tp3509
a(S'verify'
S'side'
S' yellow hallway'
tp3510
aa(lp3511
(S'travel'
S''
S''
tp3512
aa(lp3513
(S'turn'
S''
S''
tp3514
a(S'verify'
S'right'
S' wall'
tp3515
aa(lp3516
(S'turn'
S'left'
S''
tp3517
aa(lp3518
(S'travel'
S'steps'
S' 1'
tp3519
aa(lp3520
(S'verify'
p3521
S'front'
S' gravel hallway'
tp3522
a(g3521
S'back'
S' easel'
tp3523
aa(lp3524
(S'turn'
S'right'
S''
tp3525
a(S'verify'
S'front'
S' brick hallway'
tp3526
a(S'travel'
S''
S''
tp3527
a(S'verify'
S'side'
S' gravel hallway'
tp3528
aa(lp3529
(S'travel'
S''
S''
tp3530
a(S'verify'
S'side'
S' brick hallway'
tp3531
a(S'turn'
S'left'
S''
tp3532
aa(lp3533
(S'travel'
S'steps'
S' 1'
tp3534
a(S'verify'
S'side'
S' blue hallway'
tp3535
aa(lp3536
(S'turn'
S''
S''
tp3537
a(S'verify'
p3538
S'back'
S' wall'
tp3539
a(g3538
S'at'
S' 3-intersection'
tp3540
aa(lp3541
(S'turn'
S'left'
S''
tp3542
aa(lp3543
(S'verify'
S'front'
S' blue hallway'
tp3544
aa(lp3545
(S'turn'
S'left'
S''
tp3546
aa(lp3547
(S'travel'
S'steps'
S' 1'
tp3548
a(S'verify'
S'side'
S' concrete hallway'
tp3549
aa(lp3550
(S'turn'
S''
S''
tp3551
a(S'verify'
S'front'
S' easel'
tp3552
aa(lp3553
(S'verify'
S'left'
S' concrete hallway'
tp3554
aa(lp3555
(S'travel'
S'steps'
S' 2'
tp3556
aa(lp3557
(S'turn'
S'left'
S''
tp3558
aa(lp3559
(S'turn'
S''
S''
tp3560
a(S'verify'
S'front'
S' yellow hallway'
tp3561
aa(lp3562
(S'verify'
S'side'
S' gravel hallway'
tp3563
a(S'turn'
S'right'
S''
tp3564
aa(lp3565
(S'travel'
S''
S''
tp3566
a(S'verify'
S'side'
S' blue hallway'
tp3567
a(S'turn'
S'right'
S''
tp3568
a(S'verify'
S'front'
S' blue hallway'
tp3569
a(S'travel'
S''
S''
tp3570
a(S'verify'
S'front'
S' wall'
tp3571
aa(lp3572
(S'travel'
S''
S''
tp3573
a(S'verify'
p3574
S'front'
S' wall'
tp3575
a(g3574
S'left'
S' hallway'
tp3576
a(g3574
S'right'
S' hallway'
tp3577
aa(lp3578
(S'travel'
S''
S''
tp3579
a(S'verify'
p3580
S'front'
S' butterfly wall'
tp3581
a(g3580
S'back'
S' butterfly wall'
p3582
tp3583
aa(lp3584
(S'turn'
S'right'
S''
tp3585
a(S'verify'
S'front'
S' flower hallway'
tp3586
aa(lp3587
(S'travel'
S'steps'
S' 1'
tp3588
a(S'verify'
S'side'
S' brick hallway'
tp3589
aa(lp3590
(S'verify'
S'side'
S' blue hallway'
tp3591
a(S'turn'
S'left'
S''
tp3592
a(S'verify'
S'front'
S' hatrack'
tp3593
aa(lp3594
(S'travel'
S''
S''
tp3595
a(S'verify'
S'at'
S' barstool'
tp3596
aa(lp3597
(S'travel'
S'steps'
S' 3'
tp3598
a(S'verify'
S'side'
S' yellow hallway'
tp3599
aa(lp3600
(S'verify'
S'at'
S' hatrack'
tp3601
aa(lp3602
(S'verify'
S'front'
S' gravel hallway'
tp3603
a(S'travel'
S''
S''
tp3604
a(S'verify'
S'front'
S' wall'
tp3605
aa(lp3606
(S'travel'
S''
S''
tp3607
a(S'verify'
p3608
S'front'
S' blue hallway'
tp3609
a(g3608
S'back'
S' blue hallway'
tp3610
aa(lp3611
(S'turn'
S'left'
S''
tp3612
aa(lp3613
(S'turn'
S'right'
S''
tp3614
aa(lp3615
(S'turn'
S'right'
S''
tp3616
aa(lp3617
(S'travel'
S''
S''
tp3618
a(S'turn'
S''
S''
tp3619
a(S'verify'
S'front'
S' wood hallway'
tp3620
aa(lp3621
(S'travel'
S'steps'
S' 2'
tp3622
a(S'verify'
S'side'
S' blue hallway'
tp3623
aa(lp3624
(S'travel'
S''
S''
tp3625
a(S'verify'
S'front'
S' wall'
tp3626
aa(lp3627
(S'turn'
S'right'
S''
tp3628
a(S'verify'
S'front'
S' flower hallway'
tp3629
aa(lp3630
(S'verify'
S'front'
S' easel'
tp3631
a(S'travel'
S'steps'
S' 2'
tp3632
a(S'verify'
p3633
S'back'
S' easel'
tp3634
a(g3633
S'side'
S' brick hallway'
tp3635
aa(lp3636
(S'travel'
S'steps'
S' 1'
tp3637
a(S'verify'
S'front'
S' wall'
tp3638
aa(lp3639
(S'travel'
S''
S''
tp3640
a(S'verify'
S'at'
S' hatrack'
tp3641
a(S'turn'
S'left'
S''
tp3642
a(S'verify'
S'front'
S' yellow hallway'
tp3643
aa(lp3644
(S'turn'
S''
S''
tp3645
a(S'verify'
p3646
S'back'
S' wall'
tp3647
a(g3646
S'front'
S' yellow hallway'
tp3648
a(S'travel'
S'steps'
S' 1'
tp3649
aa(lp3650
(S'verify'
S'right'
S' grass hallway'
tp3651
aa(lp3652
(S'turn'
S'left'
S''
tp3653
a(S'travel'
S'steps'
S' 1'
tp3654
aa(lp3655
(S'turn'
S'left'
S''
tp3656
aa(lp3657
(S'travel'
S''
S''
tp3658
a(S'verify'
p3659
S'front'
S' concrete hallway'
tp3660
a(g3659
S'side'
S' gravel hallway'
tp3661
aa(lp3662
(S'turn'
S''
S''
tp3663
a(S'verify'
p3664
S'back'
S' sofa'
tp3665
a(g3664
S'front'
S' barstool'
tp3666
aa(lp3667
(S'turn'
S'right'
S''
tp3668
aa(lp3669
(S'travel'
S'steps'
S' 3'
tp3670
aa(lp3671
(S'travel'
S'steps'
S' 6'
p3672
tp3673
aa(lp3674
(S'travel'
S'steps'
S' 4'
tp3675
aa(lp3676
(S'turn'
S''
S''
tp3677
a(S'verify'
p3678
S'back'
S' wall'
tp3679
a(g3678
S'right'
S' wall'
tp3680
a(g3678
S'left'
S' wall'
tp3681
a(S'travel'
S'steps'
S' 1'
tp3682
aa(lp3683
(S'travel'
S''
S''
tp3684
a(S'verify'
S'side'
S' concrete hallway'
tp3685
aa(lp3686
(S'travel'
S''
S''
tp3687
a(S'verify'
p3688
S'front'
S' wall'
tp3689
a(g3688
S'left'
S' wall'
tp3690
a(g3688
S'right'
S' wall'
tp3691
aa(lp3692
(S'verify'
S'front'
S' wood hallway'
tp3693
aa(lp3694
(S'travel'
S'steps'
S' 1'
tp3695
aa(lp3696
(S'travel'
S'steps'
S' 1'
tp3697
aa(lp3698
(S'travel'
S''
S''
tp3699
a(S'verify'
S'front'
S' wall'
tp3700
aa(lp3701
(S'verify'
S'front'
S' gravel hallway'
tp3702
a(S'travel'
S''
S''
tp3703
aa(lp3704
(S'travel'
S'steps'
S' 1'
tp3705
a(S'verify'
S'at'
S' barstool'
tp3706
aa(lp3707
(S'travel'
S''
S''
tp3708
a(S'verify'
S'front'
S' blue hallway'
tp3709
aa(lp3710
(S'travel'
S'steps'
S' 1'
tp3711
aa(lp3712
(S'turn'
S''
S''
tp3713
a(S'verify'
S'front'
S' sofa'
tp3714
aa(lp3715
(S'turn'
S'right'
S''
tp3716
aa(lp3717
(S'verify'
p3718
S'at'
S' barstool'
tp3719
a(g3718
S'front'
S' gravel hallway'
tp3720
a(g3718
S'back'
S' gravel hallway'
tp3721
aa(lp3722
(S'turn'
S''
S''
tp3723
a(S'verify'
S'front'
S' grass hallway'
tp3724
a(S'travel'
S'steps'
S' 2'
tp3725
a(S'verify'
S'at'
S' hatrack'
tp3726
aa(lp3727
(S'turn'
S''
S''
tp3728
a(S'verify'
p3729
S'front'
S' blue hallway'
tp3730
a(g3729
S'front'
S' chair'
tp3731
a(S'travel'
S''
S''
tp3732
a(S'verify'
S'front'
S' wall'
tp3733
aa(lp3734
(S'travel'
S''
S''
tp3735
a(S'verify'
S'at'
S' easel'
tp3736
a(S'turn'
S'right'
S''
tp3737
a(S'verify'
S'front'
S' wood hallway'
tp3738
aa(lp3739
(S'turn'
S''
S''
tp3740
a(S'verify'
p3741
S'front'
S' butterfly wall'
tp3742
a(g3741
S'front'
S' blue hallway'
tp3743
a(S'travel'
S''
S''
tp3744
aa(lp3745
(S'travel'
S''
S''
tp3746
a(S'turn'
S''
S''
tp3747
a(S'travel'
S''
S''
tp3748
a(S'turn'
S''
S''
tp3749
a(S'travel'
S''
S''
tp3750
a(S'turn'
S''
S''
tp3751
aa(lp3752
(S'turn'
S'left'
S''
tp3753
aa(lp3754
(S'travel'
S''
S''
tp3755
a(S'verify'
p3756
S'front'
S' brick hallway'
tp3757
a(g3756
S'back'
S' brick hallway'
tp3758
aa(lp3759
(S'verify'
S'front'
S' blue hallway'
tp3760
a(S'travel'
S'steps'
S' 2'
tp3761
a(S'verify'
S'side'
S' gravel hallway'
tp3762
aa(lp3763
(S'travel'
S''
S''
tp3764
aa(lp3765
(S'turn'
S'left'
S''
tp3766
aa(lp3767
(S'verify'
S'at'
S' easel'
tp3768
aa(lp3769
(S'travel'
S'steps'
S' 1'
tp3770
aa(lp3771
(S'travel'
S'steps'
S' 1'
tp3772
aa(lp3773
(S'travel'
S''
S''
tp3774
a(S'turn'
S'right'
S''
tp3775
aa(lp3776
(S'turn'
S'left'
S''
tp3777
aa(lp3778
(S'turn'
S'left'
S''
tp3779
aa(lp3780
(S'verify'
p3781
S'front'
S' chair'
tp3782
a(g3781
S'front'
S' wood hallway'
tp3783
aa(lp3784
(S'turn'
S''
S''
tp3785
a(S'verify'
S'front'
S' grass hallway'
tp3786
aa(lp3787
(S'turn'
S'left'
S''
tp3788
aa(lp3789
(S'verify'
p3790
S'front'
S' brick hallway'
tp3791
a(g3790
S'front'
S' lamp'
p3792
tp3793
a(S'travel'
S''
S''
tp3794
a(S'verify'
S'at'
S' lamp'
p3795
tp3796
a(S'travel'
S'steps'
S' 2'
tp3797
aa(lp3798
(S'turn'
S''
S''
tp3799
a(S'verify'
S'front'
S' lamp'
tp3800
a(S'travel'
S''
S''
tp3801
a(S'verify'
S'at'
S' lamp'
tp3802
aa(lp3803
(S'turn'
S''
S''
tp3804
a(S'verify'
p3805
S'front'
S' chair'
tp3806
a(g3805
S'front'
S' blue hallway'
tp3807
aa(lp3808
(S'turn'
S''
S''
tp3809
a(S'verify'
S'front'
S' yellow hallway'
tp3810
aa(lp3811
(S'travel'
S'steps'
S' 1'
tp3812
aa(lp3813
(S'turn'
S'left'
S''
tp3814
a(S'travel'
S'steps'
S' 1'
tp3815
aa(lp3816
(S'turn'
S''
S''
tp3817
a(S'verify'
S'left'
S' wall'
tp3818
aa(lp3819
(S'travel'
S''
S''
tp3820
a(S'verify'
p3821
S'front'
S' hallway'
tp3822
a(g3821
S'back'
S' hallway'
tp3823
aa(lp3824
(S'turn'
S'left'
S''
tp3825
aa(lp3826
(S'travel'
S''
S''
tp3827
a(S'verify'
S'at'
S' chair'
tp3828
a(S'travel'
S'steps'
S' 1'
tp3829
aa(lp3830
(S'turn'
S'right'
S''
tp3831
a(S'verify'
S'front'
S' easel'
tp3832
a(S'travel'
S''
S''
tp3833
a(S'verify'
p3834
S'side'
S' blue hallway'
tp3835
a(g3834
S'back'
S' easel'
tp3836
aa(lp3837
(S'travel'
S'steps'
S' 3'
tp3838
a(S'verify'
p3839
S'front'
S' grass hallway'
tp3840
a(g3839
S'side'
S' yellow hallway'
tp3841
aa(lp3842
(S'travel'
S''
S''
tp3843
a(S'verify'
S'front'
S' wall'
tp3844
aa(lp3845
(g155
S''
S''
tp3846
aa(lp3847
(S'turn'
S''
S''
tp3848
a(S'verify'
S'front'
S' chair'
tp3849
a(S'travel'
S''
S''
tp3850
a(S'verify'
S'back'
S' chair'
tp3851
aa(lp3852
(S'verify'
S'at'
S' easel'
tp3853
aa(lp3854
(S'travel'
S'steps'
S' 1'
tp3855
a(S'verify'
S'side'
S' wood hallway'
tp3856
aa(lp3857
(S'verify'
S'front'
S' blue hallway'
tp3858
a(S'travel'
S''
S''
tp3859
a(S'verify'
p3860
S'side'
S' grass hallway'
tp3861
a(g3860
S'front'
S' wall'
tp3862
aa(lp3863
(S'verify'
S'front'
S' gravel hallway'
tp3864
aa(lp3865
(S'travel'
S''
S''
tp3866
a(S'verify'
S'at'
S' sofa'
tp3867
aa(lp3868
(S'travel'
S'steps'
S' 3'
tp3869
a(S'verify'
S'side'
S' flower hallway'
tp3870
aa(lp3871
(S'travel'
S'steps'
S' 1'
tp3872
a(S'verify'
S'side'
S' gravel hallway'
tp3873
aa(lp3874
(S'verify'
p3875
S'back'
S' wall'
tp3876
a(g3875
S'at'
S' 3-intersection'
tp3877
a(S'travel'
S'steps'
S' 1'
tp3878
a(S'verify'
S'side'
S' wood hallway'
tp3879
aa(lp3880
(S'travel'
S''
S''
tp3881
a(S'verify'
p3882
S'front'
S' wall'
tp3883
a(g3882
S'back'
S' fish wall'
tp3884
aa(lp3885
(S'turn'
S''
S''
tp3886
a(S'verify'
S'back'
S' wall'
tp3887
a(S'turn'
S'right'
S''
tp3888
aa(lp3889
(S'verify'
p3890
S'right'
S' sofa'
tp3891
a(g3890
S'right'
S' concrete hallway'
tp3892
aa(lp3893
(S'travel'
S''
S''
tp3894
aa(lp3895
(S'turn'
S'right'
S''
tp3896
aa(lp3897
(S'travel'
S'steps'
S' 1'
tp3898
a(S'verify'
S'side'
S' brick hallway'
tp3899
aa(lp3900
(S'turn'
S'left'
S''
tp3901
a(S'verify'
S'front'
S' flower hallway'
tp3902
aa(lp3903
(S'travel'
S''
S''
tp3904
a(S'verify'
S'front'
S' blue hallway'
tp3905
aa(lp3906
(S'turn'
S''
S''
tp3907
a(S'verify'
S'back'
S' wall'
tp3908
aa(lp3909
(S'travel'
S''
S''
tp3910
a(S'verify'
S'side'
S' blue hallway'
tp3911
aa(lp3912
(S'turn'
S'right'
S''
tp3913
aa(lp3914
(S'verify'
S'front'
S' easel'
tp3915
a(S'travel'
S''
S''
tp3916
a(S'verify'
p3917
S'back'
S' easel'
tp3918
a(g3917
S'front'
S' wall'
tp3919
a(g3917
S'left'
S' wall'
tp3920
a(S'turn'
S'right'
S''
tp3921
a(S'verify'
S'front'
S' blue hallway'
tp3922
aa(lp3923
(S'travel'
S'steps'
S' 1'
tp3924
aa(lp3925
(S'turn'
S''
S''
tp3926
a(S'verify'
S'front'
S' hatrack'
tp3927
a(S'travel'
S''
S''
tp3928
a(S'verify'
S'at'
S' hatrack'
tp3929
aa(lp3930
(S'travel'
S'steps'
S' 1'
tp3931
aa(lp3932
(S'verify'
S'front'
S' grass hallway'
tp3933
a(S'travel'
S''
S''
tp3934
a(S'verify'
S'side'
S' yellow hallway'
tp3935
aa(lp3936
(S'travel'
S'steps'
S' 3'
tp3937
aa(lp3938
(S'turn'
S''
S''
tp3939
a(S'verify'
p3940
S'right'
S' wall'
tp3941
a(g3940
S'left'
S' wall'
tp3942
a(g3940
S'back'
S' wall'
tp3943
a(S'travel'
S''
S''
tp3944
aa(lp3945
(S'turn'
S'left'
S''
tp3946
aa(lp3947
(S'verify'
S'side'
S' brick hallway'
tp3948
aa(lp3949
(S'turn'
S''
S''
tp3950
a(S'verify'
p3951
S'back'
S' wall'
tp3952
a(g3951
S'left'
S' wall'
tp3953
a(g3951
S'right'
S' wall'
tp3954
aa(lp3955
(S'travel'
S''
S''
tp3956
a(S'verify'
S'left'
S' hallway'
p3957
tp3958
a(S'turn'
S'left'
S''
tp3959
aa(lp3960
(S'travel'
S'steps'
S' 2'
tp3961
aa(lp3962
(S'turn'
S'left'
S''
tp3963
aa(lp3964
(S'turn'
S'right'
S''
tp3965
aa(lp3966
(S'travel'
S''
S''
tp3967
a(S'verify'
p3968
S'at'
S' easel'
tp3969
a(g3968
S'front'
S' wall'
tp3970
aa(lp3971
(S'travel'
S''
S''
tp3972
a(S'verify'
S'front'
S' wall'
tp3973
aa(lp3974
(S'verify'
S'front'
S' blue hallway'
tp3975
a(S'travel'
S''
S''
tp3976
a(S'verify'
S'at'
S' chair'
tp3977
a(S'turn'
S'right'
S''
tp3978
aa(lp3979
(S'turn'
S'right'
S''
tp3980
aa(lp3981
(S'turn'
S''
S''
tp3982
a(S'verify'
S'front'
S' flower hallway'
tp3983
a(S'travel'
S''
S''
tp3984
a(S'verify'
S'side'
S' brick hallway'
tp3985
aa(lp3986
(S'turn'
S'left'
S''
tp3987
aa(lp3988
(S'travel'
S'steps'
S' 2'
tp3989
a(S'verify'
S'side'
S' brick hallway'
tp3990
aa(lp3991
(S'travel'
S''
S''
tp3992
a(S'verify'
S'side'
S' wood hallway'
tp3993
a(S'turn'
S''
S''
tp3994
a(S'verify'
p3995
S'front'
S' wood hallway'
tp3996
a(g3995
S'front'
S' tower wall'
tp3997
aa(lp3998
(S'travel'
S''
S''
tp3999
a(S'verify'
S'side'
S' wood hallway'
tp4000
aa(lp4001
(S'travel'
S''
S''
tp4002
a(S'verify'
S'side'
S' yellow hallway'
tp4003
aa(lp4004
(S'turn'
S''
S''
tp4005
a(S'verify'
S'front'
S' grass hallway'
tp4006
aa(lp4007
(S'turn'
S'right'
S''
tp4008
aa(lp4009
(S'travel'
S'steps'
S' 2'
tp4010
aa(lp4011
(S'turn'
S''
S''
tp4012
a(S'travel'
S'steps'
S' 1'
tp4013
aa(lp4014
(g155
S''
S''
tp4015
aa(lp4016
(S'turn'
S'right'
S''
tp4017
aa(lp4018
(S'verify'
p4019
S'front'
S' wall'
tp4020
a(g4019
S'left'
S' brick hallway'
tp4021
a(g4019
S'right'
S' brick hallway'
tp4022
aa(lp4023
(S'verify'
p4024
S'front'
S' hatrack'
tp4025
a(g4024
S'front'
S' lamp'
tp4026
a(S'travel'
S''
S''
tp4027
a(S'verify'
p4028
S'back'
S' hatrack'
tp4029
a(g4028
S'back'
S' lamp'
tp4030
aa(lp4031
(S'verify'
S'right'
S' concrete hallway'
tp4032
aa(lp4033
(S'travel'
S'steps'
S' 1'
tp4034
aa(lp4035
(S'travel'
S''
S''
tp4036
a(S'turn'
S''
S''
tp4037
a(S'travel'
S''
S''
tp4038
a(S'turn'
S''
S''
tp4039
a(S'travel'
S''
S''
tp4040
a(S'turn'
S''
S''
tp4041
aa(lp4042
(S'turn'
S'left'
S''
tp4043
a(S'travel'
S'steps'
S' 4'
tp4044
aa(lp4045
(S'turn'
S'right'
S''
tp4046
a(S'verify'
S'front'
S' blue hallway'
tp4047
a(S'travel'
S'steps'
S' 2'
tp4048
aa(lp4049
(S'travel'
S''
S''
tp4050
a(S'verify'
p4051
S'left'
S' wall'
tp4052
a(g4051
S'front'
S' wall'
tp4053
a(S'turn'
S'right'
S''
tp4054
aa(lp4055
(S'turn'
S'right'
S''
tp4056
aa(lp4057
(S'turn'
S'left'
S''
tp4058
a(S'travel'
S''
S''
tp4059
a(S'verify'
S'front'
S' wall'
tp4060
aa(lp4061
(S'turn'
S''
S''
tp4062
a(S'verify'
S'front'
S' brick hallway'
tp4063
aa(lp4064
(S'verify'
S'front'
S' brick hallway'
tp4065
a(S'travel'
S''
S''
tp4066
a(S'verify'
S'at'
S' hatrack'
tp4067
a(S'travel'
S'steps'
S' 1'
tp4068
aa(lp4069
(S'turn'
S''
S''
tp4070
a(S'verify'
p4071
S'back'
S' wall'
tp4072
a(g4071
S'at'
S' 3-intersection'
tp4073
aa(lp4074
(S'turn'
S'left'
S''
tp4075
aa(lp4076
(S'turn'
S'left'
S''
tp4077
aa(lp4078
(S'travel'
S''
S''
tp4079
a(S'verify'
S'at'
S' sofa'
tp4080
aa(lp4081
(S'travel'
S''
S''
tp4082
a(S'verify'
S'front'
S' wall'
tp4083
a(S'turn'
S'left'
S''
tp4084
a(S'verify'
S'front'
S' lamp'
tp4085
a(S'travel'
S''
S''
tp4086
a(S'verify'
S'at'
S' lamp'
tp4087
a(S'turn'
S'right'
S''
tp4088
aa(lp4089
(S'verify'
S'front'
S' fish wall'
tp4090
a(S'travel'
S''
S''
tp4091
a(S'verify'
p4092
S'front'
S' wall'
tp4093
a(g4092
S'left'
S' wall'
tp4094
a(g4092
S'right'
S' wall'
tp4095
aa(lp4096
(S'turn'
S'left'
S''
tp4097
aa(lp4098
(S'travel'
S''
S''
tp4099
a(S'verify'
p4100
S'front'
S' wood hallway'
tp4101
a(g4100
S'back'
S' wood hallway'
tp4102
a(g4100
S'front'
S' butterfly wall'
tp4103
a(g4100
S'back'
S' butterfly wall'
tp4104
aa(lp4105
(S'turn'
S'right'
S''
tp4106
aa(lp4107
(S'travel'
S''
S''
tp4108
a(S'verify'
S'at'
S' hatrack'
tp4109
a(S'turn'
S'right'
S''
tp4110
aa(lp4111
(S'verify'
S'left'
S' chair'
tp4112
aa(lp4113
(S'verify'
S'right'
S' barstool'
p4114
tp4115
aa(lp4116
(S'turn'
S''
S''
tp4117
a(S'verify'
S'left'
S' wall'
tp4118
aa(lp4119
(S'travel'
S'steps'
S' 1'
tp4120
aa(lp4121
(S'travel'
S'steps'
S' 2'
tp4122
a(S'verify'
S'at'
S' hatrack'
tp4123
aa(lp4124
(S'travel'
S'steps'
S' 2'
tp4125
aa(lp4126
(S'turn'
S'left'
S''
tp4127
aa(lp4128
(S'travel'
S''
S''
tp4129
a(S'verify'
S'at'
S' easel'
tp4130
aa(lp4131
(S'travel'
S'steps'
S' 1'
tp4132
aa(lp4133
(S'travel'
S''
S''
tp4134
a(S'verify'
p4135
S'front'
S' wall'
tp4136
a(g4135
S'left'
S' wall'
tp4137
a(S'turn'
S'right'
S''
tp4138
aa(lp4139
(S'turn'
S'left'
S''
tp4140
aa(lp4141
(S'verify'
p4142
S'front'
S' brick hallway'
tp4143
a(g4142
S'front'
S' lamp'
tp4144
a(S'travel'
S''
S''
tp4145
a(S'verify'
S'back'
S' lamp'
tp4146
aa(lp4147
(S'turn'
S''
S''
tp4148
a(S'verify'
p4149
S'back'
S' wall'
tp4150
a(g4149
S'front'
S' yellow hallway'
tp4151
a(S'travel'
S'steps'
S' 2'
tp4152
a(S'verify'
S'side'
S' gravel hallway'
tp4153
aa(lp4154
(S'travel'
S''
S''
tp4155
a(S'verify'
S'at'
S' 4-intersection'
tp4156
aa(lp4157
(S'travel'
S''
S''
tp4158
a(S'verify'
S'side'
S' gravel hallway'
tp4159
aa(lp4160
(S'verify'
p4161
S'front'
S' hatrack'
tp4162
a(g4161
S'front'
S' lamp'
tp4163
a(S'travel'
S''
S''
tp4164
a(S'verify'
p4165
S'side'
S' wood hallway'
tp4166
a(g4165
S'back'
S' lamp'
tp4167
a(g4165
S'back'
S' hatrack'
tp4168
aa(lp4169
(S'verify'
S'left'
S' sofa'
tp4170
aa(lp4171
(S'travel'
S''
S''
tp4172
a(S'verify'
S'side'
S' concrete hallway'
tp4173
aa(lp4174
(S'travel'
S'steps'
S' 1'
tp4175
aa(lp4176
(S'turn'
S'left'
S''
tp4177
aa(lp4178
(S'travel'
S''
S''
tp4179
a(S'verify'
S'side'
S' flower hallway'
tp4180
aa(lp4181
(S'turn'
S'right'
S''
tp4182
aa(lp4183
(S'verify'
S'front'
S' blue hallway'
tp4184
aa(lp4185
(S'verify'
S'front'
S' chair'
tp4186
a(S'travel'
S'steps'
S' 2'
tp4187
a(S'verify'
p4188
S'back'
S' chair'
tp4189
a(g4188
S'at'
S' barstool'
tp4190
aa(lp4191
(S'turn'
S'left'
S''
tp4192
aa(lp4193
(S'turn'
S'right'
S''
tp4194
aa(lp4195
(S'travel'
S'steps'
S' 5'
tp4196
aa(lp4197
(S'turn'
S'left'
S''
tp4198
aa(lp4199
(S'travel'
S''
S''
tp4200
a(S'verify'
S'front'
S' wall'
tp4201
a(S'turn'
S'left'
S''
tp4202
a(S'verify'
S'front'
S' easel'
tp4203
aa(lp4204
(S'turn'
S''
S''
tp4205
a(S'verify'
S'front'
S' brick hallway'
tp4206
aa(lp4207
(S'turn'
S'right'
S''
tp4208
a(S'verify'
S'front'
S' brick hallway'
tp4209
aa(lp4210
(S'travel'
S'steps'
S' 1'
tp4211
a(S'verify'
p4212
S'side'
S' gravel hallway'
tp4213
a(g4212
S'front'
S' yellow hallway'
tp4214
aa(lp4215
(S'turn'
S''
S''
tp4216
a(S'verify'
p4217
S'front'
S' flower hallway'
tp4218
a(g4217
S'front'
S' fish wall'
tp4219
aa(lp4220
(S'turn'
S''
S''
tp4221
a(S'verify'
S'front'
S' yellow hallway'
p4222
tp4223
a(S'travel'
S''
S''
tp4224
a(S'verify'
S'front'
S' wall'
tp4225
aa(lp4226
(S'verify'
S'at'
S' barstool'
tp4227
aa(lp4228
(S'verify'
S'front'
S' wood hallway'
tp4229
aa(lp4230
(S'travel'
S''
S''
tp4231
a(S'verify'
S'at'
S' barstool'
tp4232
aa(lp4233
(S'travel'
S''
S''
tp4234
a(S'verify'
S'side'
S' flower hallway'
tp4235
a(S'turn'
S'left'
S''
tp4236
a(S'verify'
S'front'
S' flower hallway'
tp4237
aa(lp4238
(S'turn'
S''
S''
tp4239
a(S'verify'
S'back'
S' wall'
tp4240
a(S'turn'
S'left'
S''
tp4241
aa(lp4242
(S'verify'
S'at'
S' easel'
tp4243
aa(lp4244
(S'turn'
S''
S''
tp4245
a(S'verify'
S'front'
S' yellow hallway'
tp4246
aa(lp4247
(S'turn'
S''
S''
tp4248
a(S'verify'
S'back'
S' wall'
tp4249
a(S'turn'
S'right'
S''
tp4250
a(S'travel'
S''
S''
tp4251
a(S'verify'
p4252
S'front'
S' wall'
tp4253
a(g4252
S'left'
S' wall'
tp4254
aa(lp4255
(S'turn'
S'left'
S''
tp4256
aa(lp4257
(S'travel'
S''
S''
tp4258
a(S'verify'
S'left'
S' hallway'
tp4259
a(S'turn'
S'left'
S''
tp4260
aa(lp4261
(S'turn'
S'left'
S''
tp4262
aa(lp4263
(S'turn'
S'right'
S''
tp4264
aa(lp4265
(S'turn'
S'right'
S''
tp4266
aa(lp4267
(S'verify'
S'front'
S' sofa'
tp4268
a(S'travel'
S'steps'
S' 2'
tp4269
a(S'verify'
S'back'
S' sofa'
tp4270
aa(lp4271
(S'turn'
S''
S''
tp4272
a(S'verify'
S'front'
S' easel'
tp4273
aa(lp4274
(S'verify'
S'front'
S' barstool'
tp4275
a(S'travel'
S''
S''
tp4276
a(S'verify'
p4277
S'back'
S' barstool'
tp4278
a(g4277
S'front'
S' sofa'
tp4279
aa(lp4280
(S'verify'
S'front'
S' blue hallway'
tp4281
a(S'travel'
S''
S''
tp4282
a(S'verify'
p4283
S'front'
S' chair'
tp4284
a(g4283
S'back'
S' sofa'
tp4285
aa(lp4286
(S'travel'
S''
S''
tp4287
a(S'verify'
S'right'
S' hallway'
tp4288
a(S'turn'
S'right'
S''
tp4289
aa(lp4290
(S'travel'
S''
S''
tp4291
a(S'verify'
p4292
S'front'
S' wall'
tp4293
a(g4292
S'right'
S' wall'
tp4294
a(S'turn'
S'left'
S''
tp4295
aa(lp4296
(S'travel'
S''
S''
tp4297
a(S'verify'
S'front'
S' wall'
tp4298
a(S'turn'
S'left'
S''
tp4299
a(S'verify'
S'front'
S' easel'
tp4300
aa(lp4301
(S'turn'
S'left'
S''
tp4302
aa(lp4303
(S'travel'
S'steps'
S' 1'
tp4304
aa(lp4305
(S'verify'
p4306
S'at'
S' chair'
tp4307
a(g4306
S'front'
S' chair'
tp4308
a(S'travel'
S''
S''
tp4309
a(S'verify'
S'at'
S' chair'
tp4310
a(S'turn'
S''
S''
tp4311
a(S'verify'
S'front'
S' brick hallway'
tp4312
aa(lp4313
(S'travel'
S'steps'
S' 1'
tp4314
a(S'turn'
S'right'
S''
tp4315
aa(lp4316
(S'travel'
S''
S''
tp4317
a(S'verify'
S'front'
S' wall'
tp4318
a(S'turn'
S'left'
S''
tp4319
a(S'verify'
S'front'
S' easel'
tp4320
aa(lp4321
(S'verify'
S'front'
S' gravel hallway'
tp4322
a(S'travel'
S''
S''
tp4323
a(S'verify'
S'side'
S' brick hallway'
tp4324
aa(lp4325
(S'travel'
S'steps'
S' 3'
tp4326
aa(lp4327
(S'verify'
p4328
S'right'
S' brick hallway'
tp4329
a(g4328
S'left'
S' brick hallway'
tp4330
a(g4328
S'front'
S' chair'
tp4331
aa(lp4332
(S'turn'
S''
S''
tp4333
a(S'verify'
p4334
S'left'
S' blue hallway'
tp4335
a(g4334
S'right'
S' blue hallway'
tp4336
a(g4334
S'front'
S' hallway'
tp4337
a(g4334
S'back'
S' wall'
tp4338
aa(lp4339
(S'turn'
S'right'
S''
tp4340
aa(lp4341
(S'verify'
p4342
S'side'
S' concrete hallway'
tp4343
a(g4342
S'right'
S' sofa'
tp4344
aa(lp4345
(S'turn'
S''
S''
tp4346
a(S'verify'
S'back'
S' wall'
tp4347
aa(lp4348
(S'travel'
S''
S''
tp4349
a(S'verify'
p4350
S'front'
S' wall'
tp4351
a(g4350
S'side'
S' blue hallway'
tp4352
aa(lp4353
(S'travel'
S''
S''
tp4354
a(S'verify'
S'side'
S' blue hallway'
tp4355
aa(lp4356
(S'turn'
S'right'
S''
tp4357
aa(lp4358
(S'verify'
S'front'
S' yellow hallway'
tp4359
a(S'travel'
S'steps'
S' 3'
tp4360
a(S'verify'
S'front'
S' wall'
tp4361
aa(lp4362
(S'verify'
S'at'
S' hatrack'
tp4363
a(S'turn'
S'right'
S''
tp4364
a(S'verify'
p4365
S'front'
S' blue hallway'
tp4366
a(g4365
S'front'
S' chair'
tp4367
a(S'travel'
S''
S''
tp4368
a(S'verify'
p4369
S'back'
S' chair'
tp4370
a(g4369
S'side'
S' flower hallway'
tp4371
aa(lp4372
(S'turn'
S''
S''
tp4373
a(S'verify'
p4374
S'front'
S' yellow hallway'
tp4375
a(g4374
S'front'
S' sofa'
tp4376
a(S'travel'
S'steps'
S' 3'
tp4377
a(S'verify'
S'back'
S' sofa'
tp4378
aa(lp4379
(S'turn'
S'left'
S''
tp4380
a(S'travel'
S'steps'
S' 1'
tp4381
aa(lp4382
(S'travel'
S''
S''
tp4383
a(S'verify'
S'right'
S' hallway'
tp4384
a(S'turn'
S'right'
S''
tp4385
aa(lp4386
(S'turn'
S''
S''
tp4387
a(S'verify'
S'front'
S' fish wall'
tp4388
aa(lp4389
(S'travel'
S'steps'
S' 1'
tp4390
aa(lp4391
(S'turn'
S'left'
S''
tp4392
aa(lp4393
(S'turn'
S'left'
S''
tp4394
aa(lp4395
(S'travel'
S'steps'
S' 2'
tp4396
a(S'verify'
S'side'
S' yellow hallway'
tp4397
aa(lp4398
(S'turn'
S'left'
S''
tp4399
aa(lp4400
(S'turn'
S'right'
S''
tp4401
aa(lp4402
(S'turn'
S'right'
S''
tp4403
aa(lp4404
(g155
S''
S''
tp4405
aa(lp4406
(S'verify'
S'side'
S' gravel hallway'
tp4407
aa(lp4408
(S'travel'
S''
S''
tp4409
a(S'verify'
S'at'
S' sofa'
tp4410
aa(lp4411
(S'turn'
S''
S''
tp4412
a(S'verify'
S'front'
S' lamp'
tp4413
aa(lp4414
(S'verify'
S'at'
S' hatrack'
tp4415
aa(lp4416
(S'travel'
S'steps'
S' 1'
tp4417
a(S'verify'
S'side'
S' concrete hallway'
tp4418
aa(lp4419
(S'travel'
S'steps'
S' 1'
tp4420
aa(lp4421
(S'turn'
S'left'
S''
tp4422
aa(lp4423
(g155
S''
S''
tp4424
aa(lp4425
(S'travel'
S'steps'
S' 1'
tp4426
a(S'turn'
S'right'
S''
tp4427
a(S'travel'
S''
S''
tp4428
a(S'verify'
S'side'
S' brick hallway'
tp4429
aa(lp4430
(S'travel'
S''
S''
tp4431
a(S'verify'
S'side'
S' gravel hallway'
tp4432
a(S'turn'
S'right'
S''
tp4433
aa(lp4434
(S'turn'
S'left'
S''
tp4435
a(S'verify'
S'front'
S' brick hallway'
tp4436
a(S'travel'
S''
S''
tp4437
a(S'verify'
S'front'
S' butterfly wall'
tp4438
aa(lp4439
(S'verify'
S'at'
S' sofa'
tp4440
aa(lp4441
(S'travel'
S'steps'
S' 5'
tp4442
a(S'verify'
S'front'
S' wall'
tp4443
aa(lp4444
(S'verify'
S'side'
S' blue hallway'
tp4445
a(S'turn'
S'right'
S''
tp4446
aa(lp4447
(S'turn'
S''
S''
tp4448
a(S'verify'
S'front'
S' grass hallway'
tp4449
aa(lp4450
(S'travel'
S''
S''
tp4451
a(S'verify'
S'at'
S' hatrack'
tp4452
a(S'turn'
S'right'
S''
tp4453
a(S'verify'
S'front'
S' blue hallway'
tp4454
aa(lp4455
(S'turn'
S'left'
S''
tp4456
a(S'travel'
S'steps'
S' 1'
tp4457
aa(lp4458
(S'travel'
S'steps'
S' 1'
tp4459
aa(lp4460
(S'turn'
S'left'
S''
tp4461
a(S'verify'
p4462
S'front'
S' brick hallway'
tp4463
a(g4462
S'front'
S' lamp'
tp4464
a(S'travel'
S''
S''
tp4465
a(S'verify'
p4466
S'back'
S' lamp'
tp4467
a(g4466
S'side'
S' concrete hallway'
tp4468
aa(lp4469
(S'turn'
S''
S''
tp4470
a(S'verify'
S'back'
S' easel'
tp4471
a(S'travel'
S'steps'
S' 1'
tp4472
aa(lp4473
(S'travel'
S''
S''
tp4474
a(S'verify'
S'front'
S' wall'
tp4475
a(S'turn'
S'right'
S''
tp4476
aa(lp4477
(S'turn'
S'left'
S''
tp4478
a(S'verify'
p4479
S'front'
S' concrete hallway'
tp4480
a(g4479
S'front'
S' easel'
tp4481
a(S'travel'
S''
S''
tp4482
a(S'verify'
S'at'
S' easel'
tp4483
a(S'turn'
S'right'
S''
tp4484
a(S'verify'
S'front'
S' wood hallway'
tp4485
aa(lp4486
(g155
S''
S''
tp4487
aa(lp4488
(S'turn'
S'right'
S''
tp4489
aa(lp4490
(S'turn'
S'right'
S''
tp4491
a(S'verify'
S'front'
S' blue hallway'
tp4492
a(S'travel'
S''
S''
tp4493
a(S'verify'
S'front'
S' wall'
tp4494
aa(lp4495
(S'travel'
S'steps'
S' 1'
tp4496
aa(lp4497
(S'travel'
S''
S''
tp4498
a(S'verify'
S'at'
S' sofa'
tp4499
aa(lp4500
(S'turn'
S'left'
S''
tp4501
a(S'travel'
S'steps'
S' 4'
tp4502
aa(lp4503
(S'travel'
S'steps'
S' 3'
tp4504
aa(lp4505
(S'verify'
S'front'
S' brick hallway'
tp4506
a(S'travel'
S'steps'
S' 1'
tp4507
aa(lp4508
(S'travel'
S'steps'
S' 2'
tp4509
aa(lp4510
(S'turn'
S'left'
S''
tp4511
aa(lp4512
(S'travel'
S'steps'
S' 5'
tp4513
a(S'verify'
S'side'
S' concrete hallway'
tp4514
aa(lp4515
(S'travel'
S'steps'
S' 1'
tp4516
aa(lp4517
(S'verify'
p4518
S'front'
S' brick hallway'
tp4519
a(g4518
S'front'
S' lamp'
tp4520
a(S'travel'
S''
S''
tp4521
a(S'verify'
p4522
S'back'
S' lamp'
tp4523
a(g4522
S'at'
S' easel'
tp4524
aa(lp4525
(S'turn'
S'left'
S''
tp4526
aa(lp4527
(S'travel'
S'steps'
S' 4'
tp4528
a(S'verify'
S'side'
S' wood hallway'
tp4529
aa(lp4530
(S'turn'
S'left'
S''
tp4531
aa(lp4532
(S'travel'
S'steps'
S' 1'
tp4533
aa(lp4534
(S'travel'
S'steps'
S' 1'
tp4535
aa(lp4536
(S'travel'
S''
S''
tp4537
a(S'verify'
S'front'
S' wall'
tp4538
aa(lp4539
(S'verify'
S'front'
S' fish wall'
tp4540
aa(lp4541
(S'turn'
S''
S''
tp4542
a(S'verify'
S'front'
S' barstool'
tp4543
aa(lp4544
(S'turn'
S''
S''
tp4545
a(S'verify'
p4546
S'front'
S' wood hallway'
tp4547
a(g4546
S'front'
S' easel'
tp4548
aa(lp4549
(S'travel'
S'steps'
S' 1'
tp4550
a(S'verify'
S'at'
S' barstool'
tp4551
aa(lp4552
(S'turn'
S''
S''
tp4553
a(S'verify'
S'front'
S' chair'
tp4554
aa(lp4555
(S'verify'
p4556
S'at'
S' easel'
tp4557
a(g4556
S'side'
S' brick hallway'
tp4558
aa(lp4559
(S'turn'
S'left'
S''
tp4560
aa(lp4561
(S'verify'
S'at'
S' easel'
tp4562
aa(lp4563
(S'travel'
S''
S''
tp4564
a(S'verify'
S'at'
S' easel'
tp4565
a(S'turn'
S'right'
S''
tp4566
aa(lp4567
(S'turn'
S''
S''
tp4568
a(S'verify'
S'back'
S' wall'
tp4569
aa(lp4570
(S'travel'
S''
S''
tp4571
a(S'verify'
p4572
S'front'
S' wall'
tp4573
a(g4572
S'left'
S' wall'
tp4574
a(S'turn'
S'right'
S''
tp4575
aa(lp4576
(S'travel'
S'steps'
S' 1'
tp4577
aa(lp4578
(S'verify'
S'at'
S' easel'
tp4579
aa(lp4580
(S'verify'
S'side'
p4581
S' blue hallway'
p4582
tp4583
aa(lp4584
(S'turn'
S'right'
S''
tp4585
a(S'travel'
S'steps'
S' 1'
tp4586
aa(lp4587
(S'turn'
S''
S''
tp4588
a(S'verify'
S'front'
S' easel'
tp4589
aa(lp4590
(S'turn'
S'right'
S''
tp4591
aa(lp4592
(S'travel'
S''
S''
tp4593
a(S'verify'
p4594
S'front'
S' wall'
tp4595
a(g4594
S'left'
S' wall'
tp4596
a(g4594
S'right'
S' wall'
tp4597
a(g4594
S'back'
S' yellow hallway'
tp4598
a(g4594
S'back'
S' fish wall'
tp4599
aa(lp4600
(S'verify'
S'front'
S' tower wall'
tp4601
a(S'travel'
S''
S''
tp4602
a(S'verify'
S'side'
S' flower hallway'
tp4603
a(S'turn'
S'right'
S''
tp4604
aa(lp4605
(S'turn'
S'left'
S''
tp4606
aa(lp4607
(S'turn'
S''
S''
tp4608
a(S'verify'
p4609
S'back'
S' wall'
tp4610
a(g4609
S'at'
S' 3-intersection'
tp4611
aa(lp4612
(S'travel'
S'steps'
S' 1'
tp4613
a(S'verify'
S'side'
S' brick hallway'
tp4614
aa(lp4615
(S'turn'
S'right'
S''
tp4616
aa(lp4617
(S'turn'
S''
S''
tp4618
a(S'verify'
S'front'
S' yellow hallway'
tp4619
a(S'travel'
S''
S''
tp4620
a(S'verify'
S'left'
S' flower hallway'
tp4621
aa(lp4622
(S'turn'
S'left'
S''
tp4623
a(S'verify'
S'front'
S' easel'
tp4624
aa(lp4625
(S'travel'
S'steps'
S' 2'
tp4626
a(S'verify'
S'side'
S' concrete hallway'
tp4627
aa(lp4628
(S'turn'
S'left'
S''
tp4629
aa(lp4630
(S'verify'
p4631
S'front'
S' gravel hallway'
tp4632
a(g4631
S'back'
S' gravel hallway'
tp4633
aa(lp4634
(S'turn'
S'left'
S''
tp4635
aa(lp4636
(S'turn'
S''
S''
tp4637
a(S'verify'
S'right'
S' wall'
tp4638
aa(lp4639
(S'verify'
S'left'
S' chair'
tp4640
aa(lp4641
(S'travel'
S''
S''
tp4642
a(S'verify'
S'at'
S' lamp'
tp4643
a(S'travel'
S'steps'
S' 1'
tp4644
aa(lp4645
(S'travel'
S''
S''
tp4646
a(S'verify'
S'front'
S' wall'
tp4647
aa(lp4648
(S'turn'
S''
S''
tp4649
a(S'verify'
S'left'
S' wall'
tp4650
aa(lp4651
(S'travel'
S''
S''
tp4652
a(S'verify'
S'side'
S' concrete hallway'
tp4653
aa(lp4654
(S'turn'
S'right'
S''
tp4655
aa(lp4656
(S'turn'
S'right'
S''
tp4657
aa(lp4658
(S'turn'
S''
S''
tp4659
a(S'verify'
S'front'
S' blue hallway'
tp4660
a(S'travel'
S''
S''
tp4661
a(S'verify'
S'side'
S' wood hallway'
tp4662
aa(lp4663
(S'travel'
S''
S''
tp4664
a(S'verify'
S'front'
S' wall'
tp4665
aa(lp4666
(S'travel'
S'steps'
S' 1'
tp4667
a(S'turn'
S'left'
S''
tp4668
aa(lp4669
(S'travel'
S'steps'
S' 1'
tp4670
a(S'verify'
S'front'
S' wall'
tp4671
aa(lp4672
(S'travel'
S''
S''
tp4673
a(S'turn'
S'right'
S''
tp4674
aa(lp4675
(S'turn'
S'right'
S''
tp4676
aa(lp4677
(S'travel'
S''
S''
tp4678
aa(lp4679
(S'travel'
S''
S''
tp4680
a(S'verify'
p4681
S'front'
S' flower hallway'
tp4682
a(g4681
S'side'
S' yellow hallway'
tp4683
aa(lp4684
(S'travel'
S'steps'
S' 1'
tp4685
a(S'turn'
S'right'
S''
tp4686
aa(lp4687
(S'travel'
S''
S''
tp4688
a(S'verify'
p4689
S'front'
S' wall'
tp4690
a(g4689
S'left'
S' wall'
tp4691
aa(lp4692
(S'travel'
S''
S''
tp4693
a(S'verify'
S'front'
S' wall'
tp4694
aa(lp4695
(S'turn'
S''
S''
tp4696
a(S'verify'
p4697
S'left'
S' wall'
tp4698
a(g4697
S'back'
S' wall'
tp4699
aa(lp4700
(S'turn'
S''
S''
tp4701
a(S'verify'
S'front'
S' sofa'
p4702
tp4703
a(S'travel'
S''
S''
tp4704
a(S'verify'
S'at'
S' sofa'
tp4705
aa(lp4706
(S'travel'
S'steps'
S' 1'
tp4707
aa(lp4708
(S'travel'
S'steps'
S' 2'
tp4709
aa(lp4710
(S'turn'
S''
S''
tp4711
a(S'verify'
p4712
S'front'
S' blue hallway'
tp4713
a(g4712
S'front'
S' sofa'
tp4714
aa(lp4715
(S'turn'
S'left'
S''
tp4716
a(S'travel'
S'steps'
S' 2'
tp4717
aa(lp4718
(S'travel'
S'steps'
S' 1'
tp4719
a(S'verify'
S'side'
S' blue hallway'
tp4720
aa(lp4721
(S'travel'
S''
S''
tp4722
a(S'verify'
S'front'
S' wall'
tp4723
aa(lp4724
(S'turn'
S''
S''
tp4725
a(S'verify'
p4726
S'front'
S' brick hallway'
tp4727
a(g4726
S'back'
S' sofa'
tp4728
aa(lp4729
(S'travel'
S'steps'
S' 1'
tp4730
a(S'verify'
p4731
S'front'
S' wall'
tp4732
a(g4731
S'right'
S' wall'
tp4733
aa(lp4734
(S'verify'
S'front'
S' lamp'
tp4735
a(S'travel'
S''
S''
tp4736
a(S'verify'
S'front'
S' wall'
tp4737
aa(lp4738
(S'travel'
S''
S''
tp4739
aa(lp4740
(S'travel'
S'steps'
S' 1'
tp4741
a(S'verify'
S'side'
S' blue hallway'
tp4742
aa(lp4743
(S'travel'
S''
S''
tp4744
a(S'verify'
S'at'
S' lamp'
tp4745
a(S'travel'
S'steps'
S' 1'
tp4746
aa(lp4747
(S'travel'
S''
S''
tp4748
a(S'verify'
S'side'
S' flower hallway'
tp4749
a(S'turn'
S'left'
S''
tp4750
aa(lp4751
(S'turn'
S'right'
S''
tp4752
aa(lp4753
(S'travel'
S'steps'
S' 1'
tp4754
a(S'verify'
S'side'
S' yellow hallway'
tp4755
aa(lp4756
(S'verify'
p4757
S'front'
S' blue hallway'
tp4758
a(g4757
S'front'
S' sofa'
tp4759
a(g4757
S'front'
S' barstool'
tp4760
a(g4757
S'front'
S' chair'
tp4761
a(S'travel'
S''
S''
tp4762
a(S'verify'
p4763
S'back'
S' sofa'
tp4764
a(g4763
S'back'
S' barstool'
tp4765
a(g4763
S'back'
S' chair'
tp4766
a(g4763
S'side'
S' flower hallway'
tp4767
aa(lp4768
(S'turn'
S''
S''
tp4769
a(S'verify'
S'front'
S' grass hallway'
tp4770
a(S'travel'
S''
S''
tp4771
a(S'verify'
S'side'
S' blue hallway'
tp4772
aa(lp4773
(S'turn'
S''
S''
tp4774
a(S'travel'
S'steps'
S' 1'
tp4775
aa(lp4776
(S'verify'
S'front'
S' hatrack'
tp4777
aa(lp4778
(S'turn'
S''
S''
tp4779
a(S'verify'
S'front'
S' brick hallway'
tp4780
aa(lp4781
(S'travel'
S''
S''
tp4782
a(S'verify'
S'side'
S' brick hallway'
tp4783
aa(lp4784
(S'verify'
S'front'
S' flower hallway'
tp4785
a(S'travel'
S'steps'
S' 2'
tp4786
a(S'verify'
S'side'
S' brick hallway'
tp4787
aa(lp4788
(S'turn'
S'left'
S''
tp4789
aa(lp4790
(S'verify'
S'left'
S' lamp'
tp4791
aa(lp4792
(S'verify'
S'side'
S' yellow hallway'
tp4793
aa(lp4794
(S'turn'
S''
S''
tp4795
a(S'verify'
S'right'
S' wall'
tp4796
aa(lp4797
(S'turn'
S''
S''
tp4798
a(S'verify'
S'left'
S' wall'
tp4799
aa(lp4800
(S'turn'
S''
S''
tp4801
a(S'verify'
S'back'
S' wall'
tp4802
a(S'turn'
S'right'
S''
tp4803
aa(lp4804
(S'turn'
S'right'
S''
tp4805
aa(lp4806
(S'travel'
S'steps'
S' 1'
tp4807
aa(lp4808
(S'travel'
S'steps'
S' 1'
tp4809
a(S'verify'
p4810
S'left'
S' wall'
tp4811
a(g4810
S'front'
S' wall'
tp4812
a(S'turn'
S'right'
S''
tp4813
a(S'verify'
p4814
S'front'
S' blue hallway'
tp4815
a(g4814
S'front'
S' chair'
tp4816
aa(lp4817
(S'turn'
S''
S''
tp4818
a(S'verify'
S'front'
S' flower hallway'
tp4819
aa(lp4820
(S'travel'
S'steps'
S' 2'
tp4821
a(S'verify'
S'side'
S' blue hallway'
tp4822
aa(lp4823
(S'turn'
S'left'
S''
tp4824
aa(lp4825
(S'verify'
p4826
S'front'
S' lamp'
tp4827
a(g4826
S'front'
S' hatrack'
tp4828
a(S'travel'
S'steps'
S' 6'
tp4829
a(S'verify'
p4830
S'back'
S' lamp'
tp4831
a(g4830
S'back'
S' hatrack'
tp4832
a(g4830
S'side'
S' gravel hallway'
tp4833
aa(lp4834
(S'travel'
S'steps'
S' 1'
tp4835
aa(lp4836
(S'travel'
S''
S''
tp4837
a(S'verify'
S'side'
S' wood hallway'
tp4838
a(S'turn'
S'left'
S''
tp4839
aa(lp4840
(S'turn'
S'left'
S''
tp4841
aa(lp4842
(S'verify'
S'front'
S' grass hallway'
tp4843
a(S'travel'
S''
S''
tp4844
a(S'verify'
S'at'
S' hatrack'
tp4845
a(S'turn'
S'right'
S''
tp4846
aa(lp4847
(S'turn'
S'left'
S''
tp4848
aa(lp4849
(S'turn'
S''
S''
tp4850
a(S'verify'
p4851
S'left'
S' wall'
tp4852
a(g4851
S'back'
S' wall'
tp4853
aa(lp4854
(S'verify'
p4855
S'front'
S' chair'
tp4856
a(g4855
S'front'
S' hatrack'
tp4857
aa(lp4858
(S'turn'
S'left'
S''
tp4859
aa(lp4860
(S'travel'
S''
S''
tp4861
aa(lp4862
(S'travel'
S'steps'
S' 1'
tp4863
a(S'verify'
S'side'
S' blue hallway'
tp4864
aa(lp4865
(S'verify'
S'front'
S' lamp'
tp4866
a(S'travel'
S'steps'
S' 4'
tp4867
a(S'verify'
p4868
S'back'
S' lamp'
tp4869
a(g4868
S'side'
S' wood hallway'
tp4870
aa(lp4871
(S'turn'
S''
S''
tp4872
a(S'verify'
S'front'
S' brick hallway'
tp4873
aa(lp4874
(S'turn'
S''
S''
tp4875
a(S'verify'
S'front'
S' brick hallway'
tp4876
a(S'travel'
S''
S''
tp4877
a(S'verify'
S'side'
S' gravel hallway'
tp4878
aa(lp4879
(S'turn'
S''
S''
tp4880
a(S'verify'
S'front'
S' gravel hallway'
tp4881
aa(lp4882
(S'turn'
S'right'
S''
tp4883
a(S'travel'
S'steps'
S' 1'
tp4884
aa(lp4885
(S'travel'
S'steps'
S' 1'
tp4886
aa(lp4887
(S'turn'
S''
S''
tp4888
a(S'verify'
p4889
S'front'
S' blue hallway'
tp4890
a(g4889
S'front'
S' chair'
tp4891
aa(lp4892
(S'turn'
S'right'
S''
tp4893
aa(lp4894
(S'turn'
S'right'
S''
tp4895
aa(lp4896
(S'travel'
S'steps'
S' 1'
tp4897
a(S'verify'
S'side'
S' brick hallway'
tp4898
aa(lp4899
(S'verify'
S'front'
S' easel'
tp4900
aa(lp4901
(S'travel'
S''
S''
tp4902
aa(lp4903
(S'travel'
S''
S''
tp4904
a(S'verify'
p4905
S'side'
S' concrete hallway'
tp4906
a(g4905
S'at'
S' 4-intersection'
tp4907
aa(lp4908
(S'travel'
S'steps'
S' 1'
tp4909
a(S'turn'
S'right'
S''
tp4910
a(S'travel'
S''
S''
tp4911
a(S'verify'
S'front'
S' wall'
tp4912
aa(lp4913
(S'turn'
S'left'
S''
tp4914
aa(lp4915
(S'turn'
S''
S''
tp4916
aa(lp4917
(S'verify'
S'front'
S' flower hallway'
tp4918
a(S'travel'
S''
S''
tp4919
a(S'verify'
S'side'
S' brick hallway'
tp4920
aa(lp4921
(S'turn'
S''
S''
tp4922
a(S'verify'
S'back'
S' wall'
tp4923
a(S'turn'
S'left'
S''
tp4924
aa(lp4925
(S'turn'
S''
S''
tp4926
a(S'verify'
p4927
S'back'
S' wall'
tp4928
a(g4927
S'at'
S' 3-intersection'
tp4929
aa(lp4930
(S'travel'
S''
S''
tp4931
a(S'verify'
S'at'
S' hatrack'
tp4932
aa(lp4933
(S'turn'
S''
S''
tp4934
a(S'verify'
p4935
S'right'
S' wall'
tp4936
a(g4935
S'back'
S' wall'
tp4937
aa(lp4938
(S'travel'
S'steps'
S' 1'
tp4939
a(S'verify'
S'side'
S' brick hallway'
tp4940
aa(lp4941
(S'travel'
S''
S''
tp4942
a(S'verify'
S'side'
S' brick hallway'
tp4943
a(S'turn'
S'left'
S''
tp4944
aa(lp4945
(S'verify'
p4946
S'front'
S' blue hallway'
tp4947
a(g4946
S'front'
S' chair'
tp4948
a(S'travel'
S''
S''
tp4949
a(S'verify'
S'at'
S' chair'
tp4950
a(S'travel'
S'steps'
S' 1'
tp4951
aa(lp4952
(S'travel'
S'steps'
S' 2'
tp4953
aa(lp4954
(S'turn'
S''
S''
tp4955
a(S'verify'
S'front'
S' gravel hallway'
tp4956
a(S'travel'
S''
S''
tp4957
a(S'verify'
S'side'
S' brick hallway'
tp4958
a(S'turn'
S'left'
S''
tp4959
aa(lp4960
(S'turn'
S'right'
S''
tp4961
a(S'travel'
S''
S''
tp4962
a(S'verify'
p4963
S'front'
S' wall'
tp4964
a(g4963
S'right'
S' wall'
tp4965
a(g4963
S'left'
S' wall'
tp4966
aa(lp4967
(S'turn'
S''
S''
tp4968
a(S'verify'
S'front'
S' brick hallway'
tp4969
aa(lp4970
(S'turn'
S''
S''
tp4971
a(S'verify'
p4972
S'back'
S' wall'
tp4973
a(g4972
S'at'
S' 3-intersection'
tp4974
aa(lp4975
(S'travel'
S'steps'
S' 6'
tp4976
aa(lp4977
(S'verify'
S'right'
S' grass hallway'
p4978
tp4979
aa(lp4980
(S'verify'
p4981
S'front'
S' butterfly wall'
tp4982
a(g4981
S'front'
S' blue hallway'
tp4983
a(S'travel'
S''
S''
tp4984
aa(lp4985
(S'travel'
S''
S''
tp4986
aa(lp4987
(S'turn'
S'right'
S''
tp4988
aa(lp4989
(S'travel'
S'steps'
S' 2'
tp4990
aa(lp4991
(S'travel'
S''
S''
tp4992
a(S'verify'
S'at'
S' sofa'
tp4993
a(S'travel'
S'steps'
S' 1'
tp4994
a(S'turn'
S'right'
S''
tp4995
aa(lp4996
(S'travel'
S'steps'
S' 1'
tp4997
aa(lp4998
(S'verify'
S'front'
S' blue hallway'
tp4999
a(S'travel'
S''
S''
tp5000
a(S'verify'
S'front'
S' wall'
tp5001
aa(lp5002
(S'turn'
S'right'
S''
tp5003
aa(lp5004
(S'turn'
S''
S''
tp5005
a(S'verify'
p5006
S'front'
S' gravel hallway'
tp5007
a(g5006
S'front'
S' easel'
tp5008
aa(lp5009
(S'travel'
S''
S''
tp5010
a(S'verify'
S'left'
S' hallway'
tp5011
a(S'turn'
S'left'
S''
tp5012
aa(lp5013
(S'verify'
S'front'
S' blue hallway'
tp5014
a(S'travel'
S''
S''
tp5015
a(S'verify'
S'side'
S' flower hallway'
tp5016
aa(lp5017
(S'verify'
S'at'
S' hatrack'
tp5018
a(S'turn'
S'left'
S''
tp5019
a(S'verify'
S'front'
S' yellow hallway'
tp5020
a(S'travel'
S''
S''
tp5021
a(S'verify'
S'front'
S' wall'
tp5022
aa(lp5023
(S'turn'
S'right'
S''
tp5024
aa(lp5025
(S'verify'
S'front'
S' chair'
tp5026
aa(lp5027
(S'turn'
S''
S''
tp5028
a(S'verify'
S'front'
S' sofa'
tp5029
aa(lp5030
(S'turn'
S'right'
S''
tp5031
aa(lp5032
(S'travel'
S''
S''
tp5033
a(S'verify'
p5034
S'front'
S' wall'
tp5035
a(g5034
S'left'
S' wall'
tp5036
a(S'turn'
S'right'
S''
tp5037
a(S'verify'
S'front'
S' wood hallway'
tp5038
aa(lp5039
(S'turn'
S''
S''
tp5040
a(S'verify'
S'front'
S' flower hallway'
tp5041
a(S'travel'
S''
S''
tp5042
a(S'verify'
S'side'
S' brick hallway'
tp5043
aa(lp5044
(S'travel'
S'steps'
S' 1'
tp5045
aa(lp5046
(S'verify'
S'front'
S' flower hallway'
tp5047
a(S'travel'
S''
S''
tp5048
a(S'turn'
S''
S''
tp5049
a(S'travel'
S''
S''
tp5050
a(S'verify'
p5051
S'front'
S' wall'
tp5052
a(g5051
S'left'
S' wall'
tp5053
a(g5051
S'right'
S' wall'
tp5054
aa(lp5055
(S'travel'
S''
S''
tp5056
a(S'verify'
S'at'
S' barstool'
tp5057
aa(lp5058
(S'verify'
p5059
S'back'
S' hatrack'
tp5060
a(g5059
S'back'
S' brick hallway'
tp5061
aa(lp5062
(S'travel'
S''
S''
tp5063
a(S'verify'
S'side'
S' blue hallway'
tp5064
a(S'turn'
S'right'
S''
tp5065
a(S'verify'
p5066
S'front'
S' blue hallway'
tp5067
a(g5066
S'front'
S' chair'
tp5068
a(g5066
S'front'
S' hatrack'
tp5069
a(S'travel'
S''
S''
tp5070
a(S'verify'
S'back'
S' hatrack'
tp5071
aa(lp5072
(S'travel'
S'steps'
S' 2'
tp5073
aa(lp5074
(S'verify'
S'side'
S' yellow hallway'
tp5075
aa(lp5076
(S'turn'
S'right'
S''
tp5077
a(S'travel'
S'steps'
S' 1'
tp5078
aa(lp5079
(S'travel'
S'steps'
S' 1'
tp5080
a(S'verify'
S'at'
S' lamp'
tp5081
aa(lp5082
(S'travel'
S''
S''
tp5083
a(S'verify'
S'left'
S' concrete hallway'
tp5084
aa(lp5085
(S'verify'
S'at'
S' hatrack'
tp5086
aa(lp5087
(S'turn'
S''
S''
tp5088
a(S'verify'
p5089
S'front'
S' blue hallway'
tp5090
a(g5089
S'left'
S' flower hallway'
tp5091
a(g5089
S'right'
S' wall'
tp5092
aa(lp5093
(S'turn'
S''
S''
tp5094
a(S'verify'
p5095
S'right'
S' chair'
tp5096
a(g5095
S'front'
S' wood hallway'
tp5097
aa(lp5098
(S'travel'
S''
S''
tp5099
a(S'verify'
S'side'
S' brick hallway'
tp5100
aa(lp5101
(S'travel'
S''
S''
tp5102
a(S'verify'
S'side'
S' flower hallway'
tp5103
aa(lp5104
(S'verify'
S'right'
S' sofa'
tp5105
aa(lp5106
(S'travel'
S'steps'
S' 1'
tp5107
aa(lp5108
(S'travel'
S''
S''
tp5109
a(S'verify'
S'front'
S' wall'
tp5110
aa(lp5111
(S'turn'
S''
S''
tp5112
a(S'verify'
p5113
S'back'
S' wall'
tp5114
a(g5113
S'at'
S' 3-intersection'
tp5115
aa(lp5116
(S'verify'
p5117
S'front'
S' wall'
tp5118
a(g5117
S'left'
S' wall'
tp5119
a(S'turn'
S'right'
S''
tp5120
a(S'verify'
S'front'
S' grass hallway'
tp5121
aa(lp5122
(S'travel'
S''
S''
tp5123
a(S'verify'
S'side'
S' concrete hallway'
tp5124
a(S'turn'
S'right'
S''
tp5125
a(S'verify'
S'front'
S' barstool'
tp5126
aa(lp5127
(S'travel'
S''
S''
tp5128
a(S'turn'
S'right'
S''
tp5129
aa(lp5130
(S'travel'
S'steps'
S' 1'
tp5131
aa(lp5132
(S'travel'
S''
S''
tp5133
a(S'verify'
p5134
S'front'
S' blue hallway'
tp5135
a(g5134
S'back'
S' blue hallway'
tp5136
a(g5134
S'front'
S' hatrack'
tp5137
a(g5134
S'back'
S' chair'
tp5138
aa(lp5139
(S'turn'
S'right'
S''
tp5140
aa(lp5141
(S'travel'
S'steps'
S' 1'
tp5142
a(S'verify'
S'at'
S' sofa'
tp5143
aa(lp5144
(S'travel'
S''
S''
tp5145
a(S'verify'
p5146
S'front'
S' wall'
tp5147
a(g5146
S'left'
S' wall'
tp5148
aa(lp5149
(S'turn'
S'right'
S''
tp5150
aa(lp5151
(S'turn'
S''
S''
tp5152
a(S'verify'
S'front'
S' flower hallway'
tp5153
aa(lp5154
(S'travel'
S'steps'
S' 1'
tp5155
aa(lp5156
(S'travel'
S'steps'
S' 1'
tp5157
aa(lp5158
(S'travel'
S'steps'
S' 3'
p5159
tp5160
a(S'verify'
S'front'
S' wall'
tp5161
aa(lp5162
(S'turn'
S''
S''
tp5163
a(S'verify'
S'front'
S' flower hallway'
tp5164
aa(lp5165
(S'turn'
S''
S''
tp5166
a(S'verify'
p5167
S'front'
S' gravel hallway'
tp5168
a(g5167
S'back'
S' easel'
tp5169
aa(lp5170
(S'turn'
S''
S''
tp5171
a(S'verify'
S'left'
S' wall'
tp5172
aa(lp5173
(S'verify'
S'front'
S' easel'
tp5174
a(S'travel'
S''
S''
tp5175
a(S'verify'
p5176
S'back'
S' easel'
tp5177
a(g5176
S'front'
S' wall'
tp5178
a(S'turn'
S'left'
S''
tp5179
a(S'verify'
S'front'
S' brick hallway'
tp5180
aa(lp5181
(S'travel'
S'steps'
S' 2'
tp5182
aa(lp5183
(S'travel'
S''
S''
tp5184
a(S'verify'
S'side'
S' flower hallway'
tp5185
a(S'turn'
S'left'
S''
tp5186
aa(lp5187
(S'verify'
p5188
S'front'
S' easel'
tp5189
a(g5188
S'left'
S' yellow hallway'
tp5190
a(g5188
S'right'
S' yellow hallway'
tp5191
aa(lp5192
(S'turn'
S'left'
S''
tp5193
aa(lp5194
(S'verify'
S'front'
S' chair'
tp5195
a(S'travel'
S''
S''
tp5196
a(S'verify'
p5197
S'at'
S' barstool'
tp5198
a(g5197
S'back'
S' chair'
tp5199
aa(lp5200
(S'travel'
S'steps'
S' 1'
tp5201
aa(lp5202
(S'verify'
S'left'
S' easel'
tp5203
aa(lp5204
(S'turn'
S''
S''
tp5205
a(S'verify'
S'front'
S' hatrack'
tp5206
aa(lp5207
(S'travel'
S''
S''
tp5208
a(S'verify'
S'at'
S' sofa'
tp5209
aa(lp5210
(S'turn'
S'right'
S''
tp5211
a(S'verify'
S'front'
S' gravel hallway'
tp5212
aa(lp5213
(S'turn'
S'left'
S''
tp5214
aa(lp5215
(S'turn'
S'right'
S''
tp5216
a(S'verify'
S'front'
S' blue hallway'
tp5217
aa(lp5218
(S'turn'
S'left'
S''
tp5219
aa(lp5220
(S'travel'
S''
S''
tp5221
a(S'verify'
S'front'
S' wall'
tp5222
aa(lp5223
(S'turn'
S'left'
S''
tp5224
aa(lp5225
(S'verify'
S'left'
S' gravel hallway'
tp5226
a(S'turn'
S'left'
S''
tp5227
a(S'travel'
S'steps'
S' 3'
tp5228
a(S'verify'
S'side'
S' blue hallway'
tp5229
aa(lp5230
(S'travel'
S''
S''
tp5231
a(S'verify'
S'at'
S' easel'
tp5232
aa(lp5233
(S'turn'
S'left'
S''
tp5234
aa(lp5235
(S'travel'
S''
S''
tp5236
a(S'verify'
S'at'
S' easel'
tp5237
a(S'turn'
S'left'
S''
tp5238
a(S'verify'
S'front'
S' concrete hallway'
tp5239
a(S'travel'
S''
S''
tp5240
a(S'verify'
S'side'
S' blue hallway'
tp5241
aa(lp5242
(S'verify'
S'at'
S' sofa'
tp5243
aa(lp5244
(S'turn'
S'left'
S''
tp5245
aa(lp5246
(S'turn'
S''
S''
tp5247
a(S'verify'
S'front'
S' grass hallway'
tp5248
aa(lp5249
(S'turn'
S'left'
S''
tp5250
aa(lp5251
(S'turn'
S'right'
S''
tp5252
a(S'travel'
S'steps'
S' 1'
tp5253
aa(lp5254
(S'travel'
S''
S''
tp5255
a(S'verify'
p5256
S'front'
S' gravel hallway'
tp5257
a(g5256
S'side'
S' concrete hallway'
tp5258
aa(lp5259
(S'turn'
S'left'
S''
tp5260
a(S'verify'
S'front'
S' brick hallway'
tp5261
aa(lp5262
(S'turn'
S''
S''
tp5263
a(S'travel'
S''
S''
tp5264
aa(lp5265
(g155
S''
S''
tp5266
aa(lp5267
(S'travel'
S'steps'
S' 1'
tp5268
aa(lp5269
(S'travel'
S'steps'
S' 1'
tp5270
a(S'verify'
S'at'
S' lamp'
tp5271
aa(lp5272
(S'travel'
S''
S''
tp5273
a(S'verify'
S'front'
S' wall'
tp5274
aa(lp5275
(S'travel'
S'steps'
S' 2'
tp5276
a(S'turn'
S'right'
S''
tp5277
aa(lp5278
(S'turn'
S'right'
S''
tp5279
a(S'verify'
S'front'
S' concrete hallway'
tp5280
aa(lp5281
(S'travel'
S'steps'
S' 1'
tp5282
a(S'verify'
S'side'
S' gravel hallway'
tp5283
aa(lp5284
(S'verify'
S'front'
S' hatrack'
tp5285
aa(lp5286
(S'travel'
S'steps'
S' 1'
tp5287
aa(lp5288
(g155
S''
S''
tp5289
aa(lp5290
(S'travel'
S''
S''
tp5291
a(S'verify'
S'side'
S' brick hallway'
tp5292
a(S'turn'
S'right'
S''
tp5293
aa(lp5294
(S'travel'
S'steps'
S' 1'
tp5295
aa(lp5296
(S'verify'
S'front'
S' lamp'
tp5297
a(S'travel'
S'steps'
S' 3'
tp5298
a(S'verify'
p5299
S'back'
S' lamp'
tp5300
a(g5299
S'side'
S' concrete hallway'
tp5301
aa(lp5302
(S'travel'
S''
S''
tp5303
a(S'verify'
p5304
S'at'
S' easel'
tp5305
a(g5304
S'front'
S' gravel hallway'
tp5306
a(g5304
S'back'
S' gravel hallway'
p5307
tp5308
aa(lp5309
(g155
S''
S''
tp5310
aa(lp5311
(S'travel'
S'steps'
S' 2'
tp5312
aa(lp5313
(g155
S''
S''
tp5314
aa(lp5315
(S'travel'
S'steps'
S' 1'
tp5316
aa(lp5317
(S'turn'
S''
S''
tp5318
a(S'verify'
p5319
S'back'
S' wall'
tp5320
a(g5319
S'at'
S' 3-intersection'
tp5321
aa(lp5322
(S'travel'
S''
S''
tp5323
a(S'verify'
p5324
S'front'
S' blue hallway'
tp5325
a(g5324
S'side'
S' flower hallway'
tp5326
aa(lp5327
(S'travel'
S'steps'
S' 2'
tp5328
aa(lp5329
(S'travel'
S'steps'
S' 1'
tp5330
aa(lp5331
(S'turn'
S'left'
S''
tp5332
aa(lp5333
(S'turn'
S''
S''
tp5334
a(S'verify'
p5335
S'back'
S' wall'
tp5336
a(g5335
S'right'
S' wall'
tp5337
a(g5335
S'left'
S' wall'
tp5338
aa(lp5339
(S'turn'
S'right'
S''
tp5340
a(S'travel'
S'steps'
S' 1'
tp5341
aa(lp5342
(S'turn'
S'right'
S''
tp5343
a(S'verify'
S'front'
S' flower hallway'
tp5344
a(S'travel'
S''
S''
tp5345
a(S'verify'
S'at'
S' easel'
tp5346
aa(lp5347
(S'turn'
S''
S''
tp5348
a(S'verify'
S'front'
S' blue hallway'
tp5349
a(S'travel'
S''
S''
tp5350
a(S'verify'
S'side'
S' grass hallway'
tp5351
aa(lp5352
(S'verify'
p5353
S'left'
S' flower hallway'
tp5354
a(g5353
S'right'
S' flower hallway'
tp5355
aa(lp5356
(S'turn'
S'left'
S''
tp5357
a(S'travel'
S'steps'
S' 1'
tp5358
aa(lp5359
(S'turn'
S'right'
S''
tp5360
a(S'travel'
S''
S''
tp5361
a(S'verify'
p5362
S'front'
S' wall'
tp5363
a(g5362
S'left'
S' wall'
tp5364
a(g5362
S'right'
S' wall'
tp5365
aa(lp5366
(S'turn'
S'left'
S''
tp5367
aa(lp5368
(S'turn'
S''
S''
tp5369
a(S'verify'
S'front'
S' chair'
tp5370
a(S'travel'
S''
S''
tp5371
a(S'verify'
S'at'
S' chair'
tp5372
aa(lp5373
(S'turn'
S'right'
S''
tp5374
aa(lp5375
(S'travel'
S'steps'
S' 1'
tp5376
aa(lp5377
(S'travel'
S'steps'
S' 1'
tp5378
aa(lp5379
(S'turn'
S''
S''
tp5380
a(S'verify'
S'front'
S' chair'
tp5381
a(S'travel'
S''
S''
tp5382
a(S'verify'
S'at'
S' chair'
tp5383
aa(lp5384
(S'travel'
S''
S''
tp5385
a(S'verify'
S'at'
S' chair'
tp5386
a(S'turn'
S'left'
S''
tp5387
a(S'verify'
S'front'
S' blue hallway'
tp5388
aa(lp5389
(S'travel'
S'steps'
S' 1'
tp5390
aa(lp5391
(S'turn'
S'right'
S''
tp5392
aa(lp5393
(S'travel'
S'steps'
S' 1'
tp5394
aa(lp5395
(S'travel'
S'steps'
S' 2'
tp5396
aa(lp5397
(S'turn'
S'right'
S''
tp5398
aa(lp5399
(S'travel'
S''
S''
tp5400
a(S'verify'
S'at'
S' hatrack'
tp5401
a(S'turn'
S'left'
S''
tp5402
a(S'verify'
S'front'
S' concrete hallway'
tp5403
aa(lp5404
(S'turn'
S'right'
S''
tp5405
a(S'travel'
S'steps'
S' 1'
tp5406
aa(lp5407
(S'turn'
S'left'
S''
tp5408
a(S'travel'
S''
S''
tp5409
a(S'verify'
S'at'
S' lamp'
tp5410
a(S'turn'
S'right'
S''
tp5411
aa(lp5412
(S'turn'
S''
S''
tp5413
a(S'verify'
p5414
S'front'
S' blue hallway'
tp5415
a(g5414
S'back'
S' sofa'
tp5416
aa(lp5417
(S'turn'
S''
S''
tp5418
a(S'verify'
S'front'
S' hatrack'
tp5419
aa(lp5420
(S'verify'
S'front'
S' barstool'
tp5421
a(S'travel'
S'steps'
S' 3'
tp5422
a(S'verify'
p5423
S'back'
S' barstool'
tp5424
a(g5423
S'side'
S' concrete hallway'
tp5425
aa(lp5426
(S'travel'
S'steps'
S' 1'
tp5427
aa(lp5428
(S'turn'
S'right'
S''
tp5429
a(S'verify'
S'front'
S' flower hallway'
tp5430
aa(lp5431
(S'turn'
S'right'
S''
tp5432
aa(lp5433
(S'travel'
S'steps'
S' 1'
tp5434
aa(lp5435
(S'travel'
S''
S''
tp5436
a(S'verify'
S'front'
S' hatrack'
tp5437
aa(lp5438
(S'verify'
S'front'
S' flower hallway'
tp5439
a(S'travel'
S'steps'
S' 2'
tp5440
aa(lp5441
(S'verify'
S'at'
S' easel'
tp5442
aa(lp5443
(S'verify'
S'front'
S' sofa'
tp5444
a(S'travel'
S'steps'
S' 4'
tp5445
a(S'verify'
p5446
S'back'
S' sofa'
tp5447
a(g5446
S'at'
S' hatrack'
tp5448
aa(lp5449
(S'travel'
S''
S''
tp5450
a(S'verify'
S'right'
S' blue hallway'
p5451
tp5452
aa(lp5453
(S'verify'
p5454
S'front'
S' wood hallway'
tp5455
a(g5454
S'back'
S' wood hallway'
tp5456
aa(lp5457
(S'turn'
S'right'
S''
tp5458
a(S'travel'
S''
S''
tp5459
a(S'verify'
p5460
S'left'
S' wall'
tp5461
a(g5460
S'front'
S' wall'
tp5462
aa(lp5463
(S'travel'
S'steps'
S' 1'
tp5464
aa(lp5465
(S'travel'
S'steps'
S' 1'
tp5466
a(S'turn'
S'right'
S''
tp5467
aa(lp5468
(S'turn'
S'right'
S''
tp5469
aa(lp5470
(S'travel'
S'steps'
S' 1'
tp5471
aa(lp5472
(S'turn'
S'right'
S''
tp5473
a(S'travel'
S''
S''
tp5474
a(S'verify'
S'at'
S' barstool'
tp5475
aa(lp5476
(S'turn'
S''
S''
tp5477
a(S'verify'
S'front'
S' flower hallway'
tp5478
a(S'travel'
S''
S''
tp5479
a(S'verify'
S'front'
S' wall'
tp5480
aa(lp5481
(S'travel'
S''
S''
tp5482
a(S'verify'
S'side'
S' flower hallway'
tp5483
a(S'travel'
S''
S''
tp5484
aa(lp5485
(S'travel'
S''
S''
tp5486
a(S'verify'
S'at'
S' easel'
tp5487
a(S'turn'
S'right'
S''
tp5488
a(S'verify'
S'front'
S' wood hallway'
tp5489
a(S'travel'
S'steps'
S' 1'
tp5490
aa(lp5491
(S'turn'
S'right'
S''
tp5492
a(S'travel'
S'steps'
S' 1'
tp5493
aa(lp5494
(S'turn'
S''
S''
tp5495
a(S'verify'
S'front'
S' flower hallway'
tp5496
a(S'travel'
S''
S''
tp5497
a(S'verify'
S'side'
S' brick hallway'
tp5498
aa(lp5499
(S'turn'
S''
S''
tp5500
a(S'verify'
S'front'
S' lamp'
tp5501
aa(lp5502
(S'travel'
S'steps'
S' 2'
tp5503
a(S'verify'
S'side'
S' concrete hallway'
tp5504
aa(lp5505
(S'turn'
S''
S''
tp5506
aa(lp5507
(S'travel'
S''
S''
tp5508
a(S'verify'
S'right'
S' hallway'
tp5509
aa(lp5510
(S'verify'
S'at'
S' easel'
tp5511
aa(lp5512
(S'verify'
S'front'
S' wood hallway'
tp5513
a(S'travel'
S'steps'
S' 2'
tp5514
a(S'verify'
S'at'
S' easel'
tp5515
aa(lp5516
(S'travel'
S''
S''
tp5517
aa(lp5518
(S'turn'
S'right'
S''
tp5519
aa(lp5520
(S'verify'
S'front'
S' easel'
tp5521
aa(lp5522
(S'travel'
S''
S''
tp5523
a(S'verify'
p5524
S'side'
S' concrete hallway'
tp5525
a(g5524
S'at'
S' lamp'
tp5526
a(S'travel'
S''
S''
tp5527
aa(lp5528
(S'travel'
S'steps'
S' 3'
tp5529
a(S'verify'
S'side'
S' wood hallway'
tp5530
aa(lp5531
(S'turn'
S''
S''
tp5532
a(S'verify'
p5533
S'front'
S' brick hallway'
tp5534
a(g5533
S'back'
S' sofa'
tp5535
aa(lp5536
(S'travel'
S'steps'
S' 5'
tp5537
aa(lp5538
(S'verify'
S'at'
S' easel'
tp5539
aa(lp5540
(S'travel'
S''
S''
tp5541
a(S'verify'
S'front'
S' wall'
tp5542
a(S'turn'
S'right'
S''
tp5543
aa(lp5544
(S'turn'
S'right'
S''
tp5545
aa(lp5546
(S'travel'
S'steps'
S' 1'
tp5547
aa(lp5548
(S'verify'
S'at'
S' easel'
tp5549
aa(lp5550
(S'turn'
S'left'
S''
tp5551
aa(lp5552
(S'turn'
S'right'
S''
tp5553
aa(lp5554
(S'turn'
S''
S''
tp5555
a(S'verify'
p5556
S'front'
S' brick hallway'
tp5557
a(g5556
S'back'
S' sofa'
tp5558
a(S'travel'
S''
S''
tp5559
a(S'verify'
p5560
S'front'
S' wall'
tp5561
a(g5560
S'left'
S' wall'
tp5562
a(S'turn'
S'right'
S''
tp5563
a(S'verify'
S'front'
S' easel'
tp5564
aa(lp5565
(S'turn'
S''
S''
tp5566
a(S'verify'
S'front'
S' hatrack'
tp5567
aa(lp5568
(S'travel'
S''
S''
tp5569
a(S'verify'
S'front'
S' wall'
tp5570
aa(lp5571
(S'travel'
S'steps'
S' 1'
tp5572
a(S'verify'
S'side'
S' flower hallway'
tp5573
aa(lp5574
(S'travel'
S'steps'
S' 2'
tp5575
aa(lp5576
(S'turn'
S''
S''
tp5577
a(S'verify'
S'front'
S' easel'
tp5578
aa(lp5579
(S'travel'
S'steps'
S' 3'
tp5580
aa(lp5581
(S'verify'
S'front'
S' brick hallway'
tp5582
a(S'travel'
S''
S''
tp5583
a(S'verify'
S'side'
S' hallway'
tp5584
aa(lp5585
(S'travel'
S'steps'
S' 1'
tp5586
aa(lp5587
(S'turn'
S''
S''
tp5588
a(S'verify'
S'front'
S' flower hallway'
tp5589
aa(lp5590
(S'travel'
S'steps'
S' 1'
tp5591
a(S'verify'
S'side'
S' brick hallway'
tp5592
aa(lp5593
(S'verify'
p5594
S'front'
S' lamp'
tp5595
a(g5594
S'front'
S' hatrack'
tp5596
a(S'travel'
S''
S''
tp5597
a(S'verify'
p5598
S'back'
S' hatrack'
tp5599
a(g5598
S'back'
S' lamp'
tp5600
aa(lp5601
(S'turn'
S''
S''
tp5602
a(S'verify'
S'front'
S' brick hallway'
tp5603
aa(lp5604
(S'travel'
S'steps'
S' 1'
tp5605
a(S'turn'
S'left'
S''
tp5606
a(S'verify'
S'front'
S' blue hallway'
tp5607
aa(lp5608
(S'verify'
p5609
S'front'
S' flower hallway'
tp5610
a(g5609
S'front'
S' lamp'
tp5611
a(S'travel'
S''
S''
tp5612
a(S'verify'
S'at'
S' lamp'
tp5613
a(S'travel'
S'steps'
S' 2'
tp5614
aa(lp5615
(S'turn'
S'left'
S''
tp5616
aa(lp5617
(S'turn'
S''
S''
tp5618
a(S'verify'
p5619
S'front'
S' brick hallway'
tp5620
a(g5619
S'back'
S' sofa'
tp5621
aa(lp5622
(S'turn'
S'right'
S''
tp5623
aa(lp5624
(S'turn'
S'left'
S''
tp5625
aa(lp5626
(S'turn'
S'left'
S''
tp5627
a(S'travel'
S'steps'
S' 3'
tp5628
aa(lp5629
(S'travel'
S'steps'
S' 1'
tp5630
a(S'turn'
S'right'
S''
tp5631
a(S'verify'
S'front'
S' blue hallway'
tp5632
aa(lp5633
(S'travel'
S''
S''
tp5634
a(S'verify'
p5635
S'front'
S' flower hallway'
tp5636
a(g5635
S'side'
S' yellow hallway'
tp5637
aa(lp5638
(S'turn'
S''
S''
tp5639
a(S'verify'
S'back'
S' wall'
tp5640
a(S'travel'
S''
S''
tp5641
a(S'verify'
p5642
S'left'
S' brick hallway'
tp5643
a(g5642
S'right'
S' brick hallway'
tp5644
aa(lp5645
(S'turn'
S'left'
S''
tp5646
a(S'travel'
S'steps'
S' 1'
tp5647
aa(lp5648
(S'verify'
S'right'
S' concrete hallway'
p5649
tp5650
aa(lp5651
(S'travel'
S''
S''
tp5652
a(S'verify'
S'front'
S' wall'
tp5653
a(S'turn'
S'left'
S''
tp5654
aa(lp5655
(S'turn'
S'left'
S''
tp5656
aa(lp5657
(S'turn'
S''
S''
tp5658
a(S'verify'
S'back'
S' wall'
tp5659
a(S'travel'
S'steps'
S' 2'
tp5660
aa(lp5661
(S'turn'
S'left'
S''
tp5662
aa(lp5663
(S'turn'
S''
S''
tp5664
a(S'verify'
S'back'
S' wall'
tp5665
a(S'turn'
S'left'
S''
tp5666
aa(lp5667
(S'travel'
S'steps'
S' 1'
tp5668
a(S'turn'
S'right'
S''
tp5669
aa(lp5670
(S'turn'
S''
S''
tp5671
a(S'verify'
S'left'
S' easel'
tp5672
aa(lp5673
(S'turn'
S'left'
S''
tp5674
aa(lp5675
(S'travel'
S'steps'
S' 1'
tp5676
aa(lp5677
(S'travel'
S'steps'
S' 3'
tp5678
aa(lp5679
(S'turn'
S'left'
S''
tp5680
aa(lp5681
(S'turn'
S'right'
S''
tp5682
aa(lp5683
(S'turn'
S'left'
S''
tp5684
aa(lp5685
(S'turn'
S'left'
S''
tp5686
a(S'travel'
S'steps'
S' 3'
tp5687
aa(lp5688
(S'travel'
S'steps'
S' 2'
tp5689
a(S'verify'
S'side'
S' flower hallway'
tp5690
aa(lp5691
(S'turn'
S'right'
S''
tp5692
a(S'verify'
S'front'
S' grass hallway'
tp5693
a(S'travel'
S''
S''
tp5694
a(S'verify'
S'front'
S' wall'
tp5695
aa(lp5696
(g155
S''
S''
tp5697
aa(lp5698
(S'travel'
S''
S''
tp5699
a(S'verify'
S'at'
S' lamp'
tp5700
a(S'travel'
S'steps'
S' 1'
tp5701
aa(lp5702
(S'verify'
S'front'
S' tower wall'
tp5703
aa(lp5704
(S'turn'
S''
S''
tp5705
a(S'verify'
p5706
S'back'
S' wall'
tp5707
a(g5706
S'at'
S' 3-intersection'
tp5708
aa(lp5709
(S'turn'
S''
S''
tp5710
a(S'verify'
S'front'
S' gravel hallway'
tp5711
a(S'travel'
S''
S''
tp5712
a(S'verify'
S'front'
S' wall'
tp5713
aa(lp5714
(S'travel'
S'steps'
S' 1'
tp5715
aa(lp5716
(S'verify'
S'front'
S' hatrack'
tp5717
a(S'travel'
S'steps'
S' 3'
tp5718
a(S'verify'
p5719
S'back'
S' hatrack'
tp5720
a(g5719
S'front'
S' grass hallway'
tp5721
a(g5719
S'side'
S' yellow hallway'
tp5722
aa(lp5723
(S'turn'
S'left'
S''
tp5724
aa(lp5725
(S'turn'
S'right'
S''
tp5726
aa(lp5727
(S'travel'
S''
S''
tp5728
a(S'verify'
S'right'
S' hallway'
tp5729
aa(lp5730
(S'travel'
S'steps'
S' 1'
tp5731
aa(lp5732
(S'turn'
S''
S''
tp5733
a(S'verify'
S'front'
S' hatrack'
tp5734
aa(lp5735
(S'turn'
S'left'
S''
tp5736
aa(lp5737
(S'travel'
S''
S''
tp5738
a(S'verify'
S'at'
S' chair'
tp5739
a(S'turn'
S'left'
S''
tp5740
aa(lp5741
(S'travel'
S''
S''
tp5742
a(S'verify'
S'at'
S' barstool'
tp5743
aa(lp5744
(S'turn'
S''
S''
tp5745
a(S'verify'
S'left'
S' wall'
tp5746
aa(lp5747
(S'turn'
S'right'
S''
tp5748
a(S'verify'
S'front'
S' flower hallway'
tp5749
aa(lp5750
(S'turn'
S''
S''
tp5751
a(S'verify'
p5752
S'back'
S' wall'
tp5753
a(g5752
S'at'
S' 3-intersection'
tp5754
aa(lp5755
(S'verify'
S'front'
S' blue hallway'
tp5756
a(S'travel'
S''
S''
tp5757
a(S'verify'
S'at'
S' hatrack'
tp5758
aa(lp5759
(S'turn'
S'right'
S''
tp5760
aa(lp5761
(S'turn'
S''
S''
tp5762
a(S'verify'
p5763
S'left'
S' wall'
tp5764
a(g5763
S'back'
S' wall'
tp5765
aa(lp5766
(S'travel'
S'steps'
S' 1'
tp5767
aa(lp5768
(S'turn'
S''
S''
tp5769
a(S'verify'
p5770
S'back'
S' wall'
tp5771
a(g5770
S'at'
S' 3-intersection'
tp5772
aa(lp5773
(S'turn'
S'right'
S''
tp5774
a(S'verify'
S'front'
S' flower hallway'
tp5775
a(S'travel'
S'steps'
S' 1'
tp5776
a(S'turn'
S'right'
S''
tp5777
a(S'travel'
S''
S''
tp5778
a(S'verify'
S'front'
S' wall'
tp5779
aa(lp5780
(S'turn'
S'left'
S''
tp5781
a(S'verify'
S'front'
S' brick hallway'
tp5782
a(S'travel'
S''
S''
tp5783
a(S'verify'
S'front'
S' butterfly wall'
tp5784
aa(lp5785
(S'turn'
S''
S''
tp5786
a(S'verify'
S'front'
S' gravel hallway'
tp5787
a(S'travel'
S''
S''
tp5788
aa(lp5789
(S'turn'
S'right'
S''
tp5790
a(S'verify'
S'front'
S' flower hallway'
tp5791
aa(lp5792
(S'turn'
S''
S''
tp5793
a(S'verify'
p5794
S'front'
S' wood hallway'
tp5795
a(g5794
S'front'
S' easel'
tp5796
a(S'travel'
S''
S''
tp5797
a(S'verify'
S'at'
S' easel'
tp5798
a(S'turn'
S'left'
S''
tp5799
aa(lp5800
(S'travel'
S'steps'
S' 4'
tp5801
aa(lp5802
(S'turn'
S'right'
S''
tp5803
aa(lp5804
(S'verify'
p5805
S'front'
S' blue hallway'
tp5806
a(g5805
S'front'
S' chair'
tp5807
a(S'travel'
S''
S''
tp5808
a(S'verify'
S'at'
S' chair'
tp5809
a(S'turn'
S'right'
S''
tp5810
a(S'verify'
S'front'
S' barstool'
tp5811
aa(lp5812
(S'travel'
S''
S''
tp5813
a(S'verify'
p5814
S'side'
S' concrete hallway'
tp5815
a(g5814
S'front'
S' chair'
tp5816
aa(lp5817
(S'travel'
S'steps'
S' 1'
tp5818
aa(lp5819
(S'travel'
S'steps'
S' 2'
tp5820
aa(lp5821
(S'travel'
S''
S''
tp5822
a(S'verify'
S'front'
S' wall'
tp5823
a(S'turn'
S'right'
S''
tp5824
aa(lp5825
(S'travel'
S''
S''
tp5826
aa(lp5827
(S'travel'
S''
S''
tp5828
a(S'verify'
S'left'
S' hallway'
tp5829
a(S'turn'
S'left'
S''
tp5830
aa(lp5831
(S'turn'
S''
S''
tp5832
a(S'verify'
S'front'
S' lamp'
tp5833
a(S'travel'
S''
S''
tp5834
a(S'verify'
S'at'
S' lamp'
tp5835
aa(lp5836
(S'turn'
S''
S''
tp5837
a(S'verify'
S'back'
S' wall'
tp5838
aa(lp5839
(S'turn'
S'left'
S''
tp5840
aa(lp5841
(S'verify'
p5842
S'left'
S' wall'
tp5843
a(g5842
S'right'
S' wall'
tp5844
a(g5842
S'front'
S' wall'
tp5845
a(g5842
S'back'
S' yellow hallway'
tp5846
aa(lp5847
(S'travel'
S'steps'
S' 2'
tp5848
aa(lp5849
(S'travel'
S''
S''
tp5850
aa(lp5851
(S'turn'
S'right'
S''
tp5852
aa(lp5853
(S'turn'
S'right'
S''
tp5854
a(S'verify'
S'front'
S' blue hallway'
tp5855
aa(lp5856
(S'turn'
S'left'
S''
tp5857
aa(lp5858
(S'travel'
S''
S''
tp5859
a(S'verify'
p5860
S'front'
S' gravel hallway'
tp5861
a(g5860
S'side'
S' yellow hallway'
tp5862
a(S'turn'
S'left'
S''
tp5863
aa(lp5864
(S'turn'
S''
S''
tp5865
a(S'verify'
p5866
S'right'
S' wall'
tp5867
a(g5866
S'back'
S' wall'
tp5868
aa(lp5869
(S'turn'
S'left'
S''
tp5870
aa(lp5871
(S'turn'
S'right'
S''
tp5872
aa(lp5873
(S'turn'
S''
S''
tp5874
a(S'verify'
S'front'
S' lamp'
tp5875
aa(lp5876
(S'verify'
p5877
S'front'
S' blue hallway'
tp5878
a(g5877
S'front'
S' chair'
tp5879
a(g5877
S'front'
S' barstool'
tp5880
a(g5877
S'front'
S' sofa'
tp5881
a(S'travel'
S'steps'
S' 6'
tp5882
a(S'verify'
p5883
S'back'
S' chair'
tp5884
a(g5883
S'back'
S' barstool'
tp5885
a(g5883
S'back'
S' sofa'
tp5886
a(g5883
S'at'
S' hatrack'
tp5887
aa(lp5888
(S'turn'
S'right'
S''
tp5889
aa(lp5890
(S'turn'
S'left'
S''
tp5891
aa(lp5892
(S'turn'
S'right'
S''
tp5893
aa(lp5894
(S'turn'
S'right'
S''
tp5895
aa(lp5896
(S'turn'
S'left'
S''
tp5897
aa(lp5898
(S'turn'
S'left'
S''
tp5899
aa(lp5900
(S'travel'
S'steps'
S' 1'
tp5901
aa(lp5902
(S'verify'
S'front'
S' chair'
tp5903
a(S'travel'
S''
S''
tp5904
a(S'verify'
p5905
S'back'
S' chair'
tp5906
a(g5905
S'side'
S' flower hallway'
tp5907
aa(lp5908
(S'verify'
S'back'
S' sofa'
tp5909
aa(lp5910
(S'travel'
S'steps'
S' 1'
tp5911
aa(lp5912
(S'turn'
S'left'
S''
tp5913
aa(lp5914
(S'travel'
S'steps'
S' 2'
tp5915
aa(lp5916
(S'travel'
S'steps'
S' 2'
tp5917
a(S'verify'
S'front'
S' wall'
tp5918
aa(lp5919
(S'turn'
S''
S''
tp5920
a(S'verify'
p5921
S'right'
S' wall'
tp5922
a(g5921
S'left'
S' wall'
tp5923
a(g5921
S'back'
S' wall'
tp5924
aa(lp5925
(S'travel'
S'steps'
S' 1'
tp5926
a(S'verify'
S'side'
S' wood hallway'
tp5927
aa(lp5928
(S'travel'
S''
S''
tp5929
a(S'verify'
S'side'
S' flower hallway'
tp5930
aa(lp5931
(S'verify'
S'left'
S' gravel hallway'
tp5932
aa(lp5933
(S'travel'
S''
S''
tp5934
a(S'verify'
S'side'
S' yellow hallway'
tp5935
aa(lp5936
(S'turn'
S''
S''
tp5937
a(S'travel'
S'steps'
S' 1'
tp5938
aa(lp5939
(S'verify'
S'front'
S' flower hallway'
tp5940
aa(lp5941
(S'turn'
S''
S''
tp5942
a(S'verify'
p5943
S'front'
S' gravel hallway'
tp5944
a(g5943
S'back'
S' easel'
tp5945
aa(lp5946
(S'travel'
S''
S''
tp5947
a(S'verify'
p5948
S'front'
S' butterfly wall'
tp5949
a(g5948
S'back'
S' butterfly wall'
tp5950
aa(lp5951
(S'travel'
S''
S''
tp5952
a(S'verify'
S'front'
S' wall'
tp5953
a(S'turn'
S'left'
S''
tp5954
aa(lp5955
(S'verify'
S'front'
S' gravel hallway'
tp5956
a(S'travel'
S''
S''
tp5957
a(S'verify'
S'at'
S' easel'
tp5958
aa(lp5959
(S'travel'
S''
S''
tp5960
a(S'verify'
S'side'
S' wood hallway'
tp5961
a(S'turn'
S'left'
S''
tp5962
a(S'travel'
S''
S''
tp5963
a(S'verify'
S'at'
S' sofa'
tp5964
aa(lp5965
(S'verify'
S'at'
S' sofa'
tp5966
aa(lp5967
(S'verify'
S'at'
S' sofa'
tp5968
aa(lp5969
(S'travel'
S'steps'
S' 1'
tp5970
a(S'verify'
S'side'
S' blue hallway'
tp5971
aa(lp5972
(S'travel'
S'steps'
S' 1'
tp5973
aa(lp5974
(S'verify'
S'front'
S' lamp'
tp5975
a(S'travel'
S'steps'
S' 4'
tp5976
a(S'verify'
p5977
S'side'
S' wood hallway'
tp5978
a(g5977
S'back'
S' lamp'
tp5979
aa(lp5980
(S'travel'
S'steps'
S' 1'
tp5981
aa(lp5982
(S'verify'
p5983
S'front'
S' blue hallway'
tp5984
a(g5983
S'front'
S' chair'
tp5985
a(S'travel'
S''
S''
tp5986
a(S'verify'
p5987
S'back'
S' chair'
tp5988
a(g5987
S'front'
S' wall'
tp5989
aa(lp5990
(S'verify'
p5991
S'right'
S' tower wall'
tp5992
a(g5991
S'left'
S' butterfly wall'
tp5993
aa(lp5994
(S'verify'
S'at'
S' sofa'
tp5995
aa(lp5996
(S'travel'
S''
S''
tp5997
a(S'verify'
p5998
S'at'
S' easel'
tp5999
a(g5998
S'side'
S' brick hallway'
tp6000
aa(lp6001
(S'turn'
S'right'
S''
tp6002
aa(lp6003
(S'turn'
S''
S''
tp6004
a(S'verify'
S'right'
S' easel'
tp6005
aa(lp6006
(S'turn'
S'right'
S''
tp6007
aa(lp6008
(S'turn'
S'left'
S''
tp6009
aa(lp6010
(S'travel'
S''
S''
tp6011
a(S'verify'
S'at'
S' hatrack'
tp6012
aa(lp6013
(S'travel'
S'steps'
S' 2'
tp6014
aa(lp6015
(S'turn'
S'left'
S''
tp6016
a(S'travel'
S'steps'
S' 3'
tp6017
aa(lp6018
(S'travel'
S''
S''
tp6019
a(S'verify'
S'side'
S' flower hallway'
tp6020
a(S'turn'
S'left'
S''
tp6021
aa(lp6022
(S'verify'
p6023
S'front'
S' hatrack'
p6024
tp6025
a(g6023
S'front'
S' flower hallway'
tp6026
a(S'travel'
S''
S''
tp6027
a(S'verify'
p6028
S'back'
p6029
S' hatrack'
p6030
tp6031
a(g6028
S'front'
S' wall'
p6032
tp6033
aa(lp6034
(S'turn'
S'right'
S''
tp6035
aa(lp6036
(g155
S''
S''
tp6037
aa(lp6038
(S'travel'
S'steps'
S' 2'
tp6039
aa(lp6040
(S'turn'
S''
S''
tp6041
a(S'verify'
S'front'
S' brick hallway'
tp6042
aa(lp6043
(S'travel'
S''
S''
tp6044
a(S'verify'
S'front'
S' sofa'
tp6045
aa(lp6046
(S'turn'
S'right'
S''
tp6047
aa(lp6048
(S'travel'
S''
S''
tp6049
a(S'verify'
S'side'
S' flower hallway'
tp6050
aa(lp6051
(S'travel'
S''
S''
tp6052
a(S'verify'
p6053
S'front'
S' wall'
tp6054
a(g6053
S'at'
S' chair'
tp6055
a(S'turn'
S'right'
S''
tp6056
aa(lp6057
(S'travel'
S''
S''
tp6058
a(S'verify'
S'right'
S' hallway'
tp6059
a(S'turn'
S'right'
S''
tp6060
aa(lp6061
(S'verify'
S'at'
S' easel'
tp6062
aa(lp6063
(S'turn'
S''
S''
tp6064
a(S'verify'
S'front'
S' gravel hallway'
tp6065
aa(lp6066
(S'turn'
S'right'
S''
tp6067
aa(lp6068
(S'turn'
S'left'
S''
tp6069
aa(lp6070
(S'travel'
S'steps'
S' 1'
tp6071
a(S'verify'
S'side'
S' grass hallway'
tp6072
aa(lp6073
(S'travel'
S'steps'
S' 1'
tp6074
a(S'verify'
S'side'
S' concrete hallway'
tp6075
aa(lp6076
(S'travel'
S''
S''
tp6077
a(S'verify'
p6078
S'front'
S' fish wall'
p6079
tp6080
a(g6078
S'right'
S' wall'
tp6081
aa(lp6082
(S'turn'
S'left'
S''
tp6083
aa(lp6084
(S'travel'
S'steps'
S' 1'
tp6085
a(S'turn'
S'right'
S''
tp6086
aa(lp6087
(S'travel'
S''
S''
tp6088
a(S'verify'
S'side'
S' blue hallway'
tp6089
aa(lp6090
(S'travel'
S'steps'
S' 1'
tp6091
aa(lp6092
(S'travel'
S'steps'
S' 1'
tp6093
aa(lp6094
(S'verify'
S'side'
S' yellow hallway'
tp6095
aa(lp6096
(S'verify'
S'front'
S' gravel hallway'
tp6097
a(S'travel'
S''
S''
tp6098
a(S'verify'
S'at'
S' barstool'
tp6099
aa(lp6100
(S'travel'
S'steps'
S' 1'
tp6101
aa(lp6102
(S'turn'
S'right'
S''
tp6103
aa(lp6104
(S'turn'
S'right'
S''
tp6105
aa(lp6106
(S'turn'
S''
S''
tp6107
a(S'verify'
S'front'
S' lamp'
tp6108
a(S'travel'
S''
S''
tp6109
a(S'verify'
S'at'
S' lamp'
tp6110
aa(lp6111
(S'travel'
S''
S''
tp6112
a(S'verify'
S'side'
S' flower hallway'
tp6113
aa(lp6114
(S'travel'
S'steps'
S' 1'
tp6115
aa(lp6116
(S'travel'
S'steps'
S' 1'
tp6117
a(S'verify'
S'side'
S' yellow hallway'
tp6118
aa(lp6119
(S'turn'
S'right'
S''
tp6120
aa(lp6121
(S'verify'
S'at'
S' hatrack'
tp6122
a(S'turn'
S'left'
S''
tp6123
a(S'verify'
S'front'
S' concrete hallway'
tp6124
aa(lp6125
(S'turn'
S'right'
S''
tp6126
aa(lp6127
(S'travel'
S'steps'
S' 3'
tp6128
a(S'verify'
p6129
S'side'
S' gravel hallway'
tp6130
a(g6129
S'at'
S' 3-intersection'
tp6131
aa(lp6132
(S'travel'
S''
S''
tp6133
aa(lp6134
(S'verify'
S'front'
S' gravel hallway'
tp6135
a(S'travel'
S'steps'
S' 1'
tp6136
aa(lp6137
(S'verify'
p6138
S'at'
S' 3-intersection'
tp6139
a(g6138
S'side'
S' concrete hallway'
tp6140
aa(lp6141
(S'turn'
S'left'
S''
tp6142
aa(lp6143
(S'turn'
S'left'
S''
tp6144
a(S'verify'
p6145
S'front'
S' brick hallway'
tp6146
a(g6145
S'front'
S' hatrack'
tp6147
a(S'travel'
S''
S''
tp6148
a(S'verify'
S'at'
S' lamp'
tp6149
a(S'travel'
S'steps'
S' 1'
tp6150
a(S'verify'
S'back'
S' hatrack'
tp6151
aa(lp6152
(S'turn'
S'left'
S''
tp6153
a(S'verify'
S'front'
S' flower hallway'
tp6154
a(S'travel'
S'steps'
S' 1'
tp6155
a(S'turn'
S'right'
S''
tp6156
aa(lp6157
(S'travel'
S'steps'
S' 1'
tp6158
a(S'verify'
S'side'
S' brick hallway'
tp6159
aa(lp6160
(S'travel'
S'steps'
S' 1'
tp6161
a(S'verify'
S'side'
S' flower hallway'
tp6162
aa(lp6163
(S'travel'
S''
S''
tp6164
a(S'verify'
S'side'
S' blue hallway'
tp6165
a(S'turn'
S'left'
S''
tp6166
a(S'verify'
S'front'
S' blue hallway'
tp6167
aa(lp6168
(S'turn'
S'left'
S''
tp6169
a(S'travel'
S''
S''
tp6170
a(S'verify'
S'front'
S' butterfly wall'
tp6171
aa(lp6172
(S'verify'
p6173
S'front'
S' brick hallway'
tp6174
a(g6173
S'front'
S' lamp'
tp6175
a(S'travel'
S'steps'
S' 3'
tp6176
a(S'verify'
p6177
S'back'
S' lamp'
tp6178
a(g6177
S'side'
S' flower hallway'
tp6179
aa(lp6180
(S'travel'
S''
S''
tp6181
a(S'verify'
S'side'
S' flower hallway'
tp6182
a(S'turn'
S'left'
S''
tp6183
aa(lp6184
(S'turn'
S'left'
S''
tp6185
a(S'travel'
S'steps'
S' 1'
tp6186
aa(lp6187
(S'travel'
S''
S''
tp6188
a(S'verify'
S'front'
S' wall'
tp6189
aa(lp6190
(S'turn'
S'left'
S''
tp6191
aa(lp6192
(S'turn'
S'left'
S''
tp6193
a(S'travel'
S''
S''
tp6194
a(S'verify'
S'at'
S' barstool'
tp6195
aa(lp6196
(S'travel'
S''
S''
tp6197
a(S'verify'
S'front'
S' wall'
tp6198
aa(lp6199
(S'turn'
S''
S''
tp6200
a(S'verify'
S'front'
S' lamp'
tp6201
a(S'travel'
S''
S''
tp6202
a(S'verify'
S'at'
S' lamp'
tp6203
aa(lp6204
(S'verify'
S'front'
S' sofa'
tp6205
a(S'travel'
S'steps'
S' 2'
tp6206
a(S'verify'
p6207
S'at'
S' hatrack'
tp6208
a(g6207
S'back'
S' sofa'
tp6209
aa(lp6210
(S'turn'
S''
S''
tp6211
a(S'verify'
S'front'
S' hatrack'
tp6212
aa(lp6213
(S'turn'
S''
S''
tp6214
a(S'verify'
S'back'
S' wall'
tp6215
a(S'travel'
S''
S''
tp6216
a(S'verify'
S'at'
S' hatrack'
tp6217
aa(lp6218
(S'turn'
S''
S''
tp6219
a(S'verify'
p6220
S'right'
S' wall'
tp6221
a(g6220
S'back'
S' wall'
tp6222
aa(lp6223
(S'travel'
S''
S''
tp6224
a(S'verify'
p6225
S'front'
S' gravel hallway'
tp6226
a(g6225
S'side'
S' concrete hallway'
tp6227
aa(lp6228
(S'travel'
S''
S''
tp6229
a(S'verify'
S'front'
S' wall'
tp6230
aa(lp6231
(S'travel'
S'steps'
S' 1'
tp6232
a(S'turn'
S'right'
S''
tp6233
aa(lp6234
(S'verify'
S'front'
S' yellow hallway'
tp6235
aa(lp6236
(g155
S''
S''
tp6237
aa(lp6238
(S'verify'
p6239
S'front'
S' wall'
tp6240
a(g6239
S'left'
S' wall'
tp6241
a(g6239
S'right'
S' wall'
tp6242
a(g6239
S'back'
S' tower wall'
tp6243
aa(lp6244
(S'travel'
S''
S''
tp6245
a(S'verify'
S'front'
S' wall'
tp6246
aa(lp6247
(S'verify'
S'right'
S' blue hallway'
tp6248
aa(lp6249
(S'turn'
S''
S''
tp6250
a(S'verify'
S'front'
S' yellow hallway'
tp6251
a(S'travel'
S''
S''
tp6252
a(S'verify'
S'side'
S' flower hallway'
tp6253
aa(lp6254
(S'turn'
S'left'
S''
tp6255
aa(lp6256
(S'travel'
S''
S''
tp6257
a(S'verify'
S'front'
S' wall'
tp6258
aa(lp6259
(S'travel'
S''
S''
tp6260
a(S'verify'
S'at'
S' chair'
tp6261
a(S'turn'
S'left'
S''
tp6262
a(S'verify'
S'front'
S' barstool'
p6263
tp6264
aa(lp6265
(S'verify'
S'front'
S' blue hallway'
tp6266
a(S'travel'
S''
S''
tp6267
a(S'verify'
S'side'
S' flower hallway'
tp6268
aa(lp6269
(S'travel'
S''
S''
tp6270
a(S'verify'
S'front'
S' wall'
tp6271
aa(lp6272
(S'travel'
S'steps'
S' 2'
tp6273
aa(lp6274
(S'travel'
S''
S''
tp6275
a(S'verify'
S'at'
S' lamp'
tp6276
a(S'turn'
S'right'
S''
tp6277
aa(lp6278
(S'travel'
S''
S''
tp6279
a(S'verify'
S'side'
S' yellow hallway'
tp6280
aa(lp6281
(S'turn'
S''
S''
tp6282
a(S'verify'
S'back'
S' wall'
p6283
tp6284
a(S'turn'
S'left'
S''
tp6285
aa(lp6286
(S'turn'
S'right'
S''
tp6287
a(S'verify'
S'front'
S' gravel hallway'
tp6288
a(S'travel'
S'steps'
S' 2'
tp6289
aa(lp6290
(S'travel'
S'steps'
S' 1'
tp6291
aa(lp6292
(S'turn'
S'right'
S''
tp6293
aa(lp6294
(g155
S''
S''
tp6295
aa(lp6296
(S'travel'
S'steps'
S' 4'
tp6297
aa(lp6298
(g155
S''
S''
tp6299
aa(lp6300
(S'turn'
S''
S''
tp6301
a(S'verify'
p6302
S'front'
S' gravel hallway'
tp6303
a(g6302
S'back'
S' easel'
tp6304
aa(lp6305
(g155
S''
S''
tp6306
aa(lp6307
(S'turn'
S''
S''
tp6308
a(S'verify'
S'front'
S' blue hallway'
tp6309
aa(lp6310
(S'travel'
S''
S''
tp6311
a(S'verify'
S'at'
S' lamp'
tp6312
a(S'turn'
S'right'
S''
tp6313
aa(lp6314
(S'travel'
S''
S''
tp6315
a(S'verify'
S'front'
S' wall'
tp6316
a(S'turn'
S'right'
S''
tp6317
aa(lp6318
(S'turn'
S'right'
S''
tp6319
aa(lp6320
(S'turn'
S'right'
S''
tp6321
aa(lp6322
(S'travel'
S''
S''
tp6323
a(S'verify'
S'at'
S' chair'
tp6324
aa(lp6325
(S'travel'
S''
S''
tp6326
aa(lp6327
(S'turn'
S'right'
S''
tp6328
aa(lp6329
(S'verify'
p6330
S'front'
S' chair'
tp6331
a(g6330
S'front'
S' hatrack'
tp6332
a(S'travel'
S''
S''
tp6333
a(S'verify'
p6334
S'back'
S' chair'
tp6335
a(g6334
S'back'
S' hatrack'
tp6336
aa(lp6337
(S'travel'
S''
S''
tp6338
aa(lp6339
(S'verify'
S'front'
S' blue hallway'
tp6340
a(S'travel'
S''
S''
tp6341
a(S'verify'
S'side'
S' flower hallway'
tp6342
aa(lp6343
(S'travel'
S'steps'
S' 2'
tp6344
aa(lp6345
(S'travel'
S'steps'
S' 2'
tp6346
aa(lp6347
(S'verify'
S'front'
S' yellow hallway'
tp6348
aa(lp6349
(S'verify'
p6350
S'front'
S' hatrack'
tp6351
a(g6350
S'front'
S' lamp'
tp6352
a(S'travel'
S'steps'
S' 5'
tp6353
a(S'verify'
p6354
S'back'
S' hatrack'
tp6355
a(g6354
S'back'
S' lamp'
tp6356
a(g6354
S'side'
S' concrete hallway'
tp6357
aa(lp6358
(S'turn'
S'left'
S''
tp6359
aa(lp6360
(S'turn'
S'left'
S''
tp6361
a(S'verify'
S'front'
S' yellow hallway'
tp6362
a(S'travel'
S''
S''
tp6363
a(S'verify'
S'front'
S' wall'
tp6364
aa(lp6365
(S'travel'
S'steps'
S' 1'
tp6366
aa(lp6367
(S'travel'
S''
S''
tp6368
a(S'verify'
S'at'
S' sofa'
tp6369
a(S'turn'
S'right'
S''
tp6370
a(S'verify'
S'front'
S' yellow hallway'
tp6371
aa(lp6372
(S'travel'
S''
S''
tp6373
a(S'verify'
p6374
S'front'
S' brick hallway'
tp6375
a(g6374
S'back'
S' brick hallway'
tp6376
aa(lp6377
(S'turn'
S'left'
S''
tp6378
aa(lp6379
(S'verify'
S'front'
S' yellow hallway'
tp6380
a(S'travel'
S'steps'
S' 3'
tp6381
a(S'verify'
S'side'
S' concrete hallway'
tp6382
aa(lp6383
(S'verify'
S'front'
S' concrete hallway'
tp6384
aa(lp6385
(S'travel'
S'steps'
S' 1'
tp6386
a(S'verify'
p6387
S'front'
S' wall'
tp6388
a(g6387
S'right'
S' wall'
tp6389
aa(lp6390
(S'turn'
S'left'
S''
tp6391
aa(lp6392
(S'turn'
S'left'
S''
tp6393
aa(lp6394
(S'verify'
p6395
S'right'
S' concrete hallway'
tp6396
a(g6395
S'right'
S' sofa'
tp6397
aa(lp6398
(S'verify'
S'left'
S' tower wall'
tp6399
aa(lp6400
(S'verify'
S'left'
S' grass hallway'
tp6401
aa(lp6402
(S'travel'
S''
S''
tp6403
a(S'verify'
p6404
S'front'
S' blue hallway'
tp6405
a(g6404
S'back'
S' blue hallway'
tp6406
a(g6404
S'front'
S' hatrack'
tp6407
a(g6404
S'back'
S' chair'
tp6408
aa(lp6409
(S'travel'
S''
S''
tp6410
a(S'verify'
S'left'
S' hallway'
tp6411
aa(lp6412
(S'turn'
S''
S''
tp6413
a(S'verify'
S'front'
S' flower hallway'
tp6414
a(S'travel'
S''
S''
tp6415
a(S'verify'
S'side'
S' brick hallway'
tp6416
aa(lp6417
(g155
S''
S''
tp6418
aa(lp6419
(S'travel'
S''
S''
tp6420
a(S'verify'
S'side'
S' blue hallway'
tp6421
aa(lp6422
(S'turn'
S'left'
S''
tp6423
aa(lp6424
(S'turn'
S''
S''
tp6425
a(S'verify'
p6426
S'back'
S' wall'
tp6427
a(g6426
S'at'
S' 3-intersection'
tp6428
aa(lp6429
(S'travel'
S'steps'
S' 3'
tp6430
aa(lp6431
(S'turn'
S'right'
S''
tp6432
a(S'verify'
S'front'
S' gravel hallway'
tp6433
a(S'travel'
S''
S''
tp6434
a(S'verify'
S'at'
S' easel'
tp6435
aa(lp6436
(S'verify'
S'front'
S' hatrack'
tp6437
aa(lp6438
(S'travel'
S''
S''
tp6439
a(S'verify'
S'at'
S' sofa'
tp6440
aa(lp6441
(S'travel'
S''
S''
tp6442
a(S'verify'
p6443
S'front'
S' wall'
tp6444
a(g6443
S'left'
S' wall'
tp6445
a(g6443
S'back'
S' yellow hallway'
tp6446
aa(lp6447
(S'travel'
S''
S''
tp6448
a(S'verify'
S'side'
S' flower hallway'
tp6449
a(S'turn'
S'left'
S''
tp6450
aa(lp6451
(S'travel'
S''
S''
tp6452
a(S'verify'
S'at'
S' hatrack'
tp6453
aa(lp6454
(S'travel'
S'steps'
S' 2'
tp6455
aa(lp6456
(S'travel'
S''
S''
tp6457
a(S'verify'
S'at'
S' chair'
tp6458
a(S'travel'
S'steps'
S' 1'
tp6459
aa(lp6460
(S'turn'
S''
S''
tp6461
a(S'verify'
p6462
S'back'
S' wall'
tp6463
a(g6462
S'at'
S' 3-intersection'
tp6464
aa(lp6465
(S'travel'
S''
S''
tp6466
aa(lp6467
(S'travel'
S''
S''
tp6468
a(S'verify'
S'side'
S' blue hallway'
tp6469
aa(lp6470
(S'turn'
S'left'
S''
tp6471
aa(lp6472
(S'travel'
S''
S''
tp6473
a(S'verify'
S'side'
S' flower hallway'
tp6474
a(S'turn'
S'left'
S''
tp6475
aa(lp6476
(S'turn'
S''
S''
tp6477
a(S'verify'
S'front'
S' gravel hallway'
tp6478
a(S'travel'
S''
S''
tp6479
a(S'verify'
S'side'
S' brick hallway'
tp6480
aa(lp6481
(S'turn'
S'left'
S''
tp6482
a(S'travel'
S'steps'
S' 1'
tp6483
aa(lp6484
(S'verify'
S'front'
S' butterfly wall'
tp6485
aa(lp6486
(S'verify'
p6487
S'front'
S' flower hallway'
tp6488
a(g6487
S'front'
S' easel'
tp6489
aa(lp6490
(S'travel'
S'steps'
S' 1'
tp6491
aa(lp6492
(S'turn'
S'right'
S''
tp6493
aa(lp6494
(S'travel'
S''
S''
tp6495
a(S'verify'
p6496
S'front'
S' brick hallway'
tp6497
a(g6496
S'side'
S' flower hallway'
tp6498
a(g6496
S'at'
S' 4-intersection'
tp6499
a(g6496
S'at'
S' easel'
tp6500
aa(lp6501
(S'turn'
S'left'
S''
tp6502
aa(lp6503
(S'turn'
S''
S''
tp6504
a(S'verify'
S'front'
S' chair'
tp6505
a(S'travel'
S''
S''
tp6506
a(S'verify'
p6507
S'back'
S' chair'
tp6508
a(g6507
S'side'
S' yellow hallway'
tp6509
aa(lp6510
(S'travel'
S'steps'
S' 1'
tp6511
aa(lp6512
(S'travel'
S''
S''
tp6513
a(S'verify'
S'left'
S' hallway'
tp6514
a(S'turn'
S'left'
S''
tp6515
aa(lp6516
(g155
S''
S''
tp6517
aa(lp6518
(S'travel'
S'steps'
S' 1'
tp6519
aa(lp6520
(S'turn'
S'left'
S''
tp6521
a(S'travel'
S'steps'
S' 1'
tp6522
aa(lp6523
(S'turn'
S'right'
S''
tp6524
a(S'verify'
S'front'
S' blue hallway'
tp6525
aa(lp6526
(S'travel'
S'steps'
S' 1'
tp6527
aa(lp6528
(S'turn'
S'left'
S''
tp6529
aa(lp6530
(S'turn'
S'left'
S''
tp6531
aa(lp6532
(S'travel'
S'steps'
S' 1'
tp6533
aa(lp6534
(S'turn'
S''
S''
tp6535
a(S'verify'
S'right'
S' wall'
tp6536
aa(lp6537
(S'turn'
S'right'
S''
tp6538
a(S'verify'
p6539
S'front'
S' blue hallway'
tp6540
a(g6539
S'front'
S' chair'
tp6541
aa(lp6542
(S'turn'
S'right'
S''
tp6543
a(S'verify'
S'front'
S' flower hallway'
tp6544
aa(lp6545
(S'turn'
S'right'
S''
tp6546
a(S'verify'
S'front'
S' gravel hallway'
tp6547
aa(lp6548
(S'travel'
S''
S''
tp6549
a(S'verify'
p6550
S'front'
S' wall'
tp6551
a(g6550
S'right'
S' wall'
tp6552
aa(lp6553
(S'verify'
p6554
S'front'
S' wall'
tp6555
a(g6554
S'right'
S' wall'
tp6556
a(g6554
S'back'
S' yellow hallway'
tp6557
a(g6554
S'left'
S' grass hallway'
tp6558
aa(lp6559
(S'travel'
S'steps'
S' 1'
tp6560
a(S'verify'
S'side'
S' yellow hallway'
tp6561
aa(lp6562
(S'turn'
S''
S''
tp6563
a(S'verify'
S'front'
S' butterfly wall'
tp6564
a(S'travel'
S''
S''
tp6565
aa(lp6566
(S'turn'
S'left'
S''
tp6567
a(S'travel'
S'steps'
S' 1'
tp6568
aa(lp6569
(S'travel'
S''
S''
tp6570
a(S'verify'
S'front'
S' wall'
tp6571
a(S'turn'
S'left'
S''
tp6572
aa(lp6573
(S'travel'
S''
S''
tp6574
a(S'verify'
S'right'
S' hallway'
p6575
tp6576
a(S'turn'
S'right'
S''
tp6577
aa(lp6578
(S'turn'
S'left'
S''
tp6579
a(S'verify'
S'front'
S' blue hallway'
tp6580
a(S'travel'
S''
S''
tp6581
a(S'verify'
S'at'
S' hatrack'
tp6582
a(S'turn'
S'left'
S''
tp6583
aa(lp6584
(S'verify'
S'at'
S' 3-intersection'
tp6585
aa(lp6586
(S'turn'
S'right'
S''
tp6587
aa(lp6588
(S'travel'
S''
S''
tp6589
a(S'verify'
S'side'
S' flower hallway'
tp6590
a(S'turn'
S'right'
S''
tp6591
aa(lp6592
(S'travel'
S'steps'
S' 1'
tp6593
aa(lp6594
(g155
S''
S''
tp6595
aa(lp6596
(S'travel'
S''
S''
tp6597
a(S'verify'
S'side'
S' flower hallway'
tp6598
aa(lp6599
(S'verify'
S'front'
S' easel'
tp6600
a(S'travel'
S''
S''
tp6601
a(S'verify'
S'at'
S' easel'
tp6602
a(S'turn'
S'left'
S''
tp6603
aa(lp6604
(S'turn'
S'left'
S''
tp6605
aa(lp6606
(g155
S''
S''
tp6607
aa(lp6608
(S'travel'
S'steps'
S' 1'
tp6609
aa(lp6610
(S'verify'
p6611
S'front'
S' blue hallway'
tp6612
a(g6611
S'front'
S' barstool'
tp6613
a(g6611
S'front'
S' chair'
tp6614
a(S'travel'
S''
S''
tp6615
a(S'verify'
p6616
S'back'
S' barstool'
tp6617
a(g6616
S'back'
S' chair'
tp6618
a(g6616
S'front'
S' wall'
tp6619
aa(lp6620
(S'travel'
S'steps'
S' 2'
tp6621
aa(lp6622
(S'turn'
S'left'
S''
tp6623
aa(lp6624
(S'turn'
S''
S''
tp6625
a(S'verify'
S'front'
S' yellow hallway'
tp6626
aa(lp6627
(S'turn'
S'right'
S''
tp6628
aa(lp6629
(S'travel'
S''
S''
tp6630
a(S'verify'
p6631
S'front'
S' wall'
tp6632
a(g6631
S'side'
S' blue hallway'
tp6633
aa(lp6634
(S'travel'
S'steps'
S' 1'
tp6635
aa(lp6636
(S'travel'
S'steps'
S' 2'
tp6637
a(S'verify'
S'side'
S' concrete hallway'
tp6638
aa(lp6639
(S'travel'
S''
S''
tp6640
a(S'verify'
p6641
S'front'
S' butterfly wall'
tp6642
a(g6641
S'back'
S' butterfly wall'
tp6643
a(g6641
S'front'
S' blue hallway'
tp6644
a(g6641
S'back'
S' blue hallway'
p6645
tp6646
aa(lp6647
(S'verify'
S'front'
S' chair'
tp6648
a(S'travel'
S'steps'
S' 2'
tp6649
a(S'verify'
p6650
S'back'
S' chair'
tp6651
a(g6650
S'at'
S' barstool'
tp6652
aa(lp6653
(S'turn'
S'left'
S''
tp6654
aa(lp6655
(S'turn'
S'left'
S''
tp6656
aa(lp6657
(S'turn'
S'right'
S''
tp6658
aa(lp6659
(S'travel'
S'steps'
S' 2'
tp6660
aa(lp6661
(S'turn'
S'right'
S''
tp6662
aa(lp6663
(S'turn'
S'left'
S''
tp6664
aa(lp6665
(S'travel'
S'steps'
S' 2'
tp6666
aa(lp6667
(S'travel'
S'steps'
S' 1'
tp6668
a(S'verify'
S'side'
S' blue hallway'
tp6669
aa(lp6670
(S'travel'
S'steps'
S' 1'
tp6671
aa(lp6672
(S'turn'
S''
S''
tp6673
a(S'verify'
S'front'
S' yellow hallway'
tp6674
a(S'travel'
S''
S''
tp6675
a(S'verify'
S'side'
S' flower hallway'
tp6676
aa(lp6677
(S'travel'
S'steps'
S' 1'
tp6678
a(S'verify'
S'side'
S' blue hallway'
tp6679
aa(lp6680
(S'travel'
S'steps'
S' 3'
tp6681
a(S'verify'
S'side'
S' yellow hallway'
tp6682
a(S'turn'
S'left'
S''
tp6683
a(S'travel'
S'steps'
S' 1'
tp6684
aa(lp6685
(S'verify'
p6686
S'front'
S' butterfly wall'
p6687
tp6688
a(g6686
S'front'
S' blue hallway'
p6689
tp6690
aa(lp6691
(S'travel'
S''
S''
tp6692
a(S'verify'
S'side'
S' yellow hallway'
tp6693
a(S'turn'
S''
S''
tp6694
a(S'verify'
S'front'
S' yellow hallway'
tp6695
a(S'travel'
S''
S''
tp6696
a(S'verify'
S'front'
S' wall'
tp6697
aa(lp6698
(S'travel'
S''
S''
tp6699
a(S'verify'
S'at'
S' easel'
tp6700
a(S'turn'
S'left'
S''
tp6701
aa(lp6702
(S'travel'
S''
S''
tp6703
a(S'verify'
S'at'
S' barstool'
tp6704
aa(lp6705
(S'turn'
S'right'
S''
tp6706
a(S'verify'
S'front'
S' blue hallway'
tp6707
aa(lp6708
(S'travel'
S'steps'
S' 1'
tp6709
aa(lp6710
(S'turn'
S''
S''
tp6711
a(S'verify'
S'front'
S' yellow hallway'
tp6712
aa(lp6713
(S'travel'
S'steps'
S' 1'
tp6714
aa(lp6715
(S'verify'
S'front'
S' easel'
tp6716
aa(lp6717
(S'turn'
S''
S''
tp6718
a(S'verify'
S'front'
S' brick hallway'
tp6719
aa(lp6720
(S'travel'
S'steps'
S' 1'
tp6721
aa(lp6722
(S'travel'
S'steps'
S' 1'
tp6723
a(S'verify'
S'front'
S' wall'
tp6724
aa(lp6725
(S'travel'
S''
S''
tp6726
a(S'verify'
p6727
S'front'
S' wall'
tp6728
a(g6727
S'left'
S' wall'
tp6729
a(S'turn'
S'right'
S''
tp6730
a(S'verify'
S'front'
S' easel'
tp6731
aa(lp6732
(S'travel'
S'steps'
S' 1'
tp6733
aa(lp6734
(g155
S''
S''
tp6735
aa(lp6736
(g155
S''
S''
tp6737
aa(lp6738
(S'travel'
S'steps'
S' 1'
tp6739
a(S'verify'
S'side'
S' wood hallway'
tp6740
aa(lp6741
(S'travel'
S''
S''
tp6742
a(S'verify'
S'at'
S' easel'
tp6743
aa(lp6744
(S'travel'
S'steps'
S' 3'
tp6745
a(S'verify'
S'side'
S' blue hallway'
tp6746
aa(lp6747
(S'travel'
S'steps'
S' 1'
tp6748
a(S'turn'
S'left'
S''
tp6749
aa(lp6750
(S'travel'
S''
S''
tp6751
a(S'turn'
S''
S''
tp6752
a(S'travel'
S''
S''
tp6753
a(S'turn'
S''
S''
tp6754
a(S'travel'
S''
S''
tp6755
a(S'turn'
S''
S''
tp6756
aa(lp6757
(S'verify'
S'front'
S' butterfly wall'
tp6758
aa(lp6759
(S'turn'
S'left'
S''
tp6760
aa(lp6761
(S'turn'
S'right'
S''
tp6762
aa(lp6763
(S'verify'
S'front'
S' blue hallway'
tp6764
a(S'travel'
S'steps'
S' 2'
tp6765
aa(lp6766
(S'travel'
S''
S''
tp6767
a(S'verify'
S'side'
S' gravel hallway'
tp6768
a(S'turn'
S'right'
S''
tp6769
aa(lp6770
(S'travel'
S''
S''
tp6771
a(S'verify'
S'at'
S' barstool'
tp6772
aa(lp6773
(S'travel'
S'steps'
S' 1'
tp6774
aa(lp6775
(S'verify'
p6776
S'front'
S' hatrack'
tp6777
a(g6776
S'left'
S' hallway'
tp6778
aa(lp6779
(S'travel'
S'steps'
S' 1'
tp6780
a(S'verify'
S'side'
S' blue hallway'
tp6781
aa(lp6782
(S'verify'
S'left'
S' gravel hallway'
tp6783
aa(lp6784
(S'travel'
S'steps'
S' 3'
tp6785
a(S'verify'
S'side'
S' blue hallway'
tp6786
aa(lp6787
(S'turn'
S''
S''
tp6788
a(S'verify'
p6789
S'left'
S' wall'
tp6790
a(g6789
S'right'
S' flower hallway'
tp6791
a(g6789
S'front'
S' blue hallway'
tp6792
aa(lp6793
(S'travel'
S'steps'
S' 1'
tp6794
aa(lp6795
(S'verify'
S'front'
S' barstool'
tp6796
aa(lp6797
(S'turn'
S'right'
S''
tp6798
aa(lp6799
(S'turn'
S''
S''
tp6800
a(S'verify'
p6801
S'front'
S' gravel hallway'
tp6802
a(g6801
S'front'
S' easel'
tp6803
a(g6801
S'front'
S' butterfly wall'
tp6804
aa(lp6805
(S'travel'
S'steps'
S' 3'
tp6806
aa(lp6807
(S'travel'
S''
S''
tp6808
a(S'verify'
p6809
S'front'
S' wall'
tp6810
a(g6809
S'right'
S' wall'
tp6811
a(g6809
S'back'
S' concrete hallway'
tp6812
a(g6809
S'left'
S' concrete hallway'
tp6813
a(g6809
S'back'
S' butterfly wall'
tp6814
a(g6809
S'left'
S' butterfly wall'
tp6815
aa(lp6816
(S'verify'
S'left'
S' sofa'
tp6817
aa(lp6818
(S'travel'
S'steps'
S' 1'
tp6819
a(S'verify'
S'side'
S' wood hallway'
tp6820
aa(lp6821
(S'verify'
S'front'
S' chair'
tp6822
a(S'travel'
S'steps'
S' 2'
tp6823
a(S'verify'
S'back'
S' chair'
tp6824
aa(lp6825
(S'turn'
S''
S''
tp6826
a(S'verify'
p6827
S'back'
S' wall'
tp6828
a(g6827
S'front'
S' flower hallway'
tp6829
a(S'travel'
S'steps'
S' 1'
tp6830
aa(lp6831
(S'turn'
S''
S''
tp6832
a(S'verify'
p6833
S'back'
S' wall'
tp6834
a(g6833
S'at'
S' 3-intersection'
tp6835
aa(lp6836
(S'turn'
S'right'
S''
tp6837
aa(lp6838
(S'travel'
S''
S''
tp6839
a(S'verify'
S'left'
S' flower hallway'
tp6840
a(S'turn'
S'left'
S''
tp6841
aa(lp6842
(S'travel'
S''
S''
tp6843
a(S'verify'
S'side'
S' gravel hallway'
tp6844
aa(lp6845
(S'verify'
p6846
S'front'
S' chair'
tp6847
a(g6846
S'front'
S' hatrack'
tp6848
aa(lp6849
(S'turn'
S''
S''
tp6850
a(S'verify'
p6851
S'back'
S' wall'
tp6852
a(g6851
S'at'
S' 3-intersection'
tp6853
aa(lp6854
(S'travel'
S''
S''
tp6855
a(S'verify'
S'at'
S' easel'
tp6856
aa(lp6857
(S'verify'
S'front'
S' yellow hallway'
tp6858
a(S'travel'
S''
S''
tp6859
a(S'verify'
S'front'
S' wall'
tp6860
aa(lp6861
(S'travel'
S''
S''
tp6862
a(S'verify'
S'at'
S' easel'
tp6863
aa(lp6864
(S'turn'
S''
S''
tp6865
a(S'verify'
S'left'
S' wall'
tp6866
aa(lp6867
(S'verify'
S'front'
S' gravel hallway'
tp6868
a(S'travel'
S''
S''
tp6869
a(S'verify'
S'side'
S' brick hallway'
tp6870
aa(lp6871
(S'travel'
S'steps'
S' 1'
tp6872
aa(lp6873
(S'verify'
p6874
S'front'
S' brick hallway'
tp6875
a(g6874
S'front'
S' hatrack'
tp6876
a(g6874
S'front'
S' lamp'
tp6877
a(S'travel'
S'steps'
S' 6'
tp6878
a(S'verify'
p6879
S'side'
S' wood hallway'
tp6880
a(g6879
S'back'
S' lamp'
tp6881
a(g6879
S'back'
S' hatrack'
tp6882
aa(lp6883
(S'travel'
S'steps'
S' 1'
tp6884
aa(lp6885
(S'turn'
S'left'
S''
tp6886
aa(lp6887
(S'travel'
S'steps'
S' 1'
tp6888
aa(lp6889
(S'travel'
S'steps'
S' 1'
tp6890
aa(lp6891
(S'verify'
S'at'
S' easel'
tp6892
a(S'turn'
S'left'
S''
tp6893
a(S'travel'
S''
S''
tp6894
a(S'verify'
p6895
S'left'
S' wall'
tp6896
a(g6895
S'front'
S' wall'
tp6897
aa(lp6898
(S'turn'
S'left'
S''
tp6899
aa(lp6900
(S'turn'
S''
S''
tp6901
a(S'verify'
p6902
S'front'
S' gravel hallway'
tp6903
a(g6902
S'back'
S' easel'
tp6904
aa(lp6905
(S'travel'
S'steps'
S' 3'
tp6906
aa(lp6907
(S'turn'
S''
S''
tp6908
a(S'verify'
S'back'
S' wall'
tp6909
a(S'turn'
S'left'
S''
tp6910
aa(lp6911
(S'turn'
S''
S''
tp6912
a(S'verify'
p6913
S'front'
S' gravel hallway'
tp6914
a(g6913
S'front'
S' easel'
tp6915
aa(lp6916
(S'verify'
S'front'
S' brick hallway'
tp6917
a(S'travel'
S''
S''
tp6918
a(S'verify'
S'side'
S' gravel hallway'
tp6919
aa(lp6920
(S'turn'
S'left'
S''
tp6921
aa(lp6922
(S'turn'
S'right'
S''
tp6923
aa(lp6924
(S'turn'
S'right'
S''
tp6925
a(S'verify'
S'front'
S' blue hallway'
tp6926
a(S'travel'
S'steps'
S' 4'
tp6927
aa(lp6928
(S'verify'
S'front'
S' chair'
tp6929
a(S'travel'
S'steps'
S' 2'
tp6930
a(S'verify'
S'back'
S' chair'
tp6931
aa(lp6932
(S'travel'
S'steps'
S' 1'
tp6933
aa(lp6934
(S'turn'
S''
S''
tp6935
a(S'verify'
S'left'
S' wall'
tp6936
aa(lp6937
(S'turn'
S''
S''
tp6938
a(S'verify'
S'front'
S' flower hallway'
tp6939
a(S'travel'
S''
S''
tp6940
a(S'verify'
S'side'
S' brick hallway'
tp6941
aa(lp6942
(S'verify'
p6943
S'right'
S' chair'
tp6944
a(g6943
S'front'
S' sofa'
tp6945
aa(lp6946
(S'verify'
p6947
S'left'
S' chair'
tp6948
a(g6947
S'left'
S' concrete hallway'
tp6949
aa(lp6950
(S'turn'
S'right'
S''
tp6951
aa(lp6952
(S'turn'
S''
S''
tp6953
a(S'verify'
S'front'
S' brick hallway'
tp6954
aa(lp6955
(S'turn'
S''
S''
tp6956
a(S'verify'
p6957
S'back'
S' wall'
tp6958
a(g6957
S'at'
S' 3-intersection'
tp6959
aa(lp6960
(S'turn'
S'right'
S''
tp6961
aa(lp6962
(S'verify'
S'front'
S' barstool'
tp6963
a(S'travel'
S''
S''
tp6964
a(S'verify'
p6965
S'back'
S' barstool'
tp6966
a(g6965
S'right'
S' concrete hallway'
tp6967
aa(lp6968
(S'travel'
S'steps'
S' 2'
tp6969
a(S'verify'
S'side'
S' wood hallway'
tp6970
aa(lp6971
(S'verify'
S'front'
S' lamp'
tp6972
a(S'travel'
S''
S''
tp6973
aa(lp6974
(S'turn'
S''
S''
tp6975
a(S'verify'
S'front'
S' chair'
tp6976
aa(lp6977
(S'turn'
S'left'
S''
tp6978
aa(lp6979
(S'verify'
S'right'
S' concrete hallway'
tp6980
aa(lp6981
(S'turn'
S''
S''
tp6982
a(S'verify'
S'front'
S' tower wall'
tp6983
aa(lp6984
(S'travel'
S''
S''
tp6985
a(S'verify'
S'side'
S' wood hallway'
tp6986
aa(lp6987
(S'turn'
S'right'
S''
tp6988
a(S'verify'
p6989
S'front'
S' blue hallway'
tp6990
a(g6989
S'front'
S' hatrack'
tp6991
a(S'travel'
S''
S''
tp6992
aa(lp6993
(S'verify'
S'front'
S' chair'
tp6994
aa(lp6995
(S'turn'
S''
S''
tp6996
a(S'verify'
S'front'
S' hatrack'
tp6997
a(S'travel'
S''
S''
tp6998
a(S'verify'
S'at'
S' hatrack'
tp6999
aa(lp7000
(S'travel'
S'steps'
S' 1'
tp7001
aa(lp7002
(S'travel'
S''
S''
tp7003
aa(lp7004
(S'verify'
S'front'
S' easel'
tp7005
aa(lp7006
(S'travel'
S'steps'
S' 1'
tp7007
aa(lp7008
(S'turn'
S''
S''
tp7009
a(S'verify'
p7010
S'front'
S' chair'
tp7011
a(g7010
S'front'
S' blue hallway'
tp7012
a(S'travel'
S''
S''
tp7013
a(S'verify'
p7014
S'back'
S' chair'
tp7015
a(g7014
S'front'
S' wall'
tp7016
aa(lp7017
(S'travel'
S''
S''
tp7018
a(S'verify'
S'at'
S' easel'
tp7019
a(S'turn'
S'left'
S''
tp7020
aa(lp7021
(S'turn'
S''
S''
tp7022
a(S'verify'
p7023
S'front'
S' yellow hallway'
tp7024
a(g7023
S'back'
S' wall'
tp7025
a(S'travel'
S''
S''
tp7026
a(S'verify'
S'front'
S' wall'
tp7027
aa(lp7028
(S'travel'
S'steps'
S' 1'
tp7029
aa(lp7030
(S'travel'
S'steps'
S' 1'
tp7031
a(S'verify'
S'right'
S' flower hallway'
tp7032
aa(lp7033
(S'turn'
S''
S''
tp7034
a(S'verify'
S'front'
S' concrete hallway'
p7035
tp7036
a(S'travel'
S''
S''
tp7037
a(S'verify'
S'side'
S' blue hallway'
tp7038
aa(lp7039
(S'turn'
S''
S''
tp7040
a(S'verify'
p7041
S'back'
S' easel'
tp7042
a(g7041
S'front'
S' gravel hallway'
tp7043
a(S'travel'
S'steps'
S' 2'
tp7044
aa(lp7045
(S'turn'
S''
S''
tp7046
a(S'verify'
p7047
S'front'
S' gravel hallway'
tp7048
a(g7047
S'front'
S' tower wall'
tp7049
aa(lp7050
(S'verify'
S'front'
S' hatrack'
tp7051
a(S'travel'
S'steps'
S' 3'
tp7052
a(S'verify'
p7053
S'back'
S' hatrack'
tp7054
a(g7053
S'side'
S' gravel hallway'
tp7055
aa(lp7056
(S'travel'
S''
S''
tp7057
aa(lp7058
(S'turn'
S'left'
S''
tp7059
aa(lp7060
(S'turn'
S'left'
S''
tp7061
a(S'travel'
S''
S''
tp7062
a(S'verify'
p7063
S'at'
S' 4-intersection'
tp7064
a(g7063
S'front'
S' brick hallway'
tp7065
a(g7063
S'side'
S' flower hallway'
tp7066
a(g7063
S'at'
S' easel'
tp7067
aa(lp7068
(S'travel'
S''
S''
tp7069
a(S'verify'
S'right'
S' hallway'
tp7070
a(S'turn'
S'right'
S''
tp7071
a(S'travel'
S''
S''
tp7072
a(S'verify'
p7073
S'front'
S' wall'
tp7074
a(g7073
S'left'
S' wall'
tp7075
a(g7073
S'right'
S' wall'
tp7076
aa(lp7077
(S'turn'
S'left'
S''
tp7078
aa(lp7079
(S'turn'
S''
S''
tp7080
a(S'verify'
S'left'
S' wall'
tp7081
aa(lp7082
(S'turn'
S'right'
S''
tp7083
aa(lp7084
(S'verify'
S'front'
S' lamp'
tp7085
a(S'travel'
S''
S''
tp7086
a(S'verify'
S'at'
S' lamp'
tp7087
a(S'travel'
S'steps'
S' 2'
tp7088
a(S'turn'
S'right'
S''
tp7089
a(S'travel'
S''
S''
tp7090
a(S'verify'
p7091
S'front'
S' wall'
tp7092
a(g7091
S'right'
S' hallway'
tp7093
a(g7091
S'left'
S' hallway'
tp7094
aa(lp7095
(S'turn'
S'left'
S''
tp7096
aa(lp7097
(S'travel'
S'steps'
S' 5'
tp7098
aa(lp7099
(S'turn'
S'left'
S''
tp7100
aa(lp7101
(S'verify'
S'front'
S' brick hallway'
tp7102
a(S'travel'
S''
S''
tp7103
aa(lp7104
(S'travel'
S'steps'
S' 2'
tp7105
aa(lp7106
(S'travel'
S'steps'
S' 1'
tp7107
aa(lp7108
(S'travel'
S''
S''
tp7109
a(S'verify'
S'at'
S' chair'
tp7110
a(S'turn'
S'left'
S''
tp7111
a(S'verify'
S'front'
S' blue hallway'
tp7112
aa(lp7113
(S'verify'
S'at'
S' easel'
tp7114
aa(lp7115
(S'travel'
S''
S''
tp7116
a(S'verify'
S'left'
S' easel'
tp7117
aa(lp7118
(S'travel'
S'steps'
S' 3'
tp7119
aa(lp7120
(S'travel'
S'steps'
S' 4'
tp7121
aa(lp7122
(S'turn'
S'left'
S''
tp7123
aa(lp7124
(S'travel'
S''
S''
tp7125
a(S'verify'
S'at'
S' chair'
tp7126
a(S'turn'
S'left'
S''
tp7127
aa(lp7128
(S'travel'
S'steps'
S' 1'
tp7129
a(S'verify'
p7130
S'front'
S' butterfly wall'
tp7131
a(g7130
S'back'
S' butterfly wall'
tp7132
aa(lp7133
(S'travel'
S''
S''
tp7134
a(S'verify'
S'front'
S' flower hallway'
tp7135
aa(lp7136
(S'turn'
S''
S''
tp7137
a(S'verify'
S'right'
S' wall'
tp7138
aa(lp7139
(S'verify'
S'left'
S' sofa'
tp7140
aa(lp7141
(S'travel'
S''
S''
tp7142
a(S'verify'
S'at'
S' easel'
tp7143
aa(lp7144
(S'travel'
S'steps'
S' 2'
tp7145
a(S'verify'
S'front'
S' wall'
tp7146
aa(lp7147
(S'travel'
S''
S''
tp7148
a(S'verify'
S'right'
S' hallway'
tp7149
a(S'turn'
S'right'
S''
tp7150
aa(lp7151
(S'verify'
p7152
S'back'
S' butterfly wall'
tp7153
a(g7152
S'left'
S' butterfly wall'
p7154
tp7155
aa(lp7156
(S'turn'
S'left'
S''
tp7157
aa(lp7158
(S'verify'
S'at'
S' easel'
tp7159
aa(lp7160
(S'turn'
S''
S''
tp7161
a(S'verify'
S'front'
S' yellow hallway'
tp7162
aa(lp7163
(S'travel'
S''
S''
tp7164
a(S'verify'
S'side'
S' grass hallway'
tp7165
a(S'turn'
S'right'
S''
tp7166
a(S'verify'
S'front'
S' grass hallway'
tp7167
a(S'travel'
S''
S''
tp7168
a(S'verify'
S'at'
S' hatrack'
tp7169
aa(lp7170
(S'turn'
S''
S''
tp7171
a(S'verify'
S'front'
S' flower hallway'
tp7172
aa(lp7173
(S'turn'
S''
S''
tp7174
a(S'verify'
S'front'
S' yellow hallway'
tp7175
a(S'travel'
S''
S''
tp7176
a(S'verify'
S'front'
S' wall'
tp7177
aa(lp7178
(S'turn'
S''
S''
tp7179
a(S'verify'
p7180
S'front'
S' wood hallway'
tp7181
a(g7180
S'front'
S' easel'
tp7182
aa(lp7183
(S'turn'
S''
S''
tp7184
a(S'verify'
S'front'
S' yellow hallway'
tp7185
a(S'travel'
S''
S''
tp7186
a(S'verify'
S'side'
S' gravel hallway'
tp7187
aa(lp7188
(S'travel'
S'steps'
S' 1'
tp7189
a(S'turn'
S'left'
S''
tp7190
aa(lp7191
(S'travel'
S''
S''
tp7192
a(S'verify'
p7193
S'front'
S' concrete hallway'
tp7194
a(g7193
S'back'
S' concrete hallway'
p7195
tp7196
a(g7193
S'at'
S' hatrack'
tp7197
aa(lp7198
(S'turn'
S'right'
S''
tp7199
a(S'verify'
S'front'
S' blue hallway'
tp7200
aa(lp7201
(S'turn'
S'left'
S''
tp7202
aa(lp7203
(S'travel'
S''
S''
tp7204
aa(lp7205
(S'turn'
S'left'
S''
tp7206
aa(lp7207
(S'verify'
S'side'
S' gravel hallway'
tp7208
aa(lp7209
(S'travel'
S''
S''
tp7210
a(S'verify'
S'at'
S' sofa'
tp7211
a(S'turn'
S'right'
S''
tp7212
aa(lp7213
(S'turn'
S''
S''
tp7214
a(S'verify'
S'front'
S' grass hallway'
tp7215
a(S'travel'
S''
S''
tp7216
a(S'verify'
S'side'
S' brick hallway'
tp7217
aa(lp7218
(S'turn'
S''
S''
tp7219
a(S'verify'
S'front'
S' hatrack'
tp7220
aa(lp7221
(S'turn'
S'left'
S''
tp7222
aa(lp7223
(S'turn'
S'right'
p7224
S''
tp7225
aa(lp7226
(S'turn'
S''
S''
tp7227
a(S'verify'
S'right'
S' wall'
tp7228
aa(lp7229
(S'travel'
S'steps'
S' 2'
tp7230
aa(lp7231
(g155
S''
S''
tp7232
aa(lp7233
(S'verify'
p7234
S'back'
S' butterfly wall'
tp7235
a(g7234
S'left'
S' butterfly wall'
tp7236
aa(lp7237
(g155
S''
S''
tp7238
aa(lp7239
(S'travel'
S''
S''
tp7240
a(S'verify'
S'front'
S' wall'
tp7241
aa(lp7242
(S'travel'
S''
S''
tp7243
a(S'verify'
S'front'
S' fish wall'
tp7244
aa(lp7245
(S'turn'
S''
S''
tp7246
a(S'verify'
p7247
S'front'
S' easel'
tp7248
a(g7247
S'front'
S' brick hallway'
tp7249
aa(lp7250
(S'travel'
S''
S''
tp7251
aa(lp7252
(S'verify'
S'side'
S' concrete hallway'
tp7253
aa(lp7254
(S'travel'
S''
S''
tp7255
a(S'verify'
S'left'
S' flower hallway'
tp7256
a(S'travel'
S''
S''
tp7257
aa(lp7258
(S'turn'
S'right'
S''
tp7259
aa(lp7260
(S'turn'
S''
S''
tp7261
a(S'verify'
S'front'
S' easel'
tp7262
aa(lp7263
(S'travel'
S''
S''
tp7264
a(S'verify'
S'side'
S' gravel hallway'
tp7265
aa(lp7266
(S'turn'
S'left'
S''
tp7267
aa(lp7268
(S'travel'
S''
S''
tp7269
a(S'verify'
S'left'
S' fish wall'
tp7270
aa(lp7271
(S'travel'
S''
S''
tp7272
a(S'verify'
S'side'
S' blue hallway'
tp7273
a(S'turn'
S'right'
S''
tp7274
aa(lp7275
(S'travel'
S'steps'
S' 1'
tp7276
aa(lp7277
(S'turn'
S'right'
S''
tp7278
aa(lp7279
(S'turn'
S'left'
S''
tp7280
aa(lp7281
(S'verify'
S'front'
S' lamp'
tp7282
a(S'travel'
S''
S''
tp7283
a(S'verify'
S'back'
S' lamp'
tp7284
aa(lp7285
(S'turn'
S'left'
S''
tp7286
aa(lp7287
(S'travel'
S''
S''
tp7288
a(S'verify'
S'at'
S' chair'
tp7289
aa(lp7290
(S'turn'
S'right'
S''
tp7291
a(S'travel'
S'steps'
S' 3'
tp7292
aa(lp7293
(S'travel'
S''
S''
tp7294
a(S'verify'
S'side'
S' concrete hallway'
tp7295
aa(lp7296
(S'turn'
S''
S''
tp7297
a(S'verify'
p7298
S'front'
S' blue hallway'
tp7299
a(g7298
S'back'
S' sofa'
tp7300
a(g7298
S'back'
S' hatrack'
tp7301
aa(lp7302
(S'verify'
S'right'
S' butterfly wall'
tp7303
aa(lp7304
(S'verify'
p7305
S'front'
S' hatrack'
tp7306
a(g7305
S'left'
S' concrete hallway'
tp7307
aa(lp7308
(S'turn'
S'left'
S''
tp7309
aa(lp7310
(S'turn'
S'left'
S''
tp7311
aa(lp7312
(S'turn'
S''
S''
tp7313
a(S'verify'
p7314
S'front'
S' yellow hallway'
tp7315
a(g7314
S'front'
S' hatrack'
tp7316
aa(lp7317
(S'travel'
S'steps'
S' 1'
tp7318
a(S'verify'
S'side'
S' brick hallway'
tp7319
aa(lp7320
(S'verify'
S'side'
S' brick hallway'
tp7321
a(S'turn'
S'left'
S''
tp7322
aa(lp7323
(S'turn'
S''
S''
tp7324
a(S'verify'
p7325
S'front'
S' gravel hallway'
tp7326
a(g7325
S'left'
S' tower wall'
p7327
tp7328
a(g7325
S'right'
S' tower wall'
p7329
tp7330
a(g7325
S'front'
S' lamp'
tp7331
aa(lp7332
(S'travel'
S'steps'
S' 4'
tp7333
aa(lp7334
(S'travel'
S'steps'
S' 2'
tp7335
aa(lp7336
(S'turn'
S'left'
S''
tp7337
aa(lp7338
(S'travel'
S'steps'
S' 1'
tp7339
aa(lp7340
(S'travel'
S''
S''
tp7341
a(S'verify'
S'front'
S' wall'
tp7342
aa(lp7343
(S'travel'
S'steps'
S' 1'
tp7344
aa(lp7345
(S'turn'
S'left'
S''
tp7346
a(S'verify'
p7347
S'front'
S' yellow hallway'
tp7348
a(g7347
S'front'
S' hatrack'
tp7349
a(S'travel'
S''
S''
tp7350
a(S'verify'
p7351
S'front'
S' wall'
tp7352
a(g7351
S'back'
S' hatrack'
tp7353
aa(lp7354
(S'travel'
S''
S''
tp7355
a(S'verify'
S'at'
S' easel'
tp7356
aa(lp7357
(S'turn'
S'left'
S''
tp7358
a(S'verify'
S'front'
S' brick hallway'
tp7359
aa(lp7360
(S'travel'
S'steps'
S' 1'
tp7361
aa(lp7362
(S'turn'
S''
S''
tp7363
a(S'verify'
p7364
S'back'
S' wall'
tp7365
a(g7364
S'at'
S' 3-intersection'
tp7366
aa(lp7367
(S'verify'
S'front'
S' brick hallway'
tp7368
a(S'travel'
S''
S''
tp7369
a(S'verify'
S'side'
S' gravel hallway'
tp7370
aa(lp7371
(S'travel'
S''
S''
tp7372
a(S'verify'
S'front'
S' lamp'
tp7373
aa(lp7374
(S'travel'
S'steps'
S' 1'
tp7375
aa(lp7376
(S'verify'
S'front'
S' chair'
tp7377
a(S'travel'
S''
S''
tp7378
a(S'verify'
p7379
S'back'
S' chair'
tp7380
a(g7379
S'at'
S' barstool'
tp7381
aa(lp7382
(S'travel'
S'steps'
S' 3'
tp7383
aa(lp7384
(S'travel'
S''
S''
tp7385
a(S'verify'
p7386
S'front'
S' brick hallway'
tp7387
a(g7386
S'back'
S' brick hallway'
tp7388
aa(lp7389
(S'travel'
S'steps'
S' 2'
tp7390
aa(lp7391
(S'turn'
S'right'
S''
tp7392
aa(lp7393
(S'verify'
S'front'
S' chair'
tp7394
a(S'travel'
S'steps'
S' 2'
tp7395
a(S'verify'
p7396
S'back'
S' chair'
tp7397
a(g7396
S'at'
S' barstool'
tp7398
aa(lp7399
(S'turn'
S''
S''
tp7400
a(S'verify'
p7401
S'back'
S' wall'
tp7402
a(g7401
S'right'
S' wall'
tp7403
a(g7401
S'left'
S' wall'
tp7404
aa(lp7405
(S'turn'
S'right'
S''
tp7406
a(S'verify'
S'front'
S' blue hallway'
tp7407
aa(lp7408
(S'verify'
p7409
S'front'
S' wood hallway'
tp7410
a(g7409
S'back'
S' wood hallway'
tp7411
a(g7409
S'left'
S' concrete hallway'
tp7412
aa(lp7413
(S'travel'
S'steps'
S' 3'
tp7414
a(S'verify'
S'front'
S' wall'
tp7415
aa(lp7416
(S'travel'
S'steps'
S' 1'
tp7417
a(S'verify'
S'side'
S' concrete hallway'
tp7418
aa(lp7419
(S'turn'
S'right'
S''
tp7420
aa(lp7421
(S'travel'
S'steps'
S' 2'
tp7422
a(S'verify'
S'at'
S' sofa'
tp7423
aa(lp7424
(S'travel'
S''
S''
tp7425
a(S'verify'
S'at'
S' hatrack'
tp7426
a(S'turn'
S'left'
S''
tp7427
aa(lp7428
(S'travel'
S'steps'
S' 1'
tp7429
a(S'verify'
S'side'
S' flower hallway'
tp7430
aa(lp7431
(S'turn'
S'right'
S''
tp7432
aa(lp7433
(S'turn'
S'left'
S''
tp7434
aa(lp7435
(S'travel'
S'steps'
S' 1'
tp7436
a(S'turn'
S'left'
S''
tp7437
a(S'verify'
S'front'
S' flower hallway'
tp7438
aa(lp7439
(S'verify'
p7440
S'left'
S' flower hallway'
p7441
tp7442
a(g7440
S'right'
S' flower hallway'
p7443
tp7444
aa(lp7445
(S'verify'
p7446
S'front'
S' sofa'
tp7447
a(g7446
S'right'
S' chair'
tp7448
aa(lp7449
(S'travel'
S'steps'
S' 1'
tp7450
a(S'verify'
S'side'
S' blue hallway'
tp7451
aa(lp7452
(S'travel'
S'steps'
S' 1'
tp7453
aa(lp7454
(S'verify'
p7455
S'left'
S' wall'
tp7456
a(g7455
S'right'
S' wall'
tp7457
a(g7455
S'front'
S' wall'
tp7458
a(g7455
S'back'
S' fish wall'
tp7459
aa(lp7460
(S'travel'
S'steps'
S' 1'
tp7461
a(S'turn'
S'left'
S''
tp7462
a(S'verify'
S'front'
S' blue hallway'
tp7463
aa(lp7464
(S'turn'
S'left'
S''
tp7465
aa(lp7466
(S'turn'
S'left'
S''
tp7467
aa(lp7468
(S'turn'
S''
S''
tp7469
a(S'verify'
S'front'
S' brick hallway'
tp7470
aa(lp7471
(S'travel'
S'steps'
S' 1'
tp7472
aa(lp7473
(S'travel'
S'steps'
S' 3'
tp7474
aa(lp7475
(S'turn'
S'right'
S''
tp7476
aa(lp7477
(S'turn'
S''
S''
tp7478
a(S'verify'
p7479
S'front'
S' wood hallway'
tp7480
a(g7479
S'front'
S' easel'
tp7481
aa(lp7482
(S'verify'
p7483
S'front'
S' wood hallway'
tp7484
a(g7483
S'back'
S' wood hallway'
tp7485
aa(lp7486
(S'turn'
S'left'
S''
tp7487
aa(lp7488
(S'travel'
S'steps'
S' 1'
tp7489
aa(lp7490
(S'verify'
S'front'
S' chair'
tp7491
a(S'travel'
S''
S''
tp7492
a(S'verify'
p7493
S'back'
S' chair'
tp7494
a(g7493
S'side'
S' flower hallway'
tp7495
aa(lp7496
(S'turn'
S''
S''
tp7497
a(S'verify'
S'right'
S' wall'
tp7498
aa(lp7499
(S'turn'
S'left'
S''
tp7500
aa(lp7501
(S'verify'
S'front'
S' flower hallway'
tp7502
aa(lp7503
(S'turn'
S'left'
S''
tp7504
aa(lp7505
(S'turn'
S'left'
S''
tp7506
aa(lp7507
(S'travel'
S''
S''
tp7508
a(S'verify'
p7509
S'front'
S' concrete hallway'
tp7510
a(g7509
S'side'
S' concrete hallway'
tp7511
a(g7509
S'front'
S' butterfly wall'
tp7512
a(g7509
S'side'
S' butterfly wall'
p7513
tp7514
aa(lp7515
(S'travel'
S''
S''
tp7516
a(S'verify'
S'side'
S' blue hallway'
tp7517
aa(lp7518
(S'verify'
S'side'
S' blue hallway'
tp7519
aa(lp7520
(S'travel'
S''
S''
tp7521
a(S'verify'
p7522
S'front'
S' wall'
tp7523
a(g7522
S'left'
S' wall'
tp7524
a(g7522
S'right'
S' wall'
tp7525
aa(lp7526
(S'travel'
S''
S''
tp7527
a(S'verify'
S'front'
S' wall'
tp7528
a(S'turn'
S'right'
S''
tp7529
aa(lp7530
(S'travel'
S'steps'
S' 1'
tp7531
a(S'verify'
S'side'
S' blue hallway'
tp7532
aa(lp7533
(S'travel'
S''
S''
tp7534
a(S'verify'
S'front'
S' wall'
tp7535
aa(lp7536
(S'travel'
S''
S''
tp7537
a(S'verify'
p7538
S'front'
S' wall'
tp7539
a(g7538
S'right'
S' wall'
tp7540
a(g7538
S'left'
S' wall'
tp7541
aa(lp7542
(S'turn'
S'left'
S''
tp7543
aa(lp7544
(S'verify'
S'front'
S' lamp'
tp7545
a(S'travel'
S'steps'
S' 3'
tp7546
a(S'verify'
S'back'
S' lamp'
tp7547
aa(lp7548
(S'turn'
S''
S''
tp7549
aa(lp7550
(S'travel'
S'steps'
S' 1'
tp7551
aa(lp7552
(S'turn'
S'left'
S''
tp7553
a(S'travel'
S'steps'
S' 4'
tp7554
aa(lp7555
(S'travel'
S'steps'
S' 1'
tp7556
aa(lp7557
(S'turn'
S'right'
S''
tp7558
aa(lp7559
(S'turn'
S''
S''
tp7560
a(S'verify'
S'front'
S' grass hallway'
tp7561
a(S'travel'
S''
S''
tp7562
a(S'verify'
S'at'
S' hatrack'
tp7563
aa(lp7564
(S'travel'
S'steps'
S' 1'
tp7565
aa(lp7566
(S'travel'
S''
S''
tp7567
a(S'verify'
S'at'
S' chair'
tp7568
a(S'turn'
S'right'
S''
tp7569
aa(lp7570
(S'turn'
S'right'
S''
tp7571
aa(lp7572
(S'verify'
S'front'
S' chair'
tp7573
a(S'travel'
S''
S''
tp7574
a(S'verify'
S'back'
S' chair'
tp7575
aa(lp7576
(S'turn'
S'left'
S''
tp7577
a(S'verify'
S'front'
S' brick hallway'
tp7578
a(S'travel'
S'steps'
S' 4'
tp7579
aa(lp7580
(S'travel'
S''
S''
tp7581
a(S'verify'
S'at'
S' hatrack'
tp7582
a(S'turn'
S'right'
S''
tp7583
aa(lp7584
(S'travel'
S''
S''
tp7585
a(S'verify'
S'at'
S' lamp'
tp7586
a(S'travel'
S'steps'
S' 1'
tp7587
a(S'verify'
S'front'
S' butterfly wall'
tp7588
aa(lp7589
(S'turn'
S''
S''
tp7590
a(S'verify'
S'left'
S' wall'
tp7591
aa(lp7592
(S'travel'
S'steps'
S' 1'
tp7593
aa(lp7594
(S'travel'
S'steps'
S' 1'
tp7595
aa(lp7596
(S'turn'
S''
S''
tp7597
a(S'verify'
S'back'
S' wall'
tp7598
a(S'turn'
S'left'
S''
tp7599
aa(lp7600
(S'turn'
S''
S''
tp7601
a(S'verify'
S'front'
S' gravel hallway'
tp7602
aa(lp7603
(S'turn'
S'right'
S''
tp7604
aa(lp7605
(S'turn'
S''
S''
tp7606
a(S'travel'
S''
S''
tp7607
a(S'verify'
S'side'
S' brick hallway'
tp7608
aa(lp7609
(S'turn'
S'right'
S''
tp7610
a(S'travel'
S''
S''
tp7611
a(S'verify'
S'at'
S' hatrack'
tp7612
aa(lp7613
(S'travel'
S''
S''
tp7614
a(S'verify'
S'front'
S' wall'
tp7615
aa(lp7616
(S'travel'
S''
S''
tp7617
a(S'verify'
S'side'
S' blue hallway'
tp7618
aa(lp7619
(S'travel'
S''
S''
tp7620
a(S'verify'
p7621
S'front'
S' wall'
tp7622
a(g7621
S'left'
S' wall'
tp7623
aa(lp7624
(S'verify'
S'front'
S' gravel hallway'
tp7625
aa(lp7626
(S'travel'
S''
S''
tp7627
a(S'verify'
p7628
S'front'
S' wall'
tp7629
a(g7628
S'left'
S' blue hallway'
tp7630
a(g7628
S'right'
S' blue hallway'
tp7631
aa(lp7632
(S'verify'
S'front'
S' sofa'
tp7633
aa(lp7634
(S'travel'
S''
S''
tp7635
a(S'verify'
p7636
S'front'
S' gravel hallway'
tp7637
a(g7636
S'side'
S' yellow hallway'
tp7638
a(g7636
S'at'
S' easel'
tp7639
aa(lp7640
(S'verify'
S'front'
S' lamp'
tp7641
aa(lp7642
(S'verify'
S'at'
S' chair'
tp7643
aa(lp7644
(S'travel'
S'steps'
S' 1'
tp7645
a(S'verify'
S'side'
S' concrete hallway'
tp7646
aa(lp7647
(S'travel'
S'steps'
S' 1'
tp7648
aa(lp7649
(S'travel'
S'steps'
S' 3'
tp7650
aa(lp7651
(S'turn'
S''
S''
tp7652
a(S'verify'
S'back'
S' wall'
tp7653
a(S'turn'
S'right'
S''
tp7654
aa(lp7655
(S'turn'
S''
S''
tp7656
a(S'verify'
S'back'
S' sofa'
tp7657
aa(lp7658
(S'turn'
S'right'
S''
tp7659
aa(lp7660
(S'turn'
S'right'
S''
tp7661
a(S'travel'
S'steps'
S' 4'
tp7662
aa(lp7663
(S'verify'
S'front'
S' gravel hallway'
tp7664
a(S'travel'
S''
S''
tp7665
a(S'verify'
S'side'
S' yellow hallway'
tp7666
aa(lp7667
(S'turn'
S'right'
S''
tp7668
aa(lp7669
(S'turn'
S''
S''
tp7670
a(S'verify'
p7671
S'front'
S' brick hallway'
tp7672
a(g7671
S'front'
S' lamp'
tp7673
a(S'travel'
S''
S''
tp7674
a(S'verify'
S'at'
S' hatrack'
tp7675
a(S'travel'
S'steps'
S' 1'
tp7676
a(S'verify'
S'back'
S' lamp'
tp7677
aa(lp7678
(S'turn'
S''
S''
tp7679
a(S'verify'
S'back'
S' wall'
tp7680
a(S'turn'
S'left'
S''
tp7681
aa(lp7682
(S'travel'
S'steps'
S' 2'
tp7683
aa(lp7684
(S'verify'
p7685
S'front'
S' barstool'
tp7686
a(g7685
S'front'
S' chair'
tp7687
a(S'travel'
S'steps'
S' 4'
tp7688
a(S'verify'
p7689
S'back'
S' barstool'
p7690
tp7691
a(g7689
S'back'
S' chair'
tp7692
a(g7689
S'side'
S' grass hallway'
tp7693
aa(lp7694
(S'verify'
S'left'
S' easel'
tp7695
aa(lp7696
(S'turn'
S'left'
S''
tp7697
aa(lp7698
(S'turn'
S'left'
S''
tp7699
aa(lp7700
(S'verify'
p7701
S'at'
S' easel'
tp7702
a(g7701
S'left'
S' tower wall'
tp7703
a(g7701
S'right'
S' butterfly wall'
tp7704
aa(lp7705
(S'verify'
S'front'
S' gravel hallway'
tp7706
a(S'travel'
S'steps'
S' 1'
tp7707
aa(lp7708
(S'turn'
S'right'
S''
tp7709
a(S'travel'
S'steps'
S' 1'
tp7710
aa(lp7711
(S'turn'
S''
S''
tp7712
a(S'verify'
S'front'
S' flower hallway'
tp7713
a(S'travel'
S''
S''
tp7714
a(S'verify'
S'side'
S' brick hallway'
tp7715
aa(lp7716
(S'turn'
S''
S''
tp7717
a(S'verify'
S'back'
S' wall'
tp7718
aa(lp7719
(S'turn'
S'left'
S''
tp7720
aa(lp7721
(S'turn'
S'right'
S''
tp7722
aa(lp7723
(S'turn'
S''
S''
tp7724
a(S'verify'
p7725
S'back'
S' wall'
tp7726
a(g7725
S'at'
S' 3-intersection'
tp7727
aa(lp7728
(S'travel'
S''
S''
tp7729
aa(lp7730
(S'verify'
S'at'
S' easel'
tp7731
a(S'travel'
S'steps'
S' 1'
tp7732
a(S'verify'
p7733
S'front'
S' butterfly wall'
tp7734
a(g7733
S'back'
S' butterfly wall'
tp7735
aa(lp7736
(S'verify'
p7737
S'left'
S' blue hallway'
tp7738
a(g7737
S'back'
S' chair'
tp7739
aa(lp7740
(S'travel'
S''
S''
tp7741
a(S'verify'
S'side'
S' brick hallway'
tp7742
a(S'turn'
S'right'
S''
tp7743
a(S'verify'
S'front'
S' lamp'
tp7744
aa(lp7745
(S'travel'
S'steps'
S' 1'
tp7746
aa(lp7747
(S'travel'
S''
S''
tp7748
a(S'turn'
S'left'
S''
tp7749
a(S'verify'
S'front'
S' flower hallway'
tp7750
aa(lp7751
(S'verify'
p7752
S'front'
S' yellow hallway'
tp7753
a(g7752
S'side'
S' gravel hallway'
tp7754
a(S'turn'
S'right'
S''
tp7755
aa(lp7756
(S'turn'
S''
S''
tp7757
a(S'verify'
S'back'
S' wall'
tp7758
a(S'turn'
S'left'
S''
tp7759
aa(lp7760
(S'verify'
S'front'
S' brick hallway'
tp7761
a(S'travel'
S''
S''
tp7762
a(S'verify'
S'side'
S' flower hallway'
tp7763
aa(lp7764
(S'turn'
S''
S''
tp7765
a(S'verify'
p7766
S'front'
S' gravel hallway'
tp7767
a(g7766
S'front'
S' easel'
tp7768
aa(lp7769
(S'turn'
S''
S''
tp7770
a(S'verify'
p7771
S'left'
S' wall'
tp7772
a(g7771
S'right'
S' wall'
tp7773
a(g7771
S'back'
S' wall'
tp7774
aa(lp7775
(S'verify'
p7776
S'front'
S' brick hallway'
tp7777
a(g7776
S'front'
S' lamp'
tp7778
a(g7776
S'front'
S' easel'
tp7779
a(S'travel'
S'steps'
S' 4'
tp7780
a(S'verify'
p7781
S'side'
S' grass hallway'
tp7782
a(g7781
S'back'
S' easel'
tp7783
a(g7781
S'back'
S' lamp'
tp7784
aa(lp7785
(S'travel'
S''
S''
tp7786
a(S'verify'
S'left'
S' yellow hallway'
tp7787
aa(lp7788
(S'turn'
S'left'
S''
tp7789
aa(lp7790
(S'travel'
S'steps'
S' 1'
tp7791
a(S'verify'
S'side'
S' blue hallway'
tp7792
aa(lp7793
(S'travel'
S'steps'
S' 3'
tp7794
a(S'verify'
p7795
S'right'
S' wall'
tp7796
a(g7795
S'side'
S' grass hallway'
tp7797
a(g7795
S'front'
S' wall'
tp7798
aa(lp7799
(S'travel'
S'steps'
S' 2'
tp7800
a(S'verify'
S'side'
S' flower hallway'
tp7801
aa(lp7802
(S'turn'
S''
S''
tp7803
a(S'verify'
S'front'
S' chair'
tp7804
a(S'travel'
S''
S''
tp7805
aa(lp7806
(S'travel'
S'steps'
S' 2'
tp7807
aa(lp7808
(S'travel'
S'steps'
S' 1'
tp7809
a(S'verify'
S'side'
S' blue hallway'
tp7810
aa.