(lp1
(lp2
(S'turn'
S''
S''
tp3
a(S'verify'
S'back'
S' wall'
tp4
a(S'turn'
S'left'
S''
tp5
aa(lp6
(S'verify'
S'front'
S' flower hallway'
tp7
a(S'travel'
S''
S''
tp8
a(S'verify'
S'side'
S' hallway'
tp9
a(S'turn'
S'right'
S''
tp10
a(S'travel'
S''
S''
tp11
a(S'verify'
S'front'
S' wall'
tp12
aa(lp13
(S'verify'
S'front'
S' brick hallway'
tp14
a(S'travel'
S''
S''
tp15
a(S'verify'
S'side'
S' gravel hallway'
tp16
aa(lp17
(S'turn'
S'left'
S''
tp18
aa(lp19
(S'turn'
S''
S''
tp20
a(S'verify'
S'front'
S' yellow hallway'
tp21
aa(lp22
(S'travel'
S''
S''
tp23
aa(lp24
(S'travel'
S''
S''
tp25
a(S'verify'
S'left'
S' flower hallway'
tp26
aa(lp27
(S'travel'
S''
S''
tp28
a(S'verify'
p29
S'front'
S' brick hallway'
tp30
a(g29
S'side'
S' flower hallway'
tp31
a(g29
S'at'
S' 4-intersection'
tp32
a(g29
S'at'
S' easel'
tp33
aa(lp34
(S'turn'
S'right'
S''
tp35
aa(lp36
(S'null'
p37
S''
S''
tp38
aa(lp39
(S'turn'
S'right'
S''
tp40
aa(lp41
(S'travel'
S'steps'
S' 2'
tp42
a(S'turn'
S'right'
S''
tp43
aa(lp44
(S'travel'
S''
S''
tp45
a(S'verify'
p46
S'front'
S' wall'
tp47
a(g46
S'back'
S' fish wall'
tp48
aa(lp49
(S'turn'
S'right'
S''
tp50
a(S'travel'
S'steps'
S' 1'
tp51
aa(lp52
(S'travel'
S''
S''
tp53
a(S'verify'
S'front'
S' wall'
tp54
aa(lp55
(S'verify'
p56
S'right'
S' brick hallway'
p57
tp58
a(g56
S'left'
S' brick hallway'
p59
tp60
a(g56
S'left'
S' lamp'
p61
tp62
a(g56
S'left'
S' easel'
p63
tp64
aa(lp65
(S'turn'
S'left'
S''
tp66
aa(lp67
(S'verify'
S'front'
S' grass hallway'
tp68
a(S'travel'
S''
S''
tp69
a(S'verify'
S'at'
S' hatrack'
tp70
a(S'turn'
S'right'
S''
tp71
aa(lp72
(S'travel'
S''
S''
tp73
a(S'verify'
p74
S'side'
S' concrete hallway'
tp75
a(g74
S'front'
S' wood hallway'
tp76
aa(lp77
(S'turn'
S'right'
S''
tp78
a(S'verify'
S'front'
S' flower hallway'
tp79
a(S'travel'
S''
S''
tp80
a(S'verify'
p81
S'at'
S' easel'
tp82
a(g81
S'side'
S' brick hallway'
tp83
aa(lp84
(S'turn'
S'left'
S''
tp85
a(S'travel'
S'steps'
S' 4'
tp86
aa(lp87
(S'travel'
S'steps'
S' 2'
tp88
a(S'verify'
S'side'
S' flower hallway'
tp89
aa(lp90
(S'travel'
S''
S''
tp91
a(S'verify'
S'front'
S' wall'
tp92
a(S'turn'
S'left'
S''
tp93
aa(lp94
(S'verify'
S'front'
S' hallway'
tp95
a(S'turn'
S'left'
S''
tp96
aa(lp97
(S'turn'
S'right'
S''
tp98
aa(lp99
(S'travel'
S'steps'
S' 2'
tp100
aa(lp101
(S'turn'
S''
S''
tp102
a(S'travel'
S''
S''
tp103
a(S'verify'
S'at'
S' chair'
tp104
a(S'travel'
S'steps'
S' 1'
tp105
aa(lp106
(S'verify'
S'front'
S' lamp'
tp107
a(S'travel'
S'steps'
S' 3'
tp108
a(S'verify'
p109
S'back'
S' lamp'
tp110
a(g109
S'side'
S' concrete hallway'
tp111
aa(lp112
(S'turn'
S'right'
S''
tp113
a(S'verify'
S'front'
S' gravel hallway'
tp114
aa(lp115
(S'travel'
S''
S''
tp116
a(S'verify'
S'side'
S' wood hallway'
tp117
aa(lp118
(S'travel'
S'steps'
S' 2'
tp119
a(S'verify'
S'side'
S' brick hallway'
tp120
aa(lp121
(S'travel'
S'steps'
S' 2'
tp122
a(S'verify'
S'right'
S' gravel hallway'
tp123
aa(lp124
(S'turn'
S''
S''
tp125
a(S'verify'
S'front'
S' chair'
tp126
aa(lp127
(S'travel'
S'steps'
S' 1'
tp128
aa(lp129
(S'turn'
S'left'
S''
tp130
aa(lp131
(S'verify'
p132
S'back'
S' hatrack'
tp133
a(g132
S'back'
S' brick hallway'
tp134
aa(lp135
(S'turn'
S'right'
S''
tp136
aa(lp137
(S'verify'
S'at'
S' hatrack'
tp138
a(S'turn'
S'left'
S''
tp139
a(S'verify'
S'front'
S' concrete hallway'
tp140
aa(lp141
(S'verify'
p142
S'front'
S' lamp'
tp143
a(g142
S'front'
S' hatrack'
tp144
a(S'travel'
S'steps'
S' 6'
tp145
a(S'verify'
p146
S'back'
S' lamp'
tp147
a(g146
S'back'
S' hatrack'
tp148
a(g146
S'side'
S' gravel hallway'
tp149
aa(lp150
(S'travel'
S''
S''
tp151
a(S'verify'
S'front'
S' wall'
tp152
aa(lp153
(S'turn'
S'right'
S''
tp154
a(S'travel'
S'steps'
S' 1'
tp155
aa(lp156
(S'travel'
S'steps'
S' 1'
tp157
aa(lp158
(S'verify'
p159
S'front'
S' wall'
tp160
a(g159
S'left'
S' brick hallway'
tp161
a(g159
S'right'
S' brick hallway'
tp162
aa(lp163
(S'verify'
S'front'
S' sofa'
tp164
a(S'travel'
S'steps'
S' 2'
tp165
a(S'verify'
p166
S'at'
S' hatrack'
tp167
a(g166
S'back'
S' sofa'
tp168
aa(lp169
(S'verify'
S'at'
S' hatrack'
tp170
aa(lp171
(S'travel'
S''
S''
tp172
aa(lp173
(S'turn'
S'right'
S''
tp174
a(S'verify'
S'front'
S' grass hallway'
tp175
aa(lp176
(S'turn'
S'left'
S''
tp177
aa(lp178
(S'turn'
S'right'
S''
tp179
aa(lp180
(S'turn'
S''
S''
tp181
a(S'travel'
S'steps'
S' 1'
tp182
aa(lp183
(S'verify'
p184
S'front'
S' gravel hallway'
tp185
a(g184
S'side'
S' yellow hallway'
tp186
aa(lp187
(S'travel'
S''
S''
tp188
a(S'verify'
S'front'
S' butterfly wall'
tp189
aa(lp190
(S'turn'
S''
S''
tp191
a(S'verify'
S'front'
S' lamp'
tp192
aa(lp193
(S'turn'
S'right'
S''
tp194
aa(lp195
(S'travel'
S''
S''
tp196
a(S'verify'
p197
S'front'
S' butterfly wall'
tp198
a(g197
S'back'
S' butterfly wall'
tp199
a(g197
S'front'
S' blue hallway'
tp200
a(g197
S'back'
S' blue hallway'
p201
tp202
aa(lp203
(S'verify'
S'front'
S' lamp'
tp204
aa(lp205
(S'verify'
S'front'
S' flower hallway'
tp206
aa(lp207
(S'turn'
S'right'
S''
tp208
aa(lp209
(S'turn'
S''
S''
tp210
a(S'verify'
p211
S'back'
S' wall'
tp212
a(g211
S'right'
S' wall'
tp213
a(g211
S'left'
S' wall'
tp214
aa(lp215
(S'travel'
S''
S''
tp216
a(S'verify'
S'side'
S' flower hallway'
tp217
aa(lp218
(S'turn'
S'left'
S''
tp219
a(S'verify'
S'front'
S' brick hallway'
tp220
a(S'travel'
S'steps'
S' 1'
tp221
aa(lp222
(S'verify'
p223
S'front'
S' flower hallway'
tp224
a(g223
S'front'
S' hatrack'
tp225
a(g223
S'front'
S' lamp'
tp226
a(S'travel'
S''
S''
tp227
a(S'verify'
S'at'
S' lamp'
tp228
a(S'travel'
S'steps'
S' 1'
tp229
a(S'verify'
S'back'
S' hatrack'
tp230
aa(lp231
(S'travel'
S''
S''
tp232
a(S'verify'
S'front'
S' hatrack'
tp233
aa(lp234
(S'turn'
S'left'
S''
tp235
aa(lp236
(S'travel'
S''
S''
tp237
a(S'verify'
S'side'
S' gravel hallway'
tp238
a(S'turn'
S'right'
S''
tp239
a(S'travel'
S''
S''
tp240
a(S'verify'
S'at'
S' easel'
tp241
aa(lp242
(S'turn'
S'left'
S''
tp243
aa(lp244
(S'travel'
S''
S''
tp245
a(S'verify'
S'side'
S' flower hallway'
tp246
a(S'turn'
S'left'
S''
tp247
aa(lp248
(S'travel'
S''
S''
tp249
a(S'verify'
S'at'
S' easel'
tp250
a(S'turn'
S'left'
S''
tp251
aa(lp252
(S'travel'
S'steps'
S' 1'
tp253
aa(lp254
(S'travel'
S'steps'
S' 2'
tp255
a(S'verify'
S'side'
S' gravel hallway'
tp256
aa(lp257
(S'turn'
S'left'
S''
tp258
aa(lp259
(S'turn'
S''
S''
tp260
a(S'verify'
S'front'
S' yellow hallway'
tp261
aa(lp262
(S'turn'
S'left'
S''
tp263
aa(lp264
(S'turn'
S''
S''
tp265
a(S'verify'
p266
S'front'
S' yellow hallway'
tp267
a(g266
S'front'
S' hatrack'
tp268
aa(lp269
(S'turn'
S'left'
S''
tp270
aa(lp271
(S'travel'
S''
S''
tp272
a(S'verify'
p273
S'front'
S' wall'
tp274
a(g273
S'left'
S' wall'
tp275
a(S'turn'
S'right'
S''
tp276
aa(lp277
(S'travel'
S'steps'
S' 2'
tp278
a(S'verify'
S'side'
S' flower hallway'
tp279
aa(lp280
(S'verify'
S'at'
S' easel'
tp281
aa(lp282
(S'turn'
S'left'
S''
tp283
aa(lp284
(S'travel'
S''
S''
tp285
a(S'verify'
S'side'
S' blue hallway'
tp286
aa(lp287
(S'turn'
S'left'
S''
tp288
a(S'verify'
S'front'
S' brick hallway'
tp289
aa(lp290
(S'travel'
S'steps'
S' 4'
tp291
aa(lp292
(S'verify'
S'at'
S' easel'
tp293
aa(lp294
(S'verify'
S'back'
S' easel'
tp295
a(S'travel'
S'steps'
S' 1'
tp296
aa(lp297
(S'travel'
S''
S''
tp298
a(S'turn'
S''
S''
tp299
a(S'travel'
S''
S''
tp300
a(S'turn'
S''
S''
tp301
a(S'travel'
S''
S''
tp302
a(S'turn'
S''
S''
tp303
aa(lp304
(S'travel'
S''
S''
tp305
a(S'verify'
S'at'
S' barstool'
tp306
aa(lp307
(S'travel'
S''
S''
tp308
a(S'verify'
p309
S'side'
S' concrete hallway'
tp310
a(g309
S'at'
S' lamp'
tp311
a(S'travel'
S''
S''
tp312
aa(lp313
(S'verify'
S'at'
S' chair'
tp314
a(S'turn'
S'left'
S''
tp315
a(S'verify'
S'front'
S' blue hallway'
tp316
aa(lp317
(S'verify'
p318
S'front'
S' blue hallway'
tp319
a(g318
S'side'
S' wood hallway'
tp320
aa(lp321
(S'turn'
S'right'
S''
tp322
aa(lp323
(S'travel'
S'steps'
S' 2'
tp324
a(S'verify'
S'at'
S' chair'
tp325
aa(lp326
(S'turn'
S'right'
S''
tp327
aa(lp328
(S'turn'
S'left'
S''
tp329
aa(lp330
(S'travel'
S''
S''
tp331
aa(lp332
(S'turn'
S''
S''
tp333
a(S'verify'
S'back'
S' wall'
p334
tp335
a(S'turn'
S'left'
S''
tp336
aa(lp337
(S'travel'
S'steps'
S' 3'
tp338
aa(lp339
(S'turn'
S''
S''
tp340
a(S'verify'
S'front'
S' gravel hallway'
tp341
a(S'travel'
S''
S''
tp342
a(S'verify'
S'side'
S' brick hallway'
tp343
aa(lp344
(S'travel'
S''
S''
tp345
a(S'verify'
p346
S'front'
S' wall'
tp347
a(g346
S'left'
S' wall'
tp348
a(S'turn'
S'right'
S''
tp349
a(S'verify'
S'front'
S' wood hallway'
tp350
aa(lp351
(S'turn'
S'left'
S''
tp352
aa(lp353
(S'turn'
S'right'
S''
tp354
a(S'verify'
S'front'
S' brick hallway'
tp355
a(S'travel'
S''
S''
tp356
a(S'verify'
S'side'
S' gravel hallway'
tp357
aa(lp358
(S'turn'
S'left'
S''
tp359
aa(lp360
(g37
S''
S''
tp361
aa(lp362
(S'travel'
S''
S''
tp363
a(S'turn'
S'left'
S''
tp364
a(S'travel'
S''
S''
tp365
a(S'turn'
S'left'
S''
tp366
a(S'travel'
S''
S''
tp367
a(S'verify'
S'at'
S' sofa'
tp368
aa(lp369
(S'travel'
S''
S''
tp370
a(S'verify'
S'at'
S' easel'
tp371
a(S'turn'
S'left'
S''
tp372
a(S'verify'
S'front'
S' concrete hallway'
tp373
a(S'travel'
S''
S''
tp374
a(S'verify'
S'side'
S' blue hallway'
tp375
aa(lp376
(S'turn'
S''
S''
tp377
a(S'verify'
S'front'
S' easel'
tp378
aa(lp379
(S'turn'
S'right'
S''
tp380
a(S'travel'
S'steps'
S' 4'
tp381
aa(lp382
(S'verify'
S'front'
S' lamp'
tp383
a(S'travel'
S''
S''
tp384
a(S'verify'
S'at'
S' hatrack'
tp385
a(S'travel'
S'steps'
S' 1'
tp386
a(S'verify'
S'back'
S' lamp'
tp387
aa(lp388
(S'travel'
S''
S''
tp389
a(S'verify'
S'at'
S' barstool'
tp390
aa(lp391
(S'turn'
S''
S''
tp392
a(S'verify'
S'front'
S' chair'
tp393
a(S'travel'
S''
S''
tp394
a(S'verify'
p395
S'back'
S' chair'
tp396
a(g395
S'side'
S' yellow hallway'
tp397
aa(lp398
(S'turn'
S'left'
S''
tp399
aa(lp400
(S'turn'
S''
S''
tp401
a(S'verify'
S'front'
S' chair'
tp402
a(S'travel'
S''
S''
tp403
a(S'verify'
S'at'
S' chair'
tp404
aa(lp405
(S'travel'
S'steps'
S' 2'
tp406
aa(lp407
(S'verify'
p408
S'left'
S' wood hallway'
p409
tp410
a(g408
S'right'
S' wood hallway'
tp411
aa(lp412
(S'turn'
S'right'
S''
tp413
aa(lp414
(S'turn'
S'right'
S''
tp415
aa(lp416
(S'travel'
S''
S''
tp417
a(S'verify'
p418
S'front'
S' brick hallway'
tp419
a(g418
S'back'
S' brick hallway'
tp420
aa(lp421
(S'turn'
S''
S''
tp422
a(S'verify'
S'front'
S' yellow hallway'
tp423
aa(lp424
(S'travel'
S''
S''
tp425
a(S'verify'
p426
S'front'
S' wall'
tp427
a(g426
S'right'
S' wall'
tp428
a(g426
S'left'
S' wall'
tp429
aa(lp430
(S'turn'
S'right'
S''
tp431
aa(lp432
(S'turn'
S''
S''
tp433
a(S'verify'
p434
S'back'
S' wall'
tp435
a(g434
S'at'
S' 3-intersection'
tp436
aa(lp437
(S'turn'
S''
S''
tp438
a(S'verify'
S'front'
S' butterfly wall'
tp439
a(S'travel'
S''
S''
tp440
aa(lp441
(S'travel'
S''
S''
tp442
a(S'verify'
S'at'
S' hatrack'
tp443
a(S'turn'
S'left'
S''
tp444
aa(lp445
(S'turn'
S''
S''
tp446
a(S'verify'
S'front'
S' chair'
tp447
aa(lp448
(S'travel'
S''
S''
tp449
a(S'verify'
p450
S'front'
S' wall'
tp451
a(g450
S'left'
S' wall'
tp452
a(g450
S'right'
S' wall'
tp453
aa(lp454
(S'travel'
S''
S''
tp455
a(S'turn'
S''
S''
tp456
a(S'verify'
S'front'
S' wood hallway'
tp457
aa(lp458
(S'turn'
S'left'
S''
tp459
a(S'travel'
S'steps'
S' 3'
tp460
aa(lp461
(S'travel'
S''
S''
tp462
a(S'turn'
S''
S''
tp463
a(S'travel'
S''
S''
tp464
a(S'turn'
S''
S''
tp465
a(S'travel'
S''
S''
tp466
a(S'turn'
S''
S''
tp467
aa(lp468
(S'turn'
S'left'
S''
tp469
aa(lp470
(S'travel'
S''
S''
tp471
a(S'verify'
S'at'
S' easel'
tp472
a(S'turn'
S'right'
S''
tp473
a(S'travel'
S''
S''
tp474
a(S'verify'
S'front'
S' wall'
tp475
aa(lp476
(S'turn'
S''
S''
tp477
a(S'verify'
p478
S'back'
S' wall'
tp479
a(g478
S'right'
S' wall'
tp480
a(g478
S'left'
S' wall'
tp481
aa(lp482
(S'travel'
S'steps'
S' 1'
tp483
aa(lp484
(S'travel'
S'steps'
S' 1'
tp485
aa(lp486
(g37
S''
S''
tp487
aa(lp488
(S'turn'
S'right'
S''
tp489
aa(lp490
(S'travel'
S'steps'
S' 5'
tp491
aa(lp492
(S'turn'
S''
S''
tp493
a(S'verify'
S'front'
S' yellow hallway'
tp494
aa(lp495
(S'verify'
S'left'
S' gravel hallway'
tp496
a(S'turn'
S'left'
S''
tp497
a(S'travel'
S'steps'
S' 3'
tp498
a(S'verify'
S'side'
S' blue hallway'
tp499
aa(lp500
(S'travel'
S'steps'
S' 5'
tp501
aa(lp502
(S'verify'
S'front'
S' sofa'
tp503
a(S'travel'
S''
S''
tp504
a(S'verify'
p505
S'back'
S' sofa'
tp506
a(g505
S'side'
S' wood hallway'
tp507
aa(lp508
(S'travel'
S'steps'
S' 1'
tp509
aa(lp510
(S'verify'
S'front'
S' wood hallway'
tp511
a(S'travel'
S''
S''
tp512
a(S'verify'
S'at'
S' chair'
tp513
aa(lp514
(S'travel'
S''
S''
tp515
a(S'verify'
S'at'
S' barstool'
tp516
aa(lp517
(S'verify'
S'at'
S' hatrack'
tp518
a(S'turn'
S'right'
S''
tp519
aa(lp520
(S'travel'
S''
S''
tp521
a(S'verify'
S'at'
S' easel'
tp522
a(S'turn'
S'left'
S''
tp523
aa(lp524
(S'turn'
S''
S''
tp525
a(S'verify'
p526
S'back'
S' wall'
tp527
a(g526
S'at'
S' 3-intersection'
tp528
aa(lp529
(S'turn'
S''
S''
tp530
a(S'verify'
S'front'
S' yellow hallway'
tp531
a(S'travel'
S''
S''
tp532
a(S'verify'
S'front'
S' wall'
tp533
aa(lp534
(S'turn'
S''
S''
tp535
a(S'verify'
S'front'
S' lamp'
tp536
a(S'travel'
S''
S''
tp537
a(S'verify'
S'at'
S' lamp'
tp538
aa(lp539
(S'travel'
S''
S''
tp540
a(S'turn'
S''
S''
tp541
a(S'travel'
S''
S''
tp542
a(S'turn'
S''
S''
tp543
a(S'travel'
S''
S''
tp544
a(S'turn'
S''
S''
tp545
aa(lp546
(S'verify'
S'at'
S' hatrack'
tp547
a(S'turn'
S'left'
S''
tp548
a(S'verify'
S'front'
S' yellow hallway'
tp549
a(S'travel'
S''
S''
tp550
a(S'verify'
S'front'
S' wall'
tp551
aa(lp552
(S'travel'
S'steps'
S' 2'
tp553
a(S'verify'
S'side'
S' yellow hallway'
tp554
aa(lp555
(S'turn'
S'right'
S''
tp556
aa(lp557
(S'turn'
S''
S''
tp558
a(S'verify'
p559
S'front'
S' gravel hallway'
tp560
a(g559
S'front'
S' easel'
tp561
aa(lp562
(S'turn'
S''
S''
tp563
a(S'verify'
S'back'
S' wall'
tp564
a(S'turn'
S'left'
S''
tp565
aa(lp566
(S'verify'
S'side'
S' flower hallway'
tp567
aa(lp568
(S'turn'
S'right'
S''
tp569
a(S'verify'
S'front'
S' concrete hallway'
tp570
aa(lp571
(S'travel'
S'steps'
S' 4'
tp572
a(S'verify'
S'side'
S' wood hallway'
tp573
aa(lp574
(S'turn'
S'left'
S''
tp575
a(S'verify'
S'front'
S' yellow hallway'
tp576
a(S'travel'
S'steps'
S' 2'
tp577
a(S'verify'
S'front'
S' wall'
tp578
aa(lp579
(S'travel'
S''
S''
tp580
a(S'verify'
S'front'
S' wall'
tp581
aa(lp582
(S'turn'
S'left'
S''
tp583
aa(lp584
(S'travel'
S'steps'
S' 1'
tp585
a(S'verify'
S'side'
S' brick hallway'
tp586
aa(lp587
(S'travel'
S'steps'
S' 1'
tp588
aa(lp589
(S'turn'
S'left'
S''
tp590
aa(lp591
(S'verify'
S'front'
S' blue hallway'
tp592
a(S'travel'
S''
S''
tp593
a(S'verify'
S'at'
S' hatrack'
tp594
aa(lp595
(S'turn'
S''
S''
tp596
a(S'verify'
S'left'
S' wall'
tp597
aa(lp598
(S'turn'
S'left'
S''
tp599
a(S'travel'
S'steps'
S' 1'
tp600
a(S'verify'
S'front'
S' wall'
tp601
aa(lp602
(S'travel'
S''
S''
tp603
a(S'verify'
S'side'
S' gravel hallway'
tp604
aa(lp605
(S'verify'
S'at'
S' easel'
tp606
aa(lp607
(S'travel'
S''
S''
tp608
a(S'verify'
S'at'
S' hatrack'
tp609
a(S'turn'
S'right'
S''
tp610
a(S'verify'
S'front'
S' blue hallway'
tp611
aa(lp612
(S'turn'
S'right'
S''
tp613
aa(lp614
(S'verify'
S'front'
S' gravel hallway'
tp615
a(S'travel'
S''
S''
tp616
a(S'verify'
S'at'
S' easel'
tp617
aa(lp618
(S'turn'
S'left'
S''
tp619
aa(lp620
(S'travel'
S''
S''
tp621
a(S'verify'
S'at'
S' easel'
tp622
a(S'turn'
S'right'
S''
tp623
a(S'verify'
S'front'
S' wood hallway'
tp624
a(S'travel'
S'steps'
S' 1'
tp625
aa(lp626
(S'verify'
S'side'
S' yellow hallway'
tp627
aa(lp628
(S'turn'
S'left'
S''
tp629
aa(lp630
(S'travel'
S''
S''
tp631
a(S'verify'
p632
S'right'
S' fish wall'
tp633
a(g632
S'front'
S' tower wall'
tp634
aa(lp635
(g37
S''
S''
tp636
aa(lp637
(S'turn'
S''
S''
tp638
a(S'verify'
S'front'
S' yellow hallway'
tp639
aa(lp640
(S'travel'
S''
S''
tp641
a(S'verify'
p642
S'front'
S' wall'
tp643
a(g642
S'right'
S' wall'
tp644
a(g642
S'left'
S' wall'
tp645
aa(lp646
(S'turn'
S'right'
S''
tp647
aa(lp648
(S'travel'
S'steps'
S' 3'
tp649
a(S'verify'
S'side'
S' wood hallway'
tp650
aa(lp651
(S'travel'
S''
S''
tp652
a(S'verify'
S'right'
S' hallway'
tp653
a(S'turn'
S'right'
S''
tp654
aa(lp655
(S'travel'
S'steps'
S' 1'
tp656
a(S'verify'
p657
S'front'
S' wall'
tp658
a(g657
S'right'
S' wall'
tp659
aa(lp660
(S'travel'
S'steps'
S' 1'
tp661
a(S'verify'
S'side'
S' concrete hallway'
tp662
aa(lp663
(S'turn'
S'right'
S''
tp664
aa(lp665
(S'travel'
S'steps'
S' 3'
tp666
aa(lp667
(S'verify'
S'front'
S' hatrack'
tp668
aa(lp669
(S'turn'
S'left'
S''
tp670
a(S'travel'
S''
S''
tp671
a(S'verify'
S'at'
S' easel'
tp672
aa(lp673
(S'travel'
S'steps'
S' 1'
tp674
aa(lp675
(S'verify'
S'front'
S' barstool'
tp676
a(S'travel'
S'steps'
S' 3'
tp677
a(S'verify'
p678
S'back'
S' barstool'
tp679
a(g678
S'side'
S' concrete hallway'
tp680
aa(lp681
(S'turn'
S''
S''
tp682
a(S'verify'
p683
S'front'
S' wood hallway'
tp684
a(g683
S'back'
S' easel'
tp685
aa(lp686
(S'travel'
S''
S''
tp687
a(S'verify'
S'at'
S' easel'
tp688
aa(lp689
(S'verify'
S'at'
S' barstool'
tp690
aa(lp691
(S'turn'
S'right'
S''
tp692
aa(lp693
(S'turn'
S''
S''
tp694
a(S'verify'
p695
S'front'
S' flower hallway'
tp696
a(g695
S'front'
S' fish wall'
tp697
aa(lp698
(S'turn'
S'left'
S''
tp699
aa(lp700
(S'turn'
S'left'
S''
tp701
a(S'travel'
S'steps'
S' 1'
tp702
aa(lp703
(S'turn'
S''
S''
tp704
a(S'verify'
S'front'
S' hatrack'
tp705
aa(lp706
(S'verify'
p707
S'left'
S' wall'
tp708
a(g707
S'front'
S' wall'
tp709
a(S'turn'
S'right'
S''
tp710
a(S'verify'
S'front'
S' blue hallway'
tp711
a(S'travel'
S''
S''
tp712
a(S'verify'
S'at'
S' hatrack'
tp713
aa(lp714
(S'travel'
S'steps'
S' 1'
tp715
aa(lp716
(S'travel'
S'steps'
S' 2'
tp717
aa(lp718
(S'travel'
S'steps'
S' 1'
tp719
aa(lp720
(S'verify'
S'side'
S' brick hallway'
tp721
aa(lp722
(S'turn'
S''
S''
tp723
a(S'verify'
S'back'
S' wall'
tp724
a(S'travel'
S'steps'
S' 1'
tp725
aa(lp726
(S'travel'
S'steps'
S' 2'
tp727
aa(lp728
(S'travel'
S''
S''
tp729
a(S'verify'
S'left'
S' easel'
tp730
aa(lp731
(g37
S''
S''
tp732
aa(lp733
(S'travel'
S'steps'
S' 2'
tp734
aa(lp735
(S'travel'
S'steps'
S' 4'
tp736
aa(lp737
(S'travel'
S''
S''
tp738
a(S'verify'
p739
S'front'
S' wall'
tp740
a(g739
S'left'
S' wall'
tp741
a(g739
S'back'
S' grass hallway'
tp742
a(g739
S'side'
S' yellow hallway'
tp743
aa(lp744
(S'turn'
S''
S''
tp745
a(S'verify'
S'front'
S' gravel hallway'
tp746
a(S'travel'
S''
S''
tp747
a(S'verify'
S'side'
S' brick hallway'
tp748
a(S'turn'
S'left'
S''
tp749
aa(lp750
(S'travel'
S'steps'
S' 1'
tp751
aa(lp752
(S'travel'
S''
S''
tp753
a(S'verify'
S'front'
S' wall'
tp754
a(S'turn'
S'right'
S''
tp755
aa(lp756
(S'travel'
S''
S''
tp757
a(S'verify'
p758
S'front'
S' wall'
tp759
a(g758
S'left'
S' wall'
tp760
aa(lp761
(S'travel'
S'steps'
S' 1'
tp762
aa(lp763
(S'travel'
S''
S''
tp764
a(S'verify'
p765
S'front'
S' hallway'
tp766
a(g765
S'back'
S' hallway'
tp767
aa(lp768
(g37
S''
S''
tp769
aa(lp770
(S'turn'
S'right'
S''
tp771
aa(lp772
(S'turn'
S'left'
S''
tp773
a(S'travel'
S'steps'
S' 1'
tp774
aa(lp775
(S'travel'
S'steps'
S' 1'
tp776
a(S'verify'
S'side'
S' flower hallway'
tp777
aa(lp778
(S'travel'
S''
S''
tp779
a(S'verify'
S'side'
S' gravel hallway'
tp780
a(S'turn'
S'right'
S''
tp781
aa(lp782
(S'turn'
S'right'
S''
tp783
aa(lp784
(S'travel'
S'steps'
S' 1'
tp785
a(S'verify'
S'side'
S' blue hallway'
tp786
aa(lp787
(S'turn'
S''
S''
tp788
a(S'verify'
p789
S'back'
S' wall'
tp790
a(g789
S'at'
S' 3-intersection'
tp791
aa(lp792
(S'turn'
S'right'
S''
tp793
aa(lp794
(S'travel'
S'steps'
S' 1'
tp795
aa(lp796
(S'turn'
S'right'
S''
tp797
aa(lp798
(S'travel'
S''
S''
tp799
a(S'verify'
S'front'
S' wall'
tp800
a(S'turn'
S'left'
S''
tp801
aa(lp802
(S'travel'
S''
S''
tp803
a(S'verify'
S'right'
S' hallway'
tp804
a(S'turn'
S'right'
S''
tp805
aa(lp806
(g37
S''
S''
tp807
aa(lp808
(S'travel'
S''
S''
tp809
aa(lp810
(S'travel'
S'steps'
S' 3'
tp811
a(S'verify'
p812
S'side'
S' gravel hallway'
tp813
a(g812
S'at'
S' 3-intersection'
tp814
aa(lp815
(S'verify'
p816
S'front'
S' blue hallway'
tp817
a(g816
S'front'
S' chair'
tp818
a(S'travel'
S''
S''
tp819
a(S'verify'
p820
S'back'
S' chair'
tp821
a(g820
S'at'
S' hatrack'
tp822
aa(lp823
(S'verify'
p824
S'front'
S' brick hallway'
tp825
a(g824
S'back'
S' lamp'
tp826
a(S'travel'
S'steps'
S' 1'
tp827
aa(lp828
(S'travel'
S'steps'
S' 3'
tp829
aa(lp830
(S'travel'
S''
S''
tp831
a(S'verify'
S'front'
S' wall'
tp832
aa(lp833
(S'turn'
S'right'
S''
tp834
a(S'travel'
S''
S''
tp835
a(S'verify'
p836
S'left'
S' wall'
tp837
a(g836
S'front'
S' wall'
tp838
aa(lp839
(S'travel'
S'steps'
S' 1'
tp840
aa(lp841
(S'verify'
S'front'
S' yellow hallway'
tp842
aa(lp843
(S'travel'
S''
S''
tp844
a(S'verify'
p845
S'front'
S' wall'
tp846
a(g845
S'right'
S' wall'
tp847
a(S'turn'
S'left'
S''
tp848
aa(lp849
(S'verify'
p850
S'at'
S' easel'
tp851
a(g850
S'left'
S' gravel hallway'
tp852
a(g850
S'right'
S' gravel hallway'
p853
tp854
aa(lp855
(S'travel'
S'steps'
S' 1'
tp856
aa(lp857
(S'travel'
S''
S''
tp858
a(S'verify'
S'at'
S' easel'
tp859
a(S'turn'
S'right'
S''
tp860
a(S'verify'
S'front'
S' wood hallway'
tp861
aa(lp862
(S'travel'
S'steps'
S' 2'
tp863
aa(lp864
(S'turn'
S'left'
S''
tp865
aa(lp866
(S'turn'
S'right'
S''
tp867
a(S'travel'
S'steps'
S' 1'
tp868
aa(lp869
(S'turn'
S''
S''
tp870
a(S'verify'
S'front'
S' brick hallway'
tp871
aa(lp872
(S'verify'
S'front'
S' easel'
tp873
a(S'travel'
S''
S''
tp874
a(S'verify'
p875
S'back'
S' easel'
tp876
a(g875
S'front'
S' wall'
tp877
a(S'turn'
S'left'
S''
tp878
a(S'verify'
S'front'
S' brick hallway'
tp879
aa(lp880
(S'verify'
S'side'
S' brick hallway'
tp881
a(S'turn'
S'left'
S''
tp882
aa(lp883
(S'turn'
S''
S''
tp884
a(S'verify'
S'back'
S' wall'
tp885
a(S'travel'
S'steps'
S' 2'
tp886
aa(lp887
(S'turn'
S'left'
S''
tp888
aa(lp889
(S'travel'
S''
S''
tp890
a(S'verify'
S'side'
S' yellow hallway'
tp891
aa(lp892
(S'travel'
S''
S''
tp893
a(S'verify'
p894
S'front'
S' wall'
tp895
a(g894
S'right'
S' wall'
tp896
a(S'turn'
S'left'
S''
tp897
aa(lp898
(S'turn'
S''
S''
tp899
a(S'verify'
S'front'
S' flower hallway'
tp900
aa(lp901
(S'travel'
S''
S''
tp902
a(S'verify'
S'side'
S' gravel hallway'
tp903
a(S'turn'
S'left'
S''
tp904
aa(lp905
(S'turn'
S''
S''
tp906
a(S'verify'
S'back'
S' wall'
tp907
aa(lp908
(S'travel'
S'steps'
S' 3'
tp909
a(S'verify'
p910
S'front'
S' grass hallway'
tp911
a(g910
S'side'
S' yellow hallway'
tp912
aa(lp913
(S'turn'
S'left'
S''
tp914
aa(lp915
(S'travel'
S'steps'
S' 2'
tp916
aa(lp917
(S'turn'
S''
S''
tp918
a(S'verify'
p919
S'front'
S' wood hallway'
tp920
a(g919
S'front'
S' chair'
tp921
aa(lp922
(S'travel'
S'steps'
S' 1'
tp923
aa(lp924
(S'travel'
S''
S''
tp925
a(S'verify'
S'side'
S' blue hallway'
tp926
aa(lp927
(S'turn'
S'right'
S''
tp928
aa(lp929
(S'verify'
S'front'
S' yellow hallway'
tp930
a(S'travel'
S'steps'
S' 2'
tp931
aa(lp932
(S'travel'
S''
S''
tp933
a(S'verify'
p934
S'front'
S' wall'
tp935
a(g934
S'left'
S' wall'
tp936
aa(lp937
(S'travel'
S'steps'
S' 1'
tp938
aa(lp939
(S'travel'
S'steps'
S' 2'
tp940
aa(lp941
(S'travel'
S'steps'
S' 1'
tp942
a(S'verify'
S'side'
S' grass hallway'
tp943
aa(lp944
(S'travel'
S''
S''
tp945
a(S'verify'
S'left'
S' hallway'
tp946
a(S'turn'
S'left'
S''
tp947
aa(lp948
(S'verify'
S'left'
S' grass hallway'
tp949
aa(lp950
(S'travel'
S''
S''
tp951
a(S'verify'
S'front'
S' wall'
tp952
aa(lp953
(S'travel'
S'steps'
S' 1'
tp954
a(S'turn'
S'left'
S''
tp955
a(S'verify'
S'front'
S' blue hallway'
tp956
aa(lp957
(S'turn'
S'right'
S''
tp958
aa(lp959
(S'travel'
S'steps'
S' 4'
tp960
aa(lp961
(S'turn'
S''
S''
tp962
a(S'verify'
p963
S'back'
S' wall'
tp964
a(g963
S'front'
S' gravel hallway'
tp965
a(S'travel'
S''
S''
tp966
a(S'verify'
S'front'
S' wall'
tp967
aa(lp968
(S'turn'
S''
S''
tp969
a(S'travel'
S''
S''
tp970
a(S'verify'
p971
S'right'
S' wall'
tp972
a(g971
S'left'
S' wall'
tp973
a(g971
S'front'
S' wall'
tp974
aa(lp975
(S'travel'
S''
S''
tp976
a(S'verify'
S'side'
S' flower hallway'
tp977
aa(lp978
(S'turn'
S'left'
S''
tp979
aa(lp980
(S'travel'
S''
S''
tp981
a(S'verify'
S'front'
S' wall'
tp982
aa(lp983
(S'travel'
S'steps'
S' 6'
tp984
aa(lp985
(S'verify'
S'front'
S' blue hallway'
tp986
a(S'travel'
S''
S''
tp987
a(S'verify'
S'at'
S' chair'
tp988
a(S'turn'
S'right'
S''
tp989
aa(lp990
(S'turn'
S''
S''
tp991
a(S'verify'
p992
S'right'
S' wall'
tp993
a(g992
S'back'
S' wall'
tp994
aa(lp995
(S'turn'
S''
S''
tp996
a(S'verify'
p997
S'front'
S' yellow hallway'
tp998
a(g997
S'front'
S' hatrack'
tp999
aa(lp1000
(S'verify'
S'front'
S' flower hallway'
tp1001
a(S'travel'
S'steps'
S' 2'
tp1002
aa(lp1003
(S'verify'
S'front'
S' concrete hallway'
tp1004
aa(lp1005
(S'turn'
S''
S''
tp1006
a(S'verify'
S'front'
S' yellow hallway'
tp1007
a(S'travel'
S''
S''
tp1008
a(S'verify'
S'side'
S' flower hallway'
tp1009
aa(lp1010
(S'travel'
S''
S''
tp1011
a(S'verify'
S'left'
S' hallway'
tp1012
aa(lp1013
(S'verify'
S'front'
S' gravel hallway'
tp1014
a(S'travel'
S'steps'
S' 1'
tp1015
aa(lp1016
(S'turn'
S'right'
S''
tp1017
a(S'travel'
S''
S''
tp1018
a(S'verify'
S'at'
S' hatrack'
tp1019
aa(lp1020
(S'travel'
S''
S''
tp1021
aa(lp1022
(S'verify'
S'front'
S' chair'
tp1023
a(S'turn'
S'right'
S''
tp1024
aa(lp1025
(S'travel'
S''
S''
tp1026
a(S'verify'
p1027
S'right'
S' blue hallway'
tp1028
a(g1027
S'left'
S' blue hallway'
tp1029
a(g1027
S'front'
S' wall'
tp1030
aa(lp1031
(S'turn'
S'left'
S''
tp1032
aa(lp1033
(S'turn'
S'left'
S''
tp1034
aa(lp1035
(S'turn'
S''
S''
tp1036
a(S'verify'
p1037
S'left'
S' wall'
tp1038
a(g1037
S'back'
S' wall'
tp1039
aa(lp1040
(S'travel'
S''
S''
tp1041
a(S'verify'
S'front'
S' wall'
tp1042
aa(lp1043
(S'verify'
S'back'
S' sofa'
tp1044
aa(lp1045
(S'turn'
S'left'
S''
tp1046
aa(lp1047
(S'turn'
S'left'
S''
tp1048
a(S'verify'
S'front'
S' yellow hallway'
tp1049
aa(lp1050
(S'travel'
S'steps'
S' 1'
tp1051
a(S'verify'
S'side'
S' flower hallway'
tp1052
aa(lp1053
(S'travel'
S'steps'
S' 1'
tp1054
a(S'verify'
S'at'
S' chair'
tp1055
aa(lp1056
(S'travel'
S'steps'
S' 3'
tp1057
a(S'verify'
S'side'
S' flower hallway'
tp1058
aa(lp1059
(S'travel'
S'steps'
S' 2'
tp1060
a(S'verify'
S'at'
S' easel'
tp1061
aa(lp1062
(S'turn'
S''
S''
tp1063
a(S'verify'
S'back'
S' wall'
tp1064
a(S'turn'
S'right'
S''
tp1065
aa(lp1066
(S'verify'
p1067
S'side'
S' gravel hallway'
tp1068
a(g1067
S'right'
S' easel'
p1069
tp1070
aa(lp1071
(S'travel'
S''
S''
tp1072
a(S'verify'
p1073
S'side'
S' concrete hallway'
tp1074
a(g1073
S'front'
S' chair'
tp1075
aa(lp1076
(S'travel'
S'steps'
S' 2'
tp1077
aa(lp1078
(S'travel'
S'steps'
S' 2'
tp1079
aa(lp1080
(S'travel'
S''
S''
tp1081
a(S'verify'
p1082
S'front'
S' butterfly wall'
tp1083
a(g1082
S'back'
S' butterfly wall'
p1084
tp1085
aa(lp1086
(S'travel'
S''
S''
tp1087
a(S'verify'
S'front'
S' hatrack'
tp1088
aa(lp1089
(S'verify'
S'front'
S' gravel hallway'
tp1090
a(S'travel'
S''
S''
tp1091
a(S'verify'
S'at'
S' sofa'
tp1092
aa(lp1093
(S'verify'
p1094
S'back'
S' butterfly wall'
tp1095
a(g1094
S'left'
S' butterfly wall'
p1096
tp1097
aa(lp1098
(S'travel'
S'steps'
S' 3'
tp1099
aa(lp1100
(S'turn'
S'left'
S''
tp1101
aa(lp1102
(g37
S''
S''
tp1103
aa(lp1104
(S'travel'
S''
S''
tp1105
aa(lp1106
(S'travel'
S'steps'
S' 1'
tp1107
aa(lp1108
(S'turn'
S'left'
S''
tp1109
a(S'verify'
S'front'
S' blue hallway'
tp1110
a(S'travel'
S''
S''
tp1111
a(S'verify'
S'front'
S' wall'
tp1112
aa(lp1113
(S'travel'
S''
S''
tp1114
a(S'verify'
p1115
S'at'
S' lamp'
tp1116
a(g1115
S'left'
S' wall'
tp1117
a(g1115
S'front'
S' wall'
tp1118
a(S'turn'
S'right'
S''
tp1119
aa(lp1120
(S'verify'
p1121
S'back'
S' butterfly wall'
tp1122
a(g1121
S'left'
S' butterfly wall'
tp1123
aa(lp1124
(S'turn'
S'left'
S''
tp1125
aa(lp1126
(S'verify'
p1127
S'right'
S' concrete hallway'
tp1128
a(g1127
S'front'
S' barstool'
tp1129
aa(lp1130
(S'turn'
S'left'
S''
tp1131
a(S'verify'
p1132
S'front'
S' brick hallway'
tp1133
a(g1132
S'front'
S' lamp'
tp1134
a(S'travel'
S''
S''
tp1135
a(S'verify'
p1136
S'back'
S' lamp'
tp1137
a(g1136
S'side'
S' concrete hallway'
tp1138
aa(lp1139
(S'turn'
S'right'
S''
tp1140
aa(lp1141
(S'verify'
S'front'
S' blue hallway'
tp1142
a(S'travel'
S''
S''
tp1143
a(S'verify'
S'at'
S' chair'
tp1144
a(S'travel'
S'steps'
S' 1'
tp1145
aa(lp1146
(S'verify'
S'front'
S' wood hallway'
tp1147
aa(lp1148
(S'travel'
S'steps'
S' 1'
tp1149
aa(lp1150
(S'travel'
S'steps'
S' 2'
tp1151
aa(lp1152
(S'travel'
S''
S''
tp1153
a(S'verify'
S'at'
S' barstool'
tp1154
aa(lp1155
(S'travel'
S''
S''
tp1156
a(S'verify'
p1157
S'front'
S' wall'
tp1158
a(g1157
S'left'
S' hallway'
tp1159
a(g1157
S'right'
S' hallway'
tp1160
aa(lp1161
(S'turn'
S'left'
S''
tp1162
aa(lp1163
(S'verify'
S'at'
S' sofa'
tp1164
aa(lp1165
(S'travel'
S''
S''
tp1166
a(S'verify'
p1167
S'front'
S' fish wall'
p1168
tp1169
a(g1167
S'right'
S' wall'
tp1170
aa(lp1171
(S'travel'
S'steps'
S' 1'
tp1172
aa(lp1173
(S'travel'
S'steps'
S' 1'
tp1174
a(S'turn'
S'left'
S''
tp1175
aa(lp1176
(S'travel'
S'steps'
S' 3'
tp1177
aa(lp1178
(S'verify'
S'at'
S' easel'
tp1179
aa(lp1180
(S'travel'
S'steps'
S' 1'
tp1181
aa(lp1182
(S'verify'
p1183
S'right'
S' brick hallway'
tp1184
a(g1183
S'left'
S' brick hallway'
tp1185
a(g1183
S'front'
S' chair'
tp1186
aa(lp1187
(g37
S''
S''
tp1188
aa(lp1189
(S'turn'
S'left'
S''
tp1190
aa(lp1191
(S'turn'
S'right'
S''
tp1192
a(S'travel'
S''
S''
tp1193
a(S'verify'
S'at'
S' barstool'
tp1194
aa(lp1195
(S'turn'
S'left'
S''
tp1196
a(S'travel'
S'steps'
S' 1'
tp1197
aa(lp1198
(S'travel'
S'steps'
S' 2'
tp1199
aa(lp1200
(S'travel'
S''
S''
tp1201
a(S'verify'
S'at'
S' lamp'
tp1202
a(S'travel'
S'steps'
S' 1'
tp1203
aa(lp1204
(S'verify'
p1205
S'back'
S' gravel hallway'
tp1206
a(g1205
S'front'
S' gravel hallway'
tp1207
aa(lp1208
(S'verify'
S'back'
S' fish wall'
p1209
tp1210
aa(lp1211
(S'travel'
S'steps'
S' 1'
tp1212
a(S'verify'
S'side'
S' concrete hallway'
tp1213
aa(lp1214
(g37
S''
S''
tp1215
aa(lp1216
(S'travel'
S'steps'
S' 2'
tp1217
aa(lp1218
(S'turn'
S'left'
S''
tp1219
aa(lp1220
(S'turn'
S'right'
S''
tp1221
a(S'verify'
S'front'
S' blue hallway'
tp1222
aa(lp1223
(S'turn'
S'left'
S''
tp1224
aa(lp1225
(S'turn'
S'left'
S''
tp1226
aa(lp1227
(S'turn'
S''
S''
tp1228
a(S'verify'
S'front'
S' chair'
tp1229
aa(lp1230
(S'travel'
S'steps'
S' 3'
tp1231
a(S'verify'
S'front'
S' wall'
tp1232
aa(lp1233
(S'verify'
p1234
S'front'
S' brick hallway'
tp1235
a(g1234
S'front'
S' hatrack'
tp1236
a(g1234
S'front'
S' lamp'
tp1237
a(S'travel'
S'steps'
S' 6'
tp1238
a(S'verify'
p1239
S'side'
S' wood hallway'
tp1240
a(g1239
S'back'
S' lamp'
tp1241
a(g1239
S'back'
S' hatrack'
tp1242
aa(lp1243
(S'travel'
S''
S''
tp1244
a(S'verify'
S'right'
S' flower hallway'
tp1245
aa(lp1246
(S'travel'
S''
S''
tp1247
a(S'verify'
S'front'
S' butterfly wall'
tp1248
aa(lp1249
(S'travel'
S''
S''
tp1250
a(S'verify'
S'side'
S' yellow hallway'
tp1251
a(S'turn'
S'right'
S''
tp1252
a(S'verify'
S'front'
S' yellow hallway'
tp1253
a(S'travel'
S''
S''
tp1254
a(S'verify'
S'front'
S' wall'
tp1255
aa(lp1256
(S'travel'
S''
S''
tp1257
a(S'verify'
p1258
S'left'
S' wall'
tp1259
a(g1258
S'front'
S' wall'
tp1260
a(S'turn'
S'right'
S''
tp1261
a(S'verify'
S'front'
S' wood hallway'
tp1262
aa(lp1263
(S'verify'
p1264
S'front'
S' sofa'
tp1265
a(g1264
S'front'
S' hatrack'
tp1266
a(g1264
S'front'
S' blue hallway'
tp1267
aa(lp1268
(S'turn'
S'left'
S''
tp1269
a(S'travel'
S''
S''
tp1270
a(S'verify'
S'at'
S' barstool'
tp1271
aa(lp1272
(S'travel'
S'steps'
S' 2'
tp1273
a(S'verify'
S'front'
S' wall'
tp1274
aa(lp1275
(S'turn'
S'left'
S''
tp1276
a(S'travel'
S''
S''
tp1277
a(S'verify'
S'front'
S' butterfly wall'
tp1278
aa(lp1279
(S'travel'
S'steps'
S' 1'
tp1280
aa(lp1281
(S'travel'
S''
S''
tp1282
aa(lp1283
(S'travel'
S'steps'
S' 1'
tp1284
a(S'verify'
S'at'
S' sofa'
tp1285
aa(lp1286
(S'travel'
S'steps'
S' 1'
tp1287
aa(lp1288
(S'turn'
S'right'
S''
tp1289
a(S'verify'
S'front'
S' wood hallway'
tp1290
aa(lp1291
(S'turn'
S''
S''
tp1292
a(S'verify'
S'front'
S' lamp'
tp1293
aa(lp1294
(S'travel'
S''
S''
tp1295
a(S'verify'
S'side'
S' gravel hallway'
tp1296
a(S'turn'
S'right'
S''
tp1297
aa(lp1298
(S'turn'
S'left'
S''
tp1299
aa(lp1300
(S'travel'
S'steps'
S' 1'
tp1301
a(S'verify'
S'at'
S' sofa'
tp1302
aa(lp1303
(S'travel'
S'steps'
S' 1'
tp1304
aa(lp1305
(S'travel'
S''
S''
tp1306
a(S'verify'
S'side'
S' wood hallway'
tp1307
aa(lp1308
(S'travel'
S''
S''
tp1309
a(S'verify'
S'at'
S' easel'
tp1310
aa(lp1311
(S'turn'
S''
S''
tp1312
a(S'verify'
p1313
S'back'
S' wall'
tp1314
a(g1313
S'right'
S' wall'
tp1315
aa(lp1316
(S'turn'
S''
S''
tp1317
a(S'verify'
p1318
S'front'
S' brick hallway'
tp1319
a(g1318
S'front'
S' lamp'
tp1320
a(S'travel'
S''
S''
tp1321
a(S'verify'
S'at'
S' hatrack'
tp1322
a(S'travel'
S'steps'
S' 1'
tp1323
a(S'verify'
S'back'
S' lamp'
tp1324
aa(lp1325
(S'travel'
S'steps'
S' 2'
tp1326
aa(lp1327
(S'travel'
S'steps'
S' 5'
tp1328
a(S'verify'
S'side'
S' concrete hallway'
tp1329
aa(lp1330
(S'turn'
S''
S''
tp1331
a(S'verify'
S'front'
S' grass hallway'
tp1332
a(S'travel'
S''
S''
tp1333
a(S'verify'
p1334
S'front'
S' wall'
tp1335
a(g1334
S'side'
S' yellow hallway'
tp1336
aa(lp1337
(S'travel'
S'steps'
S' 1'
tp1338
a(S'verify'
p1339
S'front'
S' flower hallway'
tp1340
a(g1339
S'at'
S' easel'
tp1341
aa(lp1342
(S'verify'
p1343
S'front'
S' wall'
tp1344
a(g1343
S'left'
S' wall'
tp1345
a(S'turn'
S'right'
S''
tp1346
aa(lp1347
(S'verify'
S'at'
S' hatrack'
tp1348
a(S'turn'
S'right'
S''
tp1349
a(S'verify'
p1350
S'front'
S' blue hallway'
tp1351
a(g1350
S'front'
S' chair'
tp1352
a(S'travel'
S''
S''
tp1353
a(S'verify'
p1354
S'back'
S' chair'
tp1355
a(g1354
S'side'
S' flower hallway'
tp1356
aa(lp1357
(S'verify'
p1358
S'front'
S' easel'
tp1359
a(g1358
S'front'
S' gravel hallway'
tp1360
aa(lp1361
(S'travel'
S''
S''
tp1362
a(S'verify'
p1363
S'front'
S' yellow hallway'
tp1364
a(g1363
S'side'
S' grass hallway'
tp1365
aa(lp1366
(S'turn'
S'left'
S''
tp1367
a(S'verify'
S'front'
S' brick hallway'
tp1368
aa(lp1369
(S'travel'
S''
S''
tp1370
a(S'verify'
S'front'
S' flower hallway'
tp1371
aa(lp1372
(S'travel'
S'steps'
S' 1'
tp1373
aa(lp1374
(S'turn'
S''
S''
tp1375
a(S'verify'
p1376
S'back'
S' wall'
tp1377
a(g1376
S'right'
S' wall'
tp1378
aa(lp1379
(S'travel'
S''
S''
tp1380
aa(lp1381
(S'travel'
S''
S''
tp1382
a(S'verify'
S'at'
S' easel'
tp1383
aa(lp1384
(S'turn'
S''
S''
tp1385
a(S'verify'
S'front'
S' gravel hallway'
tp1386
a(S'travel'
S''
S''
tp1387
a(S'verify'
S'side'
S' flower hallway'
tp1388
aa(lp1389
(S'turn'
S'right'
S''
tp1390
aa(lp1391
(S'travel'
S''
S''
tp1392
a(S'verify'
S'front'
S' fish wall'
tp1393
aa(lp1394
(S'turn'
S''
S''
tp1395
a(S'verify'
S'front'
S' blue hallway'
tp1396
aa(lp1397
(S'turn'
S''
S''
tp1398
a(S'verify'
S'front'
S' gravel hallway'
tp1399
aa(lp1400
(S'travel'
S'steps'
S' 1'
tp1401
aa(lp1402
(S'travel'
S''
S''
tp1403
a(S'verify'
S'side'
S' blue hallway'
tp1404
aa(lp1405
(S'travel'
S''
S''
tp1406
a(S'verify'
S'side'
S' brick hallway'
tp1407
a(S'turn'
S'left'
S''
tp1408
aa(lp1409
(S'verify'
S'front'
S' chair'
tp1410
a(S'travel'
S'steps'
S' 2'
tp1411
a(S'verify'
p1412
S'back'
S' chair'
tp1413
a(g1412
S'side'
S' flower hallway'
tp1414
aa(lp1415
(S'travel'
S''
S''
tp1416
a(S'verify'
S'front'
S' wall'
tp1417
aa(lp1418
(S'turn'
S'right'
S''
tp1419
aa(lp1420
(S'turn'
S''
S''
tp1421
a(S'verify'
p1422
S'back'
S' wall'
tp1423
a(g1422
S'right'
S' wall'
tp1424
a(g1422
S'left'
S' wall'
tp1425
aa(lp1426
(S'verify'
S'front'
S' yellow hallway'
tp1427
a(S'travel'
S''
S''
tp1428
a(S'verify'
S'side'
S' gravel hallway'
tp1429
aa(lp1430
(S'travel'
S''
S''
tp1431
a(S'verify'
S'front'
S' wall'
tp1432
aa(lp1433
(S'turn'
S''
S''
tp1434
a(S'verify'
S'left'
S' wall'
tp1435
aa(lp1436
(S'travel'
S'steps'
S' 1'
tp1437
aa(lp1438
(S'verify'
p1439
S'right'
S' concrete hallway'
tp1440
a(g1439
S'front'
S' chair'
tp1441
aa(lp1442
(S'turn'
S'left'
S''
tp1443
aa(lp1444
(S'turn'
S'left'
S''
tp1445
aa(lp1446
(S'turn'
S'right'
S''
tp1447
aa(lp1448
(S'turn'
S'left'
S''
tp1449
aa(lp1450
(S'verify'
S'right'
S' wall'
tp1451
aa(lp1452
(S'turn'
S'right'
S''
tp1453
aa(lp1454
(S'travel'
S''
S''
tp1455
a(S'verify'
p1456
S'front'
S' brick hallway'
tp1457
a(g1456
S'back'
S' brick hallway'
tp1458
aa(lp1459
(S'turn'
S'right'
S''
tp1460
aa(lp1461
(S'travel'
S''
S''
tp1462
a(S'verify'
p1463
S'front'
S' wall'
tp1464
a(g1463
S'left'
S' wall'
tp1465
a(g1463
S'right'
S' wall'
tp1466
a(g1463
S'back'
S' yellow hallway'
tp1467
a(g1463
S'back'
S' fish wall'
tp1468
aa(lp1469
(S'travel'
S'steps'
S' 6'
tp1470
aa(lp1471
(S'turn'
S''
S''
tp1472
a(S'verify'
p1473
S'front'
S' yellow hallway'
tp1474
a(g1473
S'back'
S' wall'
tp1475
a(S'travel'
S''
S''
tp1476
a(S'verify'
S'side'
S' blue hallway'
tp1477
aa(lp1478
(S'turn'
S''
S''
tp1479
a(S'verify'
p1480
S'back'
S' wall'
tp1481
a(g1480
S'at'
S' 3-intersection'
tp1482
aa(lp1483
(S'travel'
S'steps'
S' 1'
tp1484
aa(lp1485
(S'verify'
p1486
S'left'
S' concrete hallway'
tp1487
a(g1486
S'left'
S' sofa'
tp1488
aa(lp1489
(S'travel'
S''
S''
tp1490
aa(lp1491
(S'travel'
S''
S''
tp1492
aa(lp1493
(g37
S''
S''
tp1494
aa(lp1495
(S'travel'
S''
S''
tp1496
a(S'verify'
S'side'
S' yellow hallway'
tp1497
aa(lp1498
(S'travel'
S''
S''
tp1499
a(S'verify'
S'front'
S' wall'
tp1500
a(S'turn'
S'right'
S''
tp1501
aa(lp1502
(S'turn'
S''
S''
tp1503
a(S'verify'
S'front'
S' grass hallway'
tp1504
aa(lp1505
(S'travel'
S''
S''
tp1506
a(S'verify'
p1507
S'front'
S' blue hallway'
tp1508
a(g1507
S'side'
S' flower hallway'
tp1509
aa(lp1510
(S'travel'
S''
S''
tp1511
a(S'turn'
S'left'
S''
tp1512
a(S'verify'
S'front'
S' flower hallway'
tp1513
aa(lp1514
(S'travel'
S''
S''
tp1515
a(S'verify'
S'right'
S' hallway'
tp1516
a(S'turn'
S'right'
S''
tp1517
aa(lp1518
(S'travel'
S'steps'
S' 1'
tp1519
aa(lp1520
(S'travel'
S'steps'
S' 1'
tp1521
a(S'turn'
S'right'
S''
tp1522
a(S'travel'
S''
S''
tp1523
a(S'verify'
S'front'
S' wall'
tp1524
aa(lp1525
(S'verify'
S'front'
S' flower hallway'
tp1526
a(S'turn'
S''
S''
tp1527
a(S'verify'
S'front'
S' tower wall'
tp1528
a(S'travel'
S''
S''
tp1529
a(S'verify'
p1530
S'front'
S' wall'
tp1531
a(g1530
S'left'
S' wall'
tp1532
a(g1530
S'right'
S' wall'
tp1533
aa(lp1534
(S'verify'
S'front'
S' chair'
tp1535
a(S'travel'
S'steps'
S' 2'
tp1536
a(S'verify'
p1537
S'back'
S' chair'
tp1538
a(g1537
S'at'
S' barstool'
tp1539
aa(lp1540
(S'turn'
S''
S''
tp1541
a(S'verify'
S'front'
S' flower hallway'
tp1542
aa(lp1543
(S'turn'
S''
S''
tp1544
a(S'verify'
p1545
S'back'
S' sofa'
tp1546
a(g1545
S'front'
S' barstool'
tp1547
aa(lp1548
(S'verify'
S'front'
S' chair'
tp1549
a(S'travel'
S''
S''
tp1550
a(S'verify'
p1551
S'back'
S' chair'
tp1552
a(g1551
S'at'
S' lamp'
tp1553
aa(lp1554
(S'verify'
S'back'
S' chair'
tp1555
aa(lp1556
(g37
S''
S''
tp1557
aa(lp1558
(S'turn'
S''
S''
tp1559
a(S'verify'
p1560
S'back'
S' wall'
tp1561
a(g1560
S'at'
S' 3-intersection'
tp1562
aa(lp1563
(S'travel'
S'steps'
S' 2'
tp1564
aa(lp1565
(S'travel'
S''
S''
tp1566
a(S'verify'
S'at'
S' easel'
tp1567
aa(lp1568
(S'travel'
S'steps'
S' 1'
tp1569
a(S'verify'
S'side'
S' flower hallway'
tp1570
aa(lp1571
(S'travel'
S''
S''
tp1572
a(S'verify'
S'at'
S' chair'
tp1573
a(S'turn'
S'left'
S''
tp1574
a(S'verify'
S'front'
S' barstool'
p1575
tp1576
aa(lp1577
(S'travel'
S''
S''
tp1578
a(S'verify'
S'at'
S' easel'
tp1579
a(S'turn'
S'right'
S''
tp1580
a(S'verify'
S'front'
S' wood hallway'
tp1581
aa(lp1582
(S'turn'
S'right'
S''
tp1583
aa(lp1584
(S'travel'
S''
S''
tp1585
a(S'verify'
S'left'
S' hallway'
tp1586
a(S'turn'
S'left'
S''
tp1587
aa(lp1588
(S'turn'
S'left'
S''
tp1589
a(S'verify'
S'front'
S' flower hallway'
tp1590
aa(lp1591
(S'turn'
S''
S''
tp1592
a(S'verify'
S'right'
S' wall'
tp1593
aa(lp1594
(S'turn'
S''
S''
tp1595
a(S'verify'
p1596
S'back'
S' wall'
tp1597
a(g1596
S'at'
S' 3-intersection'
tp1598
aa(lp1599
(S'turn'
S'right'
S''
tp1600
a(S'verify'
S'front'
S' blue hallway'
tp1601
aa(lp1602
(S'turn'
S''
S''
tp1603
a(S'verify'
p1604
S'front'
S' gravel hallway'
tp1605
a(g1604
S'back'
S' easel'
tp1606
aa(lp1607
(S'turn'
S'right'
S''
tp1608
a(S'verify'
S'front'
S' grass hallway'
tp1609
a(S'travel'
S''
S''
tp1610
a(S'verify'
p1611
S'front'
S' wall'
tp1612
a(g1611
S'side'
S' yellow hallway'
tp1613
a(g1611
S'left'
S' wall'
tp1614
aa(lp1615
(S'travel'
S''
S''
tp1616
a(S'turn'
S''
S''
tp1617
a(S'travel'
S''
S''
tp1618
a(S'turn'
S''
S''
tp1619
aa(lp1620
(S'turn'
S''
S''
tp1621
a(S'verify'
S'front'
S' flower hallway'
tp1622
a(S'travel'
S''
S''
tp1623
a(S'verify'
S'side'
S' brick hallway'
tp1624
aa(lp1625
(S'verify'
S'left'
S' hallway'
tp1626
aa(lp1627
(S'travel'
S''
S''
tp1628
aa(lp1629
(S'turn'
S''
S''
tp1630
a(S'verify'
p1631
S'back'
S' wall'
tp1632
a(g1631
S'left'
S' wall'
tp1633
aa(lp1634
(S'travel'
S'steps'
S' 1'
tp1635
a(S'verify'
S'at'
S' lamp'
tp1636
aa(lp1637
(S'turn'
S''
S''
tp1638
a(S'verify'
p1639
S'front'
S' easel'
tp1640
a(g1639
S'front'
S' brick hallway'
tp1641
aa(lp1642
(S'travel'
S'steps'
S' 1'
tp1643
aa(lp1644
(S'verify'
p1645
S'front'
S' butterfly wall'
tp1646
a(g1645
S'front'
S' blue hallway'
tp1647
a(S'travel'
S''
S''
tp1648
aa(lp1649
(S'verify'
S'front'
S' hatrack'
tp1650
aa(lp1651
(S'turn'
S''
S''
tp1652
a(S'verify'
p1653
S'front'
S' chair'
tp1654
a(g1653
S'front'
S' blue hallway'
tp1655
aa(lp1656
(S'travel'
S'steps'
S' 3'
tp1657
a(S'verify'
S'side'
S' yellow hallway'
tp1658
aa(lp1659
(S'travel'
S'steps'
S' 4'
tp1660
a(S'verify'
S'left'
S' concrete hallway'
tp1661
aa(lp1662
(S'turn'
S'left'
S''
tp1663
aa(lp1664
(S'travel'
S'steps'
S' 5'
tp1665
aa(lp1666
(S'travel'
S''
S''
tp1667
a(S'verify'
S'front'
S' wall'
tp1668
a(S'turn'
S'right'
S''
tp1669
aa(lp1670
(S'turn'
S'right'
S''
tp1671
aa(lp1672
(S'verify'
p1673
S'front'
S' gravel hallway'
tp1674
a(g1673
S'front'
S' easel'
tp1675
a(S'travel'
S'steps'
S' 1'
tp1676
aa(lp1677
(S'travel'
S'steps'
S' 1'
tp1678
a(S'verify'
p1679
S'front'
S' concrete hallway'
tp1680
a(g1679
S'side'
S' blue hallway'
tp1681
aa(lp1682
(S'travel'
S'steps'
S' 1'
tp1683
aa(lp1684
(S'travel'
S''
S''
tp1685
a(S'verify'
S'front'
S' wall'
tp1686
aa(lp1687
(S'turn'
S'right'
S''
tp1688
aa(lp1689
(S'travel'
S'steps'
S' 1'
tp1690
a(S'verify'
S'side'
S' yellow hallway'
tp1691
aa(lp1692
(S'turn'
S''
S''
tp1693
a(S'verify'
p1694
S'right'
S' wall'
tp1695
a(g1694
S'back'
S' wall'
tp1696
aa(lp1697
(S'turn'
S'right'
S''
tp1698
aa(lp1699
(S'turn'
S''
S''
tp1700
a(S'verify'
S'front'
S' gravel hallway'
tp1701
aa(lp1702
(S'turn'
S'right'
S''
tp1703
a(S'travel'
S'steps'
S' 1'
tp1704
aa(lp1705
(S'verify'
S'front'
S' yellow hallway'
tp1706
a(S'travel'
S''
S''
tp1707
a(S'verify'
S'front'
S' wall'
tp1708
aa(lp1709
(S'turn'
S'right'
S''
tp1710
aa(lp1711
(S'travel'
S'steps'
S' 1'
tp1712
aa(lp1713
(S'verify'
S'right'
S' concrete hallway'
tp1714
aa(lp1715
(S'travel'
S''
S''
tp1716
a(S'verify'
p1717
S'front'
S' blue hallway'
tp1718
a(g1717
S'back'
S' blue hallway'
tp1719
aa(lp1720
(g37
S''
S''
tp1721
aa(lp1722
(S'verify'
S'front'
S' blue hallway'
tp1723
a(S'travel'
S''
S''
tp1724
a(S'verify'
p1725
S'front'
S' wall'
tp1726
a(g1725
S'right'
S' wall'
tp1727
a(S'turn'
S'left'
S''
tp1728
a(S'verify'
S'front'
S' easel'
tp1729
aa(lp1730
(S'turn'
S''
S''
tp1731
a(S'verify'
p1732
S'front'
S' brick hallway'
tp1733
a(g1732
S'back'
S' lamp'
tp1734
a(S'travel'
S''
S''
tp1735
a(S'verify'
S'side'
S' grass hallway'
tp1736
aa(lp1737
(S'travel'
S'steps'
S' 1'
tp1738
a(S'verify'
p1739
S'front'
S' wall'
tp1740
a(g1739
S'left'
S' wall'
tp1741
a(g1739
S'right'
S' wall'
tp1742
aa(lp1743
(S'turn'
S'right'
S''
tp1744
aa(lp1745
(S'travel'
S'steps'
S' 1'
tp1746
a(S'verify'
S'side'
S' flower hallway'
tp1747
aa(lp1748
(S'turn'
S''
S''
tp1749
a(S'verify'
p1750
S'left'
S' wall'
tp1751
a(g1750
S'right'
S' flower hallway'
tp1752
aa(lp1753
(S'travel'
S''
S''
tp1754
a(S'verify'
S'at'
S' hatrack'
tp1755
a(S'turn'
S'right'
S''
tp1756
a(S'verify'
S'front'
S' blue hallway'
tp1757
aa(lp1758
(S'verify'
p1759
S'front'
S' wall'
tp1760
a(g1759
S'right'
S' wall'
tp1761
a(S'turn'
S'left'
S''
tp1762
a(S'verify'
S'front'
S' brick hallway'
tp1763
aa(lp1764
(S'travel'
S''
S''
tp1765
a(S'verify'
S'side'
S' concrete hallway'
tp1766
aa(lp1767
(S'travel'
S''
S''
tp1768
a(S'verify'
S'side'
S' gravel hallway'
tp1769
aa(lp1770
(S'turn'
S''
S''
tp1771
a(S'verify'
p1772
S'back'
S' easel'
p1773
tp1774
a(g1772
S'front'
S' gravel hallway'
tp1775
a(S'travel'
S'steps'
S' 1'
tp1776
aa(lp1777
(S'travel'
S'steps'
S' 1'
tp1778
aa(lp1779
(S'travel'
S''
S''
tp1780
a(S'verify'
S'at'
S' lamp'
tp1781
a(S'turn'
S'left'
S''
tp1782
a(S'travel'
S''
S''
tp1783
a(S'verify'
p1784
S'front'
S' wall'
tp1785
a(g1784
S'left'
S' wall'
tp1786
a(S'turn'
S'right'
S''
tp1787
aa(lp1788
(S'turn'
S''
S''
tp1789
a(S'verify'
S'front'
S' gravel hallway'
tp1790
a(S'travel'
S''
S''
tp1791
aa(lp1792
(S'travel'
S''
S''
tp1793
a(S'verify'
S'left'
S' hallway'
tp1794
a(S'turn'
S'left'
S''
tp1795
aa(lp1796
(S'turn'
S'right'
S''
tp1797
aa(lp1798
(S'turn'
S'right'
S''
tp1799
aa(lp1800
(S'travel'
S'steps'
S' 3'
tp1801
aa(lp1802
(S'turn'
S'right'
S''
tp1803
aa(lp1804
(S'travel'
S'steps'
S' 2'
tp1805
a(S'verify'
S'at'
S' easel'
tp1806
aa(lp1807
(S'turn'
S''
S''
tp1808
a(S'verify'
S'front'
S' yellow hallway'
tp1809
a(S'travel'
S''
S''
tp1810
a(S'verify'
S'side'
S' flower hallway'
tp1811
aa(lp1812
(S'turn'
S'right'
S''
tp1813
a(S'verify'
S'front'
S' flower hallway'
tp1814
aa(lp1815
(S'verify'
p1816
S'front'
S' lamp'
tp1817
a(g1816
S'right'
S' concrete hallway'
tp1818
aa(lp1819
(S'turn'
S''
S''
tp1820
a(S'verify'
S'left'
S' wall'
tp1821
aa(lp1822
(S'verify'
S'front'
S' chair'
tp1823
aa(lp1824
(S'turn'
S''
S''
tp1825
a(S'verify'
p1826
S'front'
S' gravel hallway'
tp1827
a(g1826
S'front'
S' tower wall'
tp1828
aa(lp1829
(S'turn'
S'right'
S''
tp1830
aa(lp1831
(S'turn'
S''
S''
tp1832
a(S'verify'
S'front'
S' hatrack'
tp1833
aa(lp1834
(S'turn'
S'right'
S''
tp1835
a(S'verify'
S'front'
S' gravel hallway'
tp1836
a(S'travel'
S''
S''
tp1837
a(S'verify'
p1838
S'front'
S' gravel hallway'
tp1839
a(g1838
S'side'
S' yellow hallway'
tp1840
aa(lp1841
(S'turn'
S'left'
S''
tp1842
aa(lp1843
(S'travel'
S''
S''
tp1844
a(S'verify'
S'right'
S' hallway'
tp1845
a(S'turn'
S'right'
S''
tp1846
a(S'travel'
S''
S''
tp1847
a(S'verify'
p1848
S'front'
S' wall'
tp1849
a(g1848
S'left'
S' wall'
tp1850
a(g1848
S'right'
S' wall'
tp1851
aa(lp1852
(S'verify'
S'front'
S' gravel hallway'
tp1853
a(S'travel'
S''
S''
tp1854
a(S'verify'
S'front'
S' wall'
tp1855
aa(lp1856
(S'turn'
S'right'
S''
tp1857
aa(lp1858
(S'travel'
S'steps'
S' 1'
tp1859
aa(lp1860
(S'turn'
S'left'
S''
tp1861
a(S'travel'
S''
S''
tp1862
a(S'verify'
S'at'
p1863
S' sofa'
p1864
tp1865
aa(lp1866
(S'turn'
S''
S''
tp1867
a(S'verify'
S'front'
S' brick hallway'
tp1868
aa(lp1869
(S'turn'
S'right'
S''
tp1870
a(S'verify'
S'front'
S' blue hallway'
tp1871
aa(lp1872
(S'turn'
S'left'
S''
tp1873
aa(lp1874
(S'turn'
S'left'
S''
tp1875
aa(lp1876
(S'turn'
S'right'
S''
tp1877
aa(lp1878
(S'travel'
S''
S''
tp1879
a(S'verify'
p1880
S'at'
S' easel'
tp1881
a(g1880
S'side'
S' wood hallway'
tp1882
aa(lp1883
(S'verify'
S'at'
S' chair'
tp1884
a(S'turn'
S'left'
S''
tp1885
a(S'travel'
S'steps'
S' 1'
tp1886
a(S'turn'
S'right'
S''
tp1887
aa(lp1888
(S'verify'
p1889
S'at'
S' 3-intersection'
tp1890
a(g1889
S'side'
S' concrete hallway'
tp1891
aa(lp1892
(S'travel'
S''
S''
tp1893
a(S'verify'
p1894
S'front'
S' gravel hallway'
tp1895
a(g1894
S'side'
S' yellow hallway'
tp1896
a(S'turn'
S'left'
S''
tp1897
aa(lp1898
(S'travel'
S''
S''
tp1899
a(S'verify'
S'at'
S' sofa'
tp1900
a(S'turn'
S'left'
S''
tp1901
a(S'travel'
S''
S''
tp1902
a(S'verify'
S'at'
S' sofa'
tp1903
a(S'turn'
S'right'
S''
tp1904
aa(lp1905
(S'turn'
S'left'
S''
tp1906
aa(lp1907
(S'turn'
S'right'
S''
tp1908
aa(lp1909
(S'travel'
S'steps'
S' 1'
tp1910
aa(lp1911
(S'turn'
S'left'
S''
tp1912
aa(lp1913
(S'turn'
S''
S''
tp1914
a(S'verify'
p1915
S'back'
S' wall'
tp1916
a(g1915
S'at'
S' 3-intersection'
tp1917
aa(lp1918
(S'travel'
S''
S''
tp1919
a(S'verify'
S'at'
S' easel'
tp1920
aa(lp1921
(S'turn'
S''
S''
tp1922
a(S'verify'
S'front'
S' yellow hallway'
tp1923
a(S'travel'
S''
S''
tp1924
a(S'verify'
p1925
S'side'
S' gravel hallway'
tp1926
a(g1925
S'at'
S' easel'
tp1927
aa(lp1928
(S'turn'
S'left'
S''
tp1929
aa(lp1930
(S'turn'
S'right'
S''
tp1931
aa(lp1932
(S'verify'
S'front'
S' blue hallway'
tp1933
aa(lp1934
(S'travel'
S''
S''
tp1935
aa(lp1936
(S'turn'
S'left'
S''
tp1937
a(S'verify'
S'front'
S' flower hallway'
tp1938
aa(lp1939
(S'travel'
S'steps'
S' 5'
tp1940
aa(lp1941
(S'verify'
S'right'
S' wood hallway'
tp1942
a(S'turn'
S'right'
S''
tp1943
a(S'travel'
S''
S''
tp1944
a(S'verify'
S'front'
S' tower wall'
tp1945
aa(lp1946
(S'travel'
S''
S''
tp1947
a(S'verify'
S'side'
S' gravel hallway'
tp1948
aa(lp1949
(S'turn'
S'left'
S''
tp1950
a(S'travel'
S''
S''
tp1951
a(S'verify'
p1952
S'right'
S' wall'
tp1953
a(g1952
S'left'
S' wall'
tp1954
a(g1952
S'front'
S' wall'
tp1955
aa(lp1956
(S'turn'
S''
S''
tp1957
a(S'verify'
S'front'
S' chair'
tp1958
a(S'travel'
S'steps'
S' 1'
tp1959
aa(lp1960
(S'turn'
S''
S''
tp1961
a(S'verify'
S'front'
S' brick hallway'
tp1962
aa(lp1963
(S'turn'
S'left'
S''
tp1964
a(S'travel'
S'steps'
S' 1'
tp1965
aa(lp1966
(S'travel'
S''
S''
tp1967
a(S'verify'
S'left'
S' hallway'
tp1968
aa(lp1969
(S'travel'
S''
S''
tp1970
a(S'verify'
S'front'
S' hallway'
p1971
tp1972
aa(lp1973
(S'verify'
p1974
S'front'
S' chair'
tp1975
a(g1974
S'front'
S' wood hallway'
tp1976
aa(lp1977
(S'turn'
S'right'
S''
tp1978
aa(lp1979
(S'turn'
S''
S''
tp1980
a(S'verify'
S'right'
S' wall'
tp1981
aa(lp1982
(S'turn'
S'right'
S''
tp1983
aa(lp1984
(S'travel'
S''
S''
tp1985
a(S'verify'
S'at'
S' sofa'
tp1986
a(S'travel'
S'steps'
S' 1'
tp1987
a(S'turn'
S'right'
S''
tp1988
aa(lp1989
(S'travel'
S'steps'
S' 3'
tp1990
aa(lp1991
(S'turn'
S'right'
S''
tp1992
aa(lp1993
(S'travel'
S'steps'
S' 2'
tp1994
aa(lp1995
(S'verify'
S'front'
S' chair'
tp1996
a(S'travel'
S''
S''
tp1997
a(S'verify'
S'back'
S' chair'
tp1998
aa(lp1999
(S'travel'
S''
S''
tp2000
a(S'verify'
S'side'
S' brick hallway'
tp2001
aa(lp2002
(S'travel'
S'steps'
S' 1'
tp2003
aa(lp2004
(S'turn'
S''
S''
tp2005
a(S'verify'
S'front'
S' gravel hallway'
tp2006
aa(lp2007
(S'verify'
S'front'
S' wood hallway'
tp2008
a(S'travel'
S''
S''
tp2009
a(S'verify'
S'side'
S' brick hallway'
tp2010
aa(lp2011
(S'turn'
S''
S''
tp2012
a(S'verify'
S'front'
S' wood hallway'
tp2013
aa(lp2014
(S'turn'
S''
S''
tp2015
a(S'verify'
p2016
S'back'
S' wall'
tp2017
a(g2016
S'at'
S' 3-intersection'
tp2018
aa(lp2019
(S'verify'
S'side'
S' blue hallway'
tp2020
a(S'turn'
S'left'
S''
tp2021
a(S'verify'
S'front'
S' hatrack'
tp2022
aa(lp2023
(S'verify'
S'front'
S' chair'
tp2024
a(S'travel'
S''
S''
tp2025
a(S'verify'
p2026
S'back'
S' chair'
tp2027
a(g2026
S'at'
S' hatrack'
tp2028
aa(lp2029
(S'travel'
S''
S''
tp2030
a(S'turn'
S'left'
S''
tp2031
a(S'verify'
S'front'
S' flower hallway'
tp2032
aa(lp2033
(S'turn'
S''
S''
tp2034
a(S'verify'
p2035
S'back'
S' wall'
tp2036
a(g2035
S'at'
S' 3-intersection'
tp2037
aa(lp2038
(S'verify'
S'left'
S' concrete hallway'
tp2039
aa(lp2040
(S'turn'
S''
S''
tp2041
a(S'verify'
S'left'
S' wall'
tp2042
aa(lp2043
(S'verify'
p2044
S'right'
S' sofa'
tp2045
a(g2044
S'right'
S' concrete hallway'
tp2046
aa(lp2047
(S'travel'
S'steps'
S' 1'
tp2048
aa(lp2049
(S'travel'
S'steps'
S' 1'
tp2050
aa(lp2051
(S'turn'
S'right'
S''
tp2052
aa(lp2053
(S'travel'
S''
S''
tp2054
a(S'verify'
S'front'
S' wall'
tp2055
a(S'turn'
S'left'
S''
tp2056
a(S'travel'
S''
S''
tp2057
a(S'verify'
S'front'
S' wall'
tp2058
aa(lp2059
(S'verify'
S'at'
S' easel'
tp2060
aa(lp2061
(S'verify'
S'front'
S' barstool'
tp2062
aa(lp2063
(S'turn'
S'right'
S''
tp2064
aa(lp2065
(S'verify'
S'front'
S' gravel hallway'
tp2066
a(S'travel'
S''
S''
tp2067
a(S'verify'
S'side'
S' yellow hallway'
tp2068
aa(lp2069
(S'turn'
S'right'
S''
tp2070
a(S'travel'
S'steps'
S' 1'
tp2071
aa(lp2072
(S'turn'
S'left'
S''
tp2073
aa(lp2074
(S'turn'
S'left'
S''
tp2075
aa(lp2076
(S'turn'
S''
S''
tp2077
a(S'verify'
S'front'
S' easel'
tp2078
aa(lp2079
(S'turn'
S'left'
S''
tp2080
aa(lp2081
(S'travel'
S''
S''
tp2082
a(S'verify'
p2083
S'front'
S' fish wall'
tp2084
a(g2083
S'front'
S' gravel hallway'
tp2085
a(g2083
S'side'
S' yellow hallway'
tp2086
aa(lp2087
(S'turn'
S''
S''
tp2088
a(S'verify'
S'front'
S' flower hallway'
tp2089
a(S'travel'
S''
S''
tp2090
a(S'verify'
S'side'
S' brick hallway'
tp2091
aa(lp2092
(S'travel'
S'steps'
S' 1'
tp2093
aa(lp2094
(S'turn'
S'left'
S''
tp2095
aa(lp2096
(S'turn'
S'right'
S''
tp2097
aa(lp2098
(S'verify'
p2099
S'front'
S' hatrack'
tp2100
a(g2099
S'left'
S' hallway'
tp2101
aa(lp2102
(S'verify'
S'at'
S' hatrack'
tp2103
aa(lp2104
(S'travel'
S'steps'
S' 1'
tp2105
aa(lp2106
(S'travel'
S''
S''
tp2107
a(S'verify'
S'front'
S' wall'
tp2108
a(S'turn'
S'right'
S''
tp2109
aa(lp2110
(S'turn'
S''
S''
tp2111
a(S'verify'
S'front'
S' lamp'
tp2112
a(S'travel'
S'steps'
S' 1'
tp2113
aa(lp2114
(S'turn'
S'right'
S''
tp2115
a(S'verify'
S'front'
S' brick hallway'
tp2116
aa(lp2117
(g37
S''
S''
tp2118
aa(lp2119
(S'travel'
S'steps'
S' 1'
tp2120
a(S'verify'
S'side'
S' concrete hallway'
tp2121
aa(lp2122
(S'travel'
S'steps'
S' 2'
tp2123
aa(lp2124
(S'verify'
p2125
S'left'
S' butterfly wall'
tp2126
a(g2125
S'right'
S' tower wall'
tp2127
aa(lp2128
(S'verify'
p2129
S'front'
S' flower hallway'
tp2130
a(g2129
S'side'
S' brick hallway'
tp2131
aa(lp2132
(S'turn'
S''
S''
tp2133
a(S'travel'
S''
S''
tp2134
a(S'turn'
S''
S''
tp2135
a(S'travel'
S''
S''
tp2136
a(S'turn'
S''
S''
tp2137
a(S'travel'
S''
S''
tp2138
a(S'verify'
p2139
S'front'
S' wall'
tp2140
a(g2139
S'left'
S' wall'
tp2141
a(g2139
S'right'
S' wall'
tp2142
aa(lp2143
(S'travel'
S'steps'
S' 1'
tp2144
a(S'verify'
S'at'
S' hatrack'
tp2145
aa(lp2146
(S'verify'
S'at'
S' easel'
tp2147
aa(lp2148
(S'verify'
p2149
S'back'
S' lamp'
tp2150
a(g2149
S'left'
S' hatrack'
tp2151
aa(lp2152
(S'turn'
S'right'
S''
tp2153
aa(lp2154
(g37
S''
S''
tp2155
aa(lp2156
(S'travel'
S'steps'
S' 2'
tp2157
aa(lp2158
(S'verify'
p2159
S'front'
S' wood hallway'
tp2160
a(g2159
S'side'
S' butterfly wall'
tp2161
aa(lp2162
(S'verify'
S'at'
S' barstool'
tp2163
aa(lp2164
(S'verify'
S'back'
S' sofa'
tp2165
aa(lp2166
(S'travel'
S''
S''
tp2167
a(S'verify'
p2168
S'front'
S' gravel hallway'
tp2169
a(g2168
S'side'
S' yellow hallway'
tp2170
a(g2168
S'at'
S' easel'
tp2171
aa(lp2172
(S'travel'
S''
S''
tp2173
a(S'verify'
p2174
S'at'
S' easel'
tp2175
a(g2174
S'front'
S' gravel hallway'
tp2176
a(g2174
S'back'
S' gravel hallway'
p2177
tp2178
aa(lp2179
(S'travel'
S''
S''
tp2180
a(S'verify'
S'at'
S' hatrack'
tp2181
a(S'turn'
S'left'
S''
tp2182
a(S'verify'
S'front'
S' concrete hallway'
tp2183
aa(lp2184
(S'turn'
S''
S''
tp2185
a(S'verify'
S'front'
S' yellow hallway'
tp2186
aa(lp2187
(S'travel'
S''
S''
tp2188
a(S'verify'
S'right'
S' hallway'
tp2189
a(S'turn'
S'right'
S''
tp2190
aa(lp2191
(S'turn'
S'left'
S''
tp2192
aa(lp2193
(S'turn'
S'right'
S''
tp2194
aa(lp2195
(S'verify'
S'at'
S' easel'
tp2196
a(S'turn'
S'left'
S''
tp2197
a(S'travel'
S''
S''
tp2198
a(S'verify'
p2199
S'left'
S' wall'
tp2200
a(g2199
S'front'
S' wall'
tp2201
aa(lp2202
(S'travel'
S'steps'
S' 1'
tp2203
aa(lp2204
(S'verify'
S'front'
S' blue hallway'
tp2205
a(S'travel'
S'steps'
S' 2'
tp2206
a(S'verify'
S'side'
S' flower hallway'
tp2207
aa(lp2208
(S'turn'
S'right'
S''
tp2209
aa(lp2210
(S'travel'
S''
S''
tp2211
a(S'verify'
S'at'
S' lamp'
tp2212
a(S'travel'
S'steps'
S' 2'
tp2213
a(S'verify'
S'side'
S' concrete hallway'
tp2214
a(S'turn'
S'right'
S''
tp2215
aa(lp2216
(S'turn'
S'right'
S''
tp2217
aa(lp2218
(S'travel'
S'steps'
S' 3'
tp2219
aa(lp2220
(S'turn'
S'left'
S''
tp2221
a(S'verify'
S'front'
S' brick hallway'
tp2222
a(S'travel'
S''
S''
tp2223
a(S'verify'
p2224
S'side'
S' flower hallway'
tp2225
a(g2224
S'at'
S' easel'
tp2226
aa(lp2227
(S'travel'
S''
S''
tp2228
a(S'verify'
p2229
S'front'
S' brick hallway'
tp2230
a(g2229
S'left'
S' blue hallway'
p2231
tp2232
aa(lp2233
(S'travel'
S'steps'
S' 1'
tp2234
a(S'verify'
S'at'
S' lamp'
tp2235
aa(lp2236
(S'travel'
S'steps'
S' 2'
tp2237
aa(lp2238
(S'travel'
S'steps'
S' 2'
tp2239
a(S'verify'
S'side'
S' yellow hallway'
tp2240
aa(lp2241
(S'turn'
S''
S''
tp2242
a(S'verify'
S'front'
S' easel'
tp2243
aa(lp2244
(S'travel'
S'steps'
S' 2'
tp2245
a(S'verify'
S'front'
S' wall'
tp2246
aa(lp2247
(S'travel'
S'steps'
S' 1'
tp2248
aa(lp2249
(S'turn'
S'left'
S''
tp2250
a(S'verify'
S'front'
S' brick hallway'
tp2251
aa(lp2252
(S'travel'
S'steps'
S' 3'
p2253
tp2254
a(S'verify'
S'front'
S' wall'
tp2255
aa(lp2256
(S'turn'
S'right'
S''
tp2257
aa(lp2258
(S'turn'
S''
S''
tp2259
a(S'verify'
p2260
S'front'
S' brick hallway'
tp2261
a(g2260
S'front'
S' lamp'
tp2262
aa(lp2263
(S'turn'
S'left'
S''
tp2264
aa(lp2265
(S'travel'
S'steps'
S' 1'
tp2266
a(S'verify'
S'side'
S' concrete hallway'
tp2267
aa(lp2268
(S'turn'
S'left'
S''
tp2269
aa(lp2270
(S'verify'
S'at'
S' easel'
tp2271
aa(lp2272
(S'turn'
S'right'
S''
tp2273
a(S'verify'
S'front'
S' flower hallway'
tp2274
aa(lp2275
(S'turn'
S''
S''
tp2276
a(S'verify'
S'front'
S' fish wall'
tp2277
aa(lp2278
(S'turn'
S'right'
S''
tp2279
aa(lp2280
(S'travel'
S'steps'
S' 2'
tp2281
a(S'verify'
S'side'
S' yellow hallway'
tp2282
aa(lp2283
(g37
S''
S''
tp2284
aa(lp2285
(S'verify'
S'front'
S' brick hallway'
tp2286
aa(lp2287
(S'verify'
S'right'
S' yellow hallway'
p2288
tp2289
aa(lp2290
(S'turn'
S'right'
S''
tp2291
a(S'verify'
S'front'
S' flower hallway'
tp2292
aa(lp2293
(S'turn'
S'left'
S''
tp2294
a(S'verify'
S'front'
S' brick hallway'
tp2295
aa(lp2296
(S'travel'
S''
S''
tp2297
a(S'verify'
S'side'
S' blue hallway'
tp2298
aa(lp2299
(S'travel'
S'steps'
S' 1'
tp2300
aa(lp2301
(S'verify'
S'front'
S' blue hallway'
tp2302
a(S'travel'
S'steps'
S' 2'
tp2303
aa(lp2304
(S'travel'
S'steps'
S' 2'
tp2305
aa(lp2306
(g37
S''
S''
tp2307
aa(lp2308
(S'travel'
S'steps'
S' 2'
tp2309
aa(lp2310
(S'travel'
S'steps'
S' 1'
tp2311
aa(lp2312
(S'turn'
S''
S''
tp2313
a(S'verify'
p2314
S'back'
S' wall'
tp2315
a(g2314
S'left'
S' wall'
tp2316
a(g2314
S'right'
S' wall'
tp2317
aa(lp2318
(S'travel'
S'steps'
S' 1'
tp2319
a(S'verify'
p2320
S'front'
S' wall'
tp2321
a(g2320
S'right'
S' wall'
tp2322
aa(lp2323
(S'travel'
S''
S''
tp2324
a(S'verify'
S'side'
S' flower hallway'
tp2325
a(S'turn'
S'left'
S''
tp2326
aa(lp2327
(S'turn'
S'left'
S''
tp2328
aa(lp2329
(S'turn'
S'right'
S''
tp2330
aa(lp2331
(S'turn'
S'right'
S''
tp2332
aa(lp2333
(S'travel'
S'steps'
S' 2'
tp2334
aa(lp2335
(S'travel'
S'steps'
S' 1'
tp2336
aa(lp2337
(S'travel'
S'steps'
S' 1'
tp2338
a(S'verify'
S'side'
S' flower hallway'
tp2339
aa(lp2340
(S'turn'
S'right'
S''
tp2341
a(S'verify'
p2342
S'front'
S' brick hallway'
tp2343
a(g2342
S'front'
S' lamp'
tp2344
aa(lp2345
(S'travel'
S'steps'
S' 2'
tp2346
aa(lp2347
(S'verify'
S'at'
S' easel'
tp2348
aa(lp2349
(S'verify'
S'front'
S' wood hallway'
tp2350
aa(lp2351
(S'travel'
S''
S''
tp2352
a(S'verify'
S'side'
S' yellow hallway'
tp2353
aa(lp2354
(S'travel'
S'steps'
S' 1'
tp2355
aa(lp2356
(S'verify'
S'side'
S' gravel hallway'
tp2357
aa(lp2358
(S'travel'
S'steps'
S' 1'
tp2359
aa(lp2360
(S'travel'
S''
S''
tp2361
a(S'verify'
p2362
S'front'
S' wall'
tp2363
a(g2362
S'left'
S' wall'
tp2364
aa(lp2365
(S'turn'
S''
S''
tp2366
a(S'verify'
S'front'
S' yellow hallway'
tp2367
aa(lp2368
(S'turn'
S''
S''
tp2369
a(S'verify'
S'front'
S' lamp'
tp2370
aa(lp2371
(S'turn'
S'left'
S''
tp2372
aa(lp2373
(S'turn'
S'left'
S''
tp2374
a(S'verify'
S'front'
S' blue hallway'
tp2375
aa(lp2376
(S'turn'
S'right'
S''
tp2377
a(S'travel'
S'steps'
S' 1'
tp2378
aa(lp2379
(S'travel'
S''
S''
tp2380
a(S'turn'
S''
S''
tp2381
a(S'travel'
S''
S''
tp2382
a(S'turn'
S''
S''
tp2383
aa(lp2384
(S'verify'
p2385
S'front'
S' lamp'
tp2386
a(g2385
S'front'
S' hatrack'
tp2387
a(S'travel'
S'steps'
S' 5'
tp2388
a(S'verify'
p2389
S'back'
S' lamp'
tp2390
a(g2389
S'back'
S' hatrack'
tp2391
a(g2389
S'side'
S' gravel hallway'
tp2392
aa(lp2393
(S'travel'
S''
S''
tp2394
a(S'turn'
S'right'
S''
tp2395
aa(lp2396
(S'travel'
S'steps'
S' 1'
tp2397
aa(lp2398
(S'travel'
S''
S''
tp2399
a(S'verify'
S'side'
S' yellow hallway'
tp2400
a(S'turn'
S''
S''
tp2401
a(S'verify'
S'front'
S' yellow hallway'
tp2402
a(S'travel'
S''
S''
tp2403
a(S'verify'
S'front'
S' wall'
tp2404
aa(lp2405
(S'turn'
S'left'
S''
tp2406
aa(lp2407
(S'turn'
S'left'
S''
tp2408
a(S'travel'
S'steps'
S' 1'
tp2409
aa(lp2410
(S'turn'
S'right'
S''
tp2411
aa(lp2412
(S'verify'
p2413
S'front'
S' sofa'
tp2414
a(g2413
S'front'
S' hatrack'
tp2415
aa(lp2416
(S'turn'
S''
S''
tp2417
a(S'verify'
S'front'
S' hatrack'
tp2418
aa(lp2419
(S'travel'
S'steps'
S' 1'
tp2420
a(S'verify'
S'side'
S' blue hallway'
tp2421
aa(lp2422
(S'turn'
S'left'
S''
tp2423
a(S'verify'
S'front'
S' easel'
tp2424
aa(lp2425
(S'verify'
S'at'
S' chair'
tp2426
aa(lp2427
(S'travel'
S''
S''
tp2428
a(S'verify'
S'at'
S' easel'
tp2429
a(S'turn'
S'left'
S''
tp2430
aa(lp2431
(S'turn'
S'left'
S''
tp2432
aa(lp2433
(S'travel'
S''
S''
tp2434
a(S'verify'
S'side'
S' blue hallway'
tp2435
a(S'turn'
S'right'
S''
tp2436
aa(lp2437
(S'travel'
S''
S''
tp2438
a(S'verify'
S'at'
S' sofa'
tp2439
a(S'turn'
S'left'
S''
tp2440
a(S'verify'
S'front'
S' blue hallway'
tp2441
aa(lp2442
(S'travel'
S'steps'
S' 1'
tp2443
a(S'turn'
S'left'
S''
tp2444
aa(lp2445
(S'turn'
S'left'
S''
tp2446
aa(lp2447
(S'travel'
S''
S''
tp2448
a(S'verify'
S'at'
S' easel'
tp2449
aa(lp2450
(S'travel'
S''
S''
tp2451
a(S'verify'
S'at'
S' sofa'
tp2452
aa(lp2453
(S'travel'
S'steps'
S' 1'
tp2454
aa(lp2455
(S'turn'
S'right'
S''
tp2456
aa(lp2457
(S'turn'
S'left'
S''
tp2458
aa(lp2459
(S'verify'
S'front'
S' lamp'
tp2460
a(S'travel'
S'steps'
S' 4'
tp2461
a(S'verify'
p2462
S'side'
S' wood hallway'
tp2463
a(g2462
S'back'
S' lamp'
tp2464
aa(lp2465
(S'verify'
p2466
S'front'
S' brick hallway'
tp2467
a(g2466
S'front'
S' lamp'
tp2468
a(S'travel'
S''
S''
tp2469
a(S'verify'
p2470
S'back'
S' lamp'
tp2471
a(g2470
S'at'
S' hatrack'
tp2472
aa(lp2473
(S'turn'
S'left'
S''
tp2474
aa(lp2475
(S'travel'
S'steps'
S' 1'
tp2476
a(S'verify'
S'side'
S' flower hallway'
tp2477
aa(lp2478
(S'verify'
p2479
S'front'
S' blue hallway'
tp2480
a(g2479
S'front'
S' chair'
tp2481
a(S'travel'
S''
S''
tp2482
a(S'verify'
S'back'
S' chair'
tp2483
aa(lp2484
(S'travel'
S''
S''
tp2485
aa(lp2486
(S'travel'
S'steps'
S' 4'
tp2487
aa(lp2488
(S'travel'
S''
S''
tp2489
a(S'verify'
S'front'
S' wall'
tp2490
a(S'turn'
S'left'
S''
tp2491
aa(lp2492
(S'travel'
S''
S''
tp2493
aa(lp2494
(S'turn'
S''
S''
tp2495
a(S'verify'
S'front'
S' yellow hallway'
tp2496
aa(lp2497
(S'verify'
S'at'
S' easel'
tp2498
aa(lp2499
(S'travel'
S''
S''
tp2500
a(S'verify'
S'at'
S' hatrack'
tp2501
a(S'turn'
S'right'
S''
tp2502
aa(lp2503
(S'turn'
S'left'
S''
tp2504
aa(lp2505
(S'verify'
S'right'
S' blue hallway'
tp2506
aa(lp2507
(S'turn'
S'left'
S''
tp2508
aa(lp2509
(S'turn'
S''
S''
tp2510
a(S'verify'
p2511
S'front'
S' brick hallway'
tp2512
a(g2511
S'front'
S' lamp'
tp2513
a(S'travel'
S''
S''
tp2514
a(S'verify'
S'front'
S' wall'
tp2515
aa(lp2516
(S'travel'
S'steps'
S' 4'
tp2517
a(S'verify'
S'side'
S' flower hallway'
tp2518
aa(lp2519
(S'turn'
S''
S''
tp2520
a(S'verify'
S'front'
S' brick hallway'
tp2521
aa(lp2522
(S'turn'
S'left'
S''
tp2523
aa(lp2524
(S'travel'
S'steps'
S' 1'
tp2525
aa(lp2526
(S'turn'
S'left'
S''
tp2527
a(S'verify'
S'front'
S' easel'
tp2528
aa(lp2529
(S'travel'
S''
S''
tp2530
a(S'verify'
S'at'
S' hatrack'
tp2531
a(S'turn'
S'left'
S''
tp2532
aa(lp2533
(S'travel'
S'steps'
S' 1'
tp2534
a(S'verify'
S'side'
S' flower hallway'
tp2535
aa(lp2536
(S'turn'
S'left'
S''
tp2537
a(S'verify'
S'front'
S' yellow hallway'
tp2538
a(S'travel'
S''
S''
tp2539
a(S'verify'
S'front'
S' wall'
tp2540
aa(lp2541
(S'travel'
S''
S''
tp2542
a(S'turn'
S'right'
S''
tp2543
aa(lp2544
(S'turn'
S'left'
S''
tp2545
aa(lp2546
(S'turn'
S''
S''
tp2547
a(S'verify'
S'front'
S' lamp'
tp2548
aa(lp2549
(S'verify'
S'front'
S' gravel hallway'
tp2550
a(S'travel'
S''
S''
tp2551
a(S'verify'
S'side'
S' yellow hallway'
tp2552
aa(lp2553
(S'travel'
S'steps'
S' 1'
tp2554
aa(lp2555
(S'travel'
S''
S''
tp2556
aa(lp2557
(S'verify'
S'back'
S' tower wall'
tp2558
aa(lp2559
(S'verify'
S'at'
S' sofa'
tp2560
aa(lp2561
(S'turn'
S''
S''
tp2562
a(S'verify'
p2563
S'front'
S' lamp'
tp2564
a(g2563
S'front'
S' easel'
tp2565
aa(lp2566
(S'turn'
S''
S''
tp2567
a(S'verify'
S'front'
S' gravel hallway'
tp2568
aa(lp2569
(S'turn'
S'right'
S''
tp2570
a(S'verify'
S'back'
S' easel'
tp2571
aa(lp2572
(S'travel'
S'steps'
S' 1'
tp2573
aa(lp2574
(S'turn'
S'right'
S''
tp2575
aa(lp2576
(S'verify'
S'at'
S' sofa'
tp2577
aa(lp2578
(S'verify'
S'front'
S' chair'
tp2579
aa(lp2580
(S'turn'
S'right'
S''
tp2581
aa(lp2582
(S'travel'
S'steps'
S' 1'
tp2583
a(S'verify'
S'side'
S' gravel hallway'
tp2584
aa(lp2585
(S'turn'
S''
S''
tp2586
a(S'verify'
p2587
S'back'
S' wall'
tp2588
a(g2587
S'left'
S' wall'
tp2589
a(g2587
S'right'
S' wall'
tp2590
aa(lp2591
(S'travel'
S'steps'
S' 1'
tp2592
aa(lp2593
(S'turn'
S''
S''
tp2594
a(S'verify'
S'back'
S' easel'
tp2595
aa(lp2596
(S'turn'
S''
S''
tp2597
a(S'verify'
S'side'
S' yellow hallway'
tp2598
a(S'travel'
S''
S''
tp2599
a(S'verify'
S'side'
S' wood hallway'
tp2600
aa(lp2601
(S'travel'
S'steps'
S' 1'
tp2602
aa(lp2603
(S'turn'
S''
S''
tp2604
a(S'verify'
S'front'
S' flower hallway'
tp2605
aa(lp2606
(S'travel'
S'steps'
S' 1'
tp2607
aa(lp2608
(S'verify'
S'at'
S' easel'
tp2609
aa(lp2610
(S'turn'
S'left'
S''
tp2611
aa(lp2612
(S'turn'
S'right'
S''
tp2613
a(S'travel'
S'steps'
S' 2'
tp2614
aa(lp2615
(S'turn'
S'right'
S''
tp2616
aa(lp2617
(S'travel'
S''
S''
tp2618
a(S'verify'
S'side'
S' flower hallway'
tp2619
aa(lp2620
(S'travel'
S''
S''
tp2621
a(S'verify'
S'at'
S' easel'
tp2622
aa(lp2623
(S'verify'
S'front'
S' butterfly wall'
tp2624
aa(lp2625
(S'travel'
S''
S''
tp2626
a(S'verify'
p2627
S'side'
S' concrete hallway'
tp2628
a(g2627
S'right'
p2629
S' butterfly wall'
p2630
tp2631
aa(lp2632
(g37
S''
S''
tp2633
aa(lp2634
(S'travel'
S'steps'
S' 1'
tp2635
aa(lp2636
(S'turn'
S'right'
S''
tp2637
aa(lp2638
(S'travel'
S''
S''
tp2639
a(S'verify'
p2640
S'front'
S' blue hallway'
tp2641
a(g2640
S'side'
S' flower hallway'
tp2642
aa(lp2643
(S'turn'
S''
S''
tp2644
a(S'verify'
S'front'
S' yellow hallway'
tp2645
aa(lp2646
(S'turn'
S''
S''
tp2647
a(S'verify'
p2648
S'front'
S' gravel hallway'
tp2649
a(g2648
S'back'
S' easel'
tp2650
aa(lp2651
(S'travel'
S''
S''
tp2652
a(S'verify'
S'at'
S' barstool'
tp2653
aa(lp2654
(S'travel'
S'steps'
S' 1'
tp2655
a(S'verify'
S'side'
S' yellow hallway'
tp2656
aa(lp2657
(S'travel'
S'steps'
S' 1'
tp2658
aa(lp2659
(S'travel'
S'steps'
S' 1'
tp2660
aa(lp2661
(S'turn'
S'right'
S''
tp2662
aa(lp2663
(S'travel'
S'steps'
S' 1'
tp2664
aa(lp2665
(S'verify'
p2666
S'front'
S' chair'
tp2667
a(g2666
S'front'
S' hatrack'
tp2668
a(S'travel'
S''
S''
tp2669
a(S'verify'
p2670
S'back'
S' chair'
tp2671
a(g2670
S'back'
S' hatrack'
tp2672
aa(lp2673
(S'verify'
S'side'
S' gravel hallway'
tp2674
aa(lp2675
(S'travel'
S'steps'
S' 1'
tp2676
aa(lp2677
(S'travel'
S''
S''
tp2678
a(S'verify'
S'side'
S' flower hallway'
tp2679
aa(lp2680
(S'verify'
S'at'
S' easel'
tp2681
aa(lp2682
(S'travel'
S''
S''
tp2683
a(S'verify'
S'right'
S' hallway'
tp2684
a(S'turn'
S'right'
S''
tp2685
aa(lp2686
(S'travel'
S''
S''
tp2687
aa(lp2688
(S'travel'
S'steps'
S' 2'
tp2689
aa(lp2690
(S'travel'
S''
S''
tp2691
aa(lp2692
(S'turn'
S'left'
S''
tp2693
aa(lp2694
(S'verify'
S'front'
S' blue hallway'
tp2695
a(S'travel'
S''
S''
tp2696
a(S'verify'
S'at'
S' hatrack'
tp2697
aa(lp2698
(S'turn'
S'right'
S''
tp2699
aa(lp2700
(S'travel'
S''
S''
tp2701
a(S'verify'
S'side'
S' blue hallway'
tp2702
aa(lp2703
(S'verify'
p2704
S'front'
S' blue hallway'
tp2705
a(g2704
S'front'
S' sofa'
tp2706
a(S'travel'
S''
S''
tp2707
a(S'verify'
p2708
S'back'
S' sofa'
tp2709
a(g2708
S'at'
S' hatrack'
tp2710
aa(lp2711
(S'travel'
S''
S''
tp2712
a(S'verify'
S'front'
S' wall'
tp2713
aa(lp2714
(S'turn'
S'right'
S''
tp2715
aa(lp2716
(S'turn'
S''
S''
tp2717
a(S'verify'
p2718
S'front'
S' wood hallway'
tp2719
a(g2718
S'back'
S' hatrack'
tp2720
aa(lp2721
(S'turn'
S''
S''
tp2722
a(S'verify'
S'back'
S' chair'
tp2723
aa(lp2724
(S'travel'
S'steps'
S' 1'
tp2725
aa(lp2726
(S'travel'
S''
S''
tp2727
a(S'verify'
p2728
S'side'
S' concrete hallway'
tp2729
a(g2728
S'at'
S' 4-intersection'
tp2730
aa(lp2731
(S'turn'
S'left'
S''
tp2732
a(S'verify'
S'front'
S' yellow hallway'
tp2733
aa(lp2734
(S'travel'
S'steps'
S' 1'
tp2735
aa(lp2736
(S'verify'
p2737
S'front'
S' brick hallway'
tp2738
a(g2737
S'front'
S' lamp'
tp2739
a(S'travel'
S''
S''
tp2740
a(S'verify'
S'back'
S' lamp'
tp2741
aa(lp2742
(S'travel'
S'steps'
S' 5'
tp2743
aa(lp2744
(g37
S''
S''
tp2745
aa(lp2746
(g37
S''
S''
tp2747
aa(lp2748
(S'turn'
S'left'
S''
tp2749
aa(lp2750
(S'turn'
S''
S''
tp2751
a(S'verify'
p2752
S'front'
S' brick hallway'
tp2753
a(g2752
S'back'
S' sofa'
tp2754
aa(lp2755
(S'turn'
S'left'
S''
tp2756
a(S'verify'
S'front'
S' wood hallway'
tp2757
aa(lp2758
(S'turn'
S'right'
S''
tp2759
a(S'verify'
S'front'
S' blue hallway'
tp2760
aa(lp2761
(S'travel'
S''
S''
tp2762
a(S'verify'
S'at'
S' lamp'
tp2763
a(S'travel'
S'steps'
S' 1'
tp2764
a(S'turn'
S'right'
S''
tp2765
a(S'verify'
S'front'
S' concrete hallway'
tp2766
aa(lp2767
(S'travel'
S''
S''
tp2768
a(S'verify'
S'front'
S' wall'
tp2769
aa(lp2770
(S'travel'
S'steps'
S' 1'
tp2771
aa(lp2772
(S'travel'
S''
S''
tp2773
a(S'verify'
S'at'
S' barstool'
tp2774
aa(lp2775
(S'turn'
S'left'
S''
tp2776
aa(lp2777
(S'travel'
S''
S''
tp2778
a(S'verify'
p2779
S'front'
S' brick hallway'
tp2780
a(g2779
S'side'
S' wood hallway'
tp2781
a(S'turn'
S'left'
S''
tp2782
a(S'verify'
S'front'
S' wood hallway'
tp2783
aa(lp2784
(S'travel'
S'steps'
S' 1'
tp2785
aa(lp2786
(S'turn'
S''
S''
tp2787
a(S'verify'
p2788
S'front'
S' wood hallway'
tp2789
a(g2788
S'back'
S' hatrack'
tp2790
aa(lp2791
(S'turn'
S'left'
S''
tp2792
a(S'verify'
S'front'
S' brick hallway'
tp2793
a(S'travel'
S'steps'
S' 4'
tp2794
aa(lp2795
(S'travel'
S''
S''
tp2796
a(S'verify'
p2797
S'front'
S' brick hallway'
tp2798
a(g2797
S'back'
S' brick hallway'
tp2799
aa(lp2800
(S'turn'
S''
S''
tp2801
a(S'verify'
S'front'
S' barstool'
tp2802
aa(lp2803
(S'travel'
S'steps'
S' 1'
tp2804
aa(lp2805
(S'verify'
p2806
S'front'
S' brick hallway'
tp2807
a(g2806
S'left'
S' concrete hallway'
tp2808
aa(lp2809
(S'travel'
S''
S''
tp2810
a(S'verify'
S'at'
S' lamp'
tp2811
a(S'travel'
S'steps'
S' 2'
tp2812
aa(lp2813
(S'turn'
S''
S''
tp2814
a(S'verify'
p2815
S'left'
S' wall'
tp2816
a(g2815
S'right'
S' wall'
tp2817
a(g2815
S'back'
S' wall'
tp2818
aa(lp2819
(S'verify'
S'at'
S' sofa'
tp2820
aa(lp2821
(S'turn'
S'left'
S''
tp2822
aa(lp2823
(S'turn'
S''
S''
tp2824
a(S'verify'
S'left'
S' wall'
tp2825
aa(lp2826
(S'travel'
S''
S''
tp2827
a(S'verify'
S'at'
S' barstool'
tp2828
a(S'turn'
S'right'
S''
tp2829
aa(lp2830
(S'verify'
S'front'
S' flower hallway'
tp2831
a(S'travel'
S'steps'
S' 3'
tp2832
aa(lp2833
(S'turn'
S'left'
S''
tp2834
aa(lp2835
(S'travel'
S''
S''
tp2836
a(S'verify'
p2837
S'front'
S' wall'
tp2838
a(g2837
S'left'
S' wall'
tp2839
a(g2837
S'back'
S' yellow hallway'
tp2840
aa(lp2841
(S'turn'
S''
S''
tp2842
a(S'verify'
S'front'
S' lamp'
tp2843
aa(lp2844
(S'verify'
S'at'
S' hatrack'
tp2845
aa(lp2846
(S'turn'
S''
S''
tp2847
a(S'verify'
S'back'
S' easel'
tp2848
a(S'travel'
S''
S''
tp2849
a(S'verify'
p2850
S'front'
S' wall'
tp2851
a(g2850
S'right'
S' wall'
tp2852
a(S'turn'
S'left'
S''
tp2853
aa(lp2854
(S'verify'
p2855
S'front'
S' chair'
tp2856
a(g2855
S'front'
S' wood hallway'
tp2857
aa(lp2858
(S'travel'
S'steps'
S' 2'
tp2859
a(S'verify'
S'side'
S' blue hallway'
tp2860
aa(lp2861
(S'travel'
S'steps'
S' 1'
tp2862
aa(lp2863
(S'verify'
S'front'
S' gravel hallway'
p2864
tp2865
a(S'travel'
S''
S''
tp2866
a(S'verify'
S'at'
S' barstool'
tp2867
aa(lp2868
(S'verify'
p2869
S'right'
S' chair'
tp2870
a(g2869
S'front'
S' sofa'
tp2871
aa(lp2872
(S'verify'
S'side'
S' yellow hallway'
tp2873
aa(lp2874
(S'verify'
p2875
S'right'
S' tower wall'
tp2876
a(g2875
S'left'
S' butterfly wall'
tp2877
aa(lp2878
(S'turn'
S'right'
S''
tp2879
a(S'travel'
S'steps'
S' 2'
tp2880
aa(lp2881
(S'travel'
S''
S''
tp2882
a(S'verify'
S'front'
S' wall'
tp2883
a(S'turn'
S'right'
S''
tp2884
a(S'verify'
S'front'
S' blue hallway'
tp2885
aa(lp2886
(S'travel'
S'steps'
S' 2'
tp2887
aa(lp2888
(S'travel'
S''
S''
tp2889
a(S'verify'
S'side'
S' grass hallway'
tp2890
aa(lp2891
(S'turn'
S'left'
S''
tp2892
aa(lp2893
(S'turn'
S''
S''
tp2894
a(S'verify'
S'front'
S' concrete hallway'
tp2895
aa(lp2896
(S'verify'
S'front'
S' wall'
tp2897
a(S'turn'
S'left'
S''
tp2898
aa(lp2899
(S'verify'
p2900
S'front'
S' gravel hallway'
tp2901
a(g2900
S'back'
S' gravel hallway'
tp2902
aa(lp2903
(S'travel'
S'steps'
S' 1'
tp2904
a(S'verify'
S'side'
S' flower hallway'
tp2905
aa(lp2906
(S'turn'
S'left'
S''
tp2907
aa(lp2908
(S'travel'
S''
S''
tp2909
a(S'verify'
S'side'
S' blue hallway'
tp2910
aa(lp2911
(S'turn'
S'right'
S''
tp2912
a(S'verify'
S'front'
S' wood hallway'
tp2913
aa(lp2914
(S'turn'
S'left'
S''
tp2915
aa(lp2916
(S'turn'
S'left'
S''
tp2917
a(S'verify'
S'front'
S' yellow hallway'
tp2918
a(S'travel'
S''
S''
tp2919
a(S'verify'
S'front'
S' wall'
tp2920
aa(lp2921
(S'travel'
S'steps'
S' 1'
tp2922
aa(lp2923
(S'verify'
S'front'
S' gravel hallway'
tp2924
aa(lp2925
(S'turn'
S''
S''
tp2926
a(S'verify'
S'back'
S' wall'
tp2927
a(S'turn'
S'left'
S''
tp2928
aa(lp2929
(S'turn'
S''
S''
tp2930
a(S'verify'
S'front'
S' chair'
tp2931
aa(lp2932
(S'turn'
S''
S''
tp2933
a(S'verify'
p2934
S'back'
S' wall'
tp2935
a(g2934
S'at'
S' 3-intersection'
tp2936
aa(lp2937
(S'travel'
S''
S''
tp2938
a(S'verify'
S'at'
S' sofa'
tp2939
aa(lp2940
(S'travel'
S'steps'
S' 1'
tp2941
aa(lp2942
(S'verify'
S'at'
S' hatrack'
tp2943
aa(lp2944
(S'turn'
S'right'
S''
tp2945
aa(lp2946
(S'travel'
S'steps'
S' 1'
tp2947
aa(lp2948
(S'travel'
S''
S''
tp2949
a(S'verify'
S'at'
S' lamp'
tp2950
a(S'turn'
S'right'
S''
tp2951
aa(lp2952
(S'travel'
S''
S''
tp2953
aa(lp2954
(S'verify'
S'front'
S' grass hallway'
tp2955
a(S'travel'
S''
S''
tp2956
a(S'verify'
S'front'
S' wall'
tp2957
aa(lp2958
(S'turn'
S''
S''
tp2959
a(S'verify'
S'front'
S' brick hallway'
tp2960
aa(lp2961
(S'turn'
S''
S''
tp2962
a(S'verify'
S'back'
S' wall'
tp2963
aa(lp2964
(S'turn'
S'left'
S''
tp2965
a(S'travel'
S''
S''
tp2966
a(S'verify'
S'at'
S' sofa'
tp2967
aa(lp2968
(S'verify'
S'front'
S' yellow hallway'
tp2969
a(S'travel'
S'steps'
S' 2'
tp2970
aa(lp2971
(S'verify'
S'front'
S' brick hallway'
tp2972
a(S'travel'
S''
S''
tp2973
a(S'verify'
S'side'
S' gravel hallway'
tp2974
aa(lp2975
(S'turn'
S''
S''
tp2976
a(S'verify'
p2977
S'front'
S' gravel hallway'
tp2978
a(g2977
S'front'
S' easel'
tp2979
a(g2977
S'front'
S' butterfly wall'
tp2980
aa(lp2981
(S'travel'
S'steps'
S' 1'
tp2982
a(S'verify'
S'side'
S' blue hallway'
tp2983
aa(lp2984
(S'turn'
S''
S''
tp2985
a(S'verify'
p2986
S'front'
S' blue hallway'
tp2987
a(g2986
S'back'
S' sofa'
tp2988
a(g2986
S'back'
S' hatrack'
tp2989
aa(lp2990
(S'travel'
S'steps'
S' 1'
tp2991
aa(lp2992
(S'turn'
S''
S''
tp2993
a(S'verify'
S'front'
S' hatrack'
tp2994
a(S'travel'
S''
S''
tp2995
a(S'verify'
S'at'
S' hatrack'
tp2996
a(S'turn'
S'right'
S''
tp2997
aa(lp2998
(S'travel'
S'steps'
S' 1'
tp2999
a(S'verify'
p3000
S'at'
S' 3-intersection'
tp3001
a(g3000
S'side'
S' concrete hallway'
tp3002
aa(lp3003
(S'verify'
p3004
S'front'
S' blue hallway'
tp3005
a(g3004
S'front'
S' chair'
tp3006
a(S'travel'
S''
S''
tp3007
a(S'verify'
p3008
S'back'
S' chair'
tp3009
a(g3008
S'front'
S' wall'
tp3010
aa(lp3011
(S'travel'
S'steps'
S' 1'
tp3012
aa(lp3013
(S'travel'
S''
S''
tp3014
a(S'verify'
S'side'
S' blue hallway'
tp3015
aa(lp3016
(S'turn'
S''
S''
tp3017
a(S'verify'
S'front'
S' blue hallway'
tp3018
a(S'travel'
S''
S''
tp3019
a(S'verify'
S'side'
S' grass hallway'
tp3020
aa(lp3021
(S'turn'
S'right'
S''
tp3022
aa(lp3023
(S'travel'
S'steps'
S' 1'
tp3024
aa(lp3025
(S'turn'
S'right'
S''
tp3026
aa(lp3027
(S'turn'
S''
S''
tp3028
a(S'verify'
S'front'
S' grass hallway'
tp3029
a(S'travel'
S'steps'
S' 1'
tp3030
a(S'verify'
S'side'
S' concrete hallway'
tp3031
aa(lp3032
(S'travel'
S''
S''
tp3033
a(S'verify'
p3034
S'front'
S' yellow hallway'
tp3035
a(g3034
S'side'
S' gravel hallway'
tp3036
aa(lp3037
(S'travel'
S''
S''
tp3038
a(S'verify'
S'at'
S' chair'
tp3039
a(S'turn'
S'left'
S''
tp3040
a(S'verify'
S'front'
S' blue hallway'
tp3041
aa(lp3042
(S'travel'
S''
S''
tp3043
a(S'verify'
S'front'
S' wall'
tp3044
aa(lp3045
(S'travel'
S''
S''
tp3046
a(S'verify'
S'front'
S' wall'
tp3047
a(S'turn'
S'right'
S''
tp3048
aa(lp3049
(S'travel'
S''
S''
tp3050
a(S'verify'
S'side'
S' gravel hallway'
tp3051
aa(lp3052
(S'turn'
S'right'
S''
tp3053
a(S'verify'
S'front'
S' flower hallway'
tp3054
a(S'travel'
S''
S''
tp3055
a(S'verify'
S'at'
S' easel'
tp3056
aa(lp3057
(S'turn'
S''
S''
tp3058
a(S'travel'
S'steps'
S' 1'
tp3059
aa(lp3060
(S'turn'
S'left'
S''
tp3061
aa(lp3062
(S'travel'
S''
S''
tp3063
a(S'verify'
S'front'
S' butterfly wall'
tp3064
aa(lp3065
(S'verify'
S'at'
S' hatrack'
tp3066
a(S'turn'
S'right'
S''
tp3067
aa(lp3068
(S'travel'
S''
S''
tp3069
a(S'verify'
S'at'
S' hatrack'
tp3070
aa(lp3071
(S'turn'
S'left'
S''
tp3072
aa(lp3073
(S'turn'
S''
S''
tp3074
a(S'turn'
S'left'
S''
tp3075
aa(lp3076
(S'verify'
S'front'
S' brick hallway'
tp3077
a(S'travel'
S'steps'
S' 5'
tp3078
a(S'verify'
S'side'
S' gravel hallway'
tp3079
aa(lp3080
(S'travel'
S''
S''
tp3081
a(S'verify'
S'at'
S' chair'
tp3082
a(S'turn'
S'right'
S''
tp3083
a(S'verify'
S'front'
S' brick hallway'
tp3084
a(S'travel'
S'steps'
S' 1'
tp3085
aa(lp3086
(S'turn'
S''
S''
tp3087
a(S'verify'
S'back'
S' wall'
tp3088
a(S'turn'
S'left'
S''
tp3089
aa(lp3090
(S'verify'
S'front'
S' tower wall'
tp3091
a(S'travel'
S''
S''
tp3092
a(S'verify'
S'side'
S' flower hallway'
tp3093
a(S'turn'
S'right'
S''
tp3094
aa(lp3095
(S'verify'
S'front'
S' yellow hallway'
tp3096
aa(lp3097
(S'travel'
S''
S''
tp3098
a(S'verify'
S'at'
S' easel'
tp3099
a(S'turn'
S'right'
S''
tp3100
a(S'verify'
S'front'
S' wood hallway'
tp3101
aa(lp3102
(S'turn'
S'right'
S''
tp3103
aa(lp3104
(S'verify'
S'left'
S' easel'
tp3105
aa(lp3106
(S'turn'
S'right'
S''
tp3107
aa(lp3108
(S'turn'
S''
S''
tp3109
a(S'verify'
S'front'
S' lamp'
tp3110
a(S'travel'
S''
S''
tp3111
a(S'verify'
S'at'
S' lamp'
tp3112
aa(lp3113
(S'turn'
S''
S''
tp3114
a(S'verify'
S'back'
S' wall'
tp3115
aa(lp3116
(S'travel'
S''
S''
tp3117
a(S'verify'
p3118
S'front'
S' wall'
tp3119
a(g3118
S'left'
S' wall'
tp3120
aa(lp3121
(S'travel'
S'steps'
S' 1'
tp3122
aa(lp3123
(S'verify'
S'right'
S' blue hallway'
tp3124
aa(lp3125
(S'turn'
S'left'
S''
tp3126
a(S'travel'
S'steps'
S' 1'
tp3127
aa(lp3128
(S'travel'
S''
S''
tp3129
a(S'verify'
S'side'
S' brick hallway'
tp3130
aa(lp3131
(S'travel'
S'steps'
S' 2'
tp3132
aa(lp3133
(S'travel'
S'steps'
S' 1'
tp3134
aa(lp3135
(S'travel'
S'steps'
S' 1'
tp3136
aa(lp3137
(S'turn'
S''
S''
tp3138
a(S'verify'
S'front'
S' gravel hallway'
tp3139
a(S'travel'
S''
S''
tp3140
a(S'verify'
S'side'
S' brick hallway'
tp3141
aa(lp3142
(S'turn'
S''
S''
tp3143
a(S'verify'
S'front'
S' grass hallway'
tp3144
aa(lp3145
(S'travel'
S''
S''
tp3146
a(S'verify'
S'front'
S' wall'
tp3147
aa(lp3148
(S'travel'
S'steps'
S' 1'
tp3149
a(S'turn'
S'right'
S''
tp3150
aa(lp3151
(S'turn'
S'left'
S''
tp3152
aa(lp3153
(S'turn'
S''
S''
tp3154
a(S'verify'
p3155
S'front'
S' gravel hallway'
tp3156
a(g3155
S'back'
S' easel'
tp3157
aa(lp3158
(S'verify'
p3159
S'front'
S' hatrack'
tp3160
a(g3159
S'front'
S' lamp'
tp3161
a(S'travel'
S''
S''
tp3162
a(S'verify'
p3163
S'side'
S' wood hallway'
tp3164
a(g3163
S'back'
S' lamp'
tp3165
a(g3163
S'back'
S' hatrack'
tp3166
aa(lp3167
(S'travel'
S''
S''
tp3168
a(S'verify'
S'at'
S' easel'
tp3169
aa(lp3170
(S'turn'
S'left'
S''
tp3171
aa(lp3172
(S'turn'
S''
S''
tp3173
a(S'verify'
S'front'
S' brick hallway'
tp3174
aa(lp3175
(S'travel'
S''
S''
tp3176
a(S'verify'
S'front'
S' wall'
tp3177
aa(lp3178
(S'travel'
S'steps'
S' 1'
tp3179
aa(lp3180
(S'travel'
S'steps'
S' 1'
tp3181
aa(lp3182
(S'turn'
S''
S''
tp3183
a(S'verify'
p3184
S'front'
S' gravel hallway'
tp3185
a(g3184
S'back'
S' easel'
tp3186
aa(lp3187
(S'turn'
S'right'
S''
tp3188
aa(lp3189
(S'verify'
S'left'
S' grass hallway'
p3190
tp3191
aa(lp3192
(S'turn'
S'left'
S''
tp3193
aa(lp3194
(S'travel'
S'steps'
S' 1'
tp3195
aa(lp3196
(S'verify'
S'at'
S' easel'
tp3197
aa(lp3198
(S'verify'
S'left'
S' sofa'
tp3199
aa(lp3200
(S'travel'
S'steps'
S' 1'
tp3201
aa(lp3202
(S'turn'
S''
S''
tp3203
a(S'verify'
S'right'
S' chair'
tp3204
aa(lp3205
(S'turn'
S'right'
S''
tp3206
aa(lp3207
(S'verify'
S'front'
S' lamp'
tp3208
a(S'travel'
S'steps'
S' 4'
tp3209
a(S'verify'
p3210
S'back'
S' lamp'
tp3211
a(g3210
S'side'
S' wood hallway'
tp3212
aa(lp3213
(S'turn'
S'left'
S''
tp3214
aa(lp3215
(S'turn'
S'left'
S''
tp3216
a(S'travel'
S'steps'
S' 2'
tp3217
aa(lp3218
(S'turn'
S''
S''
tp3219
a(S'verify'
p3220
S'front'
S' gravel hallway'
tp3221
a(g3220
S'back'
S' easel'
tp3222
aa(lp3223
(S'verify'
S'front'
S' easel'
tp3224
a(S'travel'
S''
S''
tp3225
aa(lp3226
(S'turn'
S'right'
S''
tp3227
a(S'verify'
S'front'
S' blue hallway'
tp3228
aa(lp3229
(S'turn'
S''
S''
tp3230
a(S'verify'
S'back'
S' wall'
tp3231
a(S'turn'
S'right'
S''
tp3232
aa(lp3233
(S'turn'
S'left'
S''
tp3234
aa(lp3235
(S'turn'
S'right'
S''
tp3236
a(S'verify'
S'front'
S' brick hallway'
tp3237
aa(lp3238
(S'travel'
S'steps'
S' 1'
tp3239
aa(lp3240
(S'turn'
S''
S''
tp3241
a(S'verify'
S'right'
S' wall'
tp3242
aa(lp3243
(S'travel'
S'steps'
S' 1'
tp3244
a(S'turn'
S'right'
S''
tp3245
aa(lp3246
(S'verify'
S'front'
S' gravel hallway'
tp3247
a(S'travel'
S''
S''
tp3248
a(S'verify'
S'side'
S' brick hallway'
tp3249
aa(lp3250
(S'travel'
S''
S''
tp3251
a(S'verify'
S'left'
S' hallway'
tp3252
a(S'turn'
S'left'
S''
tp3253
aa(lp3254
(S'travel'
S'steps'
S' 2'
tp3255
a(S'verify'
S'side'
S' flower hallway'
tp3256
aa(lp3257
(S'turn'
S'left'
S''
tp3258
aa(lp3259
(S'travel'
S'steps'
S' 1'
tp3260
aa(lp3261
(S'travel'
S''
S''
tp3262
a(S'turn'
S''
S''
tp3263
a(S'travel'
S''
S''
tp3264
a(S'turn'
S''
S''
tp3265
a(S'travel'
S''
S''
tp3266
a(S'verify'
p3267
S'front'
S' wall'
tp3268
a(g3267
S'left'
S' wall'
tp3269
a(g3267
S'right'
S' wall'
tp3270
aa(lp3271
(S'travel'
S'steps'
S' 1'
tp3272
a(S'turn'
S'right'
S''
tp3273
a(S'travel'
S''
S''
tp3274
a(S'verify'
S'side'
S' brick hallway'
tp3275
aa(lp3276
(S'verify'
p3277
S'front'
S' butterfly wall'
tp3278
a(g3277
S'back'
S' butterfly wall'
tp3279
aa(lp3280
(S'turn'
S'left'
S''
tp3281
aa(lp3282
(S'verify'
S'front'
S' easel'
tp3283
a(S'travel'
S''
S''
tp3284
a(S'verify'
p3285
S'back'
S' easel'
tp3286
a(g3285
S'front'
S' wall'
tp3287
a(g3285
S'left'
S' wall'
tp3288
a(S'turn'
S'right'
S''
tp3289
a(S'verify'
S'front'
S' blue hallway'
tp3290
aa(lp3291
(S'turn'
S'left'
S''
tp3292
aa(lp3293
(S'turn'
S''
S''
tp3294
a(S'verify'
S'front'
S' yellow hallway'
tp3295
aa(lp3296
(S'turn'
S'right'
S''
tp3297
aa(lp3298
(S'travel'
S''
S''
tp3299
a(S'verify'
S'right'
S' hallway'
tp3300
a(S'turn'
S'right'
S''
tp3301
aa(lp3302
(S'travel'
S''
S''
tp3303
a(S'verify'
S'at'
S' lamp'
tp3304
a(S'travel'
S'steps'
S' 1'
tp3305
a(S'verify'
S'front'
S' butterfly wall'
tp3306
aa(lp3307
(S'travel'
S'steps'
S' 1'
tp3308
aa(lp3309
(S'travel'
S'steps'
S' 1'
tp3310
aa(lp3311
(S'travel'
S''
S''
tp3312
a(S'verify'
S'at'
S' easel'
tp3313
aa(lp3314
(S'travel'
S''
S''
tp3315
a(S'verify'
S'at'
S' easel'
tp3316
aa(lp3317
(S'verify'
p3318
S'front'
S' butterfly wall'
tp3319
a(g3318
S'back'
S' butterfly wall'
tp3320
aa(lp3321
(S'travel'
S''
S''
tp3322
a(S'verify'
S'side'
S' blue hallway'
tp3323
a(S'turn'
S'right'
S''
tp3324
a(S'verify'
S'front'
S' blue hallway'
tp3325
a(S'travel'
S''
S''
tp3326
a(S'verify'
S'front'
S' wall'
tp3327
aa(lp3328
(S'travel'
S''
S''
tp3329
a(S'verify'
p3330
S'front'
S' wall'
tp3331
a(g3330
S'left'
S' wall'
tp3332
aa(lp3333
(S'travel'
S''
S''
tp3334
a(S'verify'
S'side'
S' concrete hallway'
tp3335
aa(lp3336
(S'travel'
S''
S''
tp3337
a(S'verify'
S'at'
S' hatrack'
tp3338
aa(lp3339
(S'travel'
S'steps'
S' 1'
tp3340
aa(lp3341
(S'turn'
S'left'
S''
tp3342
a(S'verify'
S'front'
S' wood hallway'
tp3343
a(S'travel'
S''
S''
tp3344
a(S'verify'
S'at'
S' easel'
tp3345
aa(lp3346
(S'turn'
S''
S''
tp3347
a(S'verify'
S'front'
S' yellow hallway'
tp3348
aa(lp3349
(S'travel'
S'steps'
S' 2'
tp3350
aa(lp3351
(S'verify'
S'front'
S' chair'
tp3352
a(S'travel'
S''
S''
tp3353
a(S'verify'
p3354
S'back'
S' chair'
tp3355
a(g3354
S'side'
S' yellow hallway'
tp3356
aa(lp3357
(S'travel'
S'steps'
S' 1'
tp3358
aa(lp3359
(S'turn'
S'right'
S''
tp3360
a(S'verify'
S'front'
S' concrete hallway'
tp3361
aa(lp3362
(S'verify'
S'front'
S' blue hallway'
tp3363
a(S'travel'
S''
S''
tp3364
a(S'verify'
S'front'
S' wall'
tp3365
aa(lp3366
(S'travel'
S''
S''
tp3367
a(S'verify'
p3368
S'front'
S' hallway'
tp3369
a(g3368
S'back'
S' hallway'
tp3370
a(g3368
S'left'
S' hallway'
tp3371
aa(lp3372
(S'travel'
S'steps'
S' 1'
tp3373
a(S'turn'
S'right'
S''
tp3374
aa(lp3375
(S'turn'
S'left'
S''
tp3376
a(S'verify'
S'front'
S' grass hallway'
tp3377
a(S'travel'
S''
S''
tp3378
a(S'verify'
S'at'
S' chair'
tp3379
aa(lp3380
(S'turn'
S''
S''
tp3381
a(S'verify'
p3382
S'front'
S' gravel hallway'
tp3383
a(g3382
S'back'
S' sofa'
tp3384
a(S'travel'
S''
S''
tp3385
a(S'verify'
S'front'
S' wall'
tp3386
aa(lp3387
(S'turn'
S'right'
S''
tp3388
aa(lp3389
(S'turn'
S'left'
S''
tp3390
aa(lp3391
(S'turn'
S'left'
S''
tp3392
aa(lp3393
(S'turn'
S'left'
S''
tp3394
aa(lp3395
(S'travel'
S'steps'
S' 2'
tp3396
a(S'verify'
S'side'
S' brick hallway'
tp3397
aa(lp3398
(S'travel'
S'steps'
S' 1'
tp3399
a(S'verify'
p3400
S'front'
S' butterfly wall'
tp3401
a(g3400
S'back'
S' butterfly wall'
tp3402
aa(lp3403
(S'verify'
S'at'
S' easel'
tp3404
aa(lp3405
(S'travel'
S''
S''
tp3406
aa(lp3407
(S'travel'
S''
S''
tp3408
a(S'verify'
S'side'
S' concrete hallway'
tp3409
aa(lp3410
(S'turn'
S''
S''
tp3411
a(S'verify'
S'front'
S' grass hallway'
tp3412
a(S'travel'
S''
S''
tp3413
a(S'verify'
S'at'
S' hatrack'
tp3414
aa(lp3415
(S'travel'
S''
S''
tp3416
a(S'verify'
S'front'
S' lamp'
tp3417
aa(lp3418
(S'turn'
S''
S''
tp3419
a(S'verify'
p3420
S'back'
S' wall'
tp3421
a(g3420
S'left'
S' wall'
tp3422
a(g3420
S'right'
S' wall'
tp3423
aa(lp3424
(S'turn'
S'left'
S''
tp3425
aa(lp3426
(S'verify'
S'front'
S' chair'
tp3427
aa(lp3428
(S'travel'
S'steps'
S' 1'
tp3429
a(S'verify'
S'side'
S' concrete hallway'
tp3430
aa(lp3431
(S'turn'
S'left'
S''
tp3432
aa(lp3433
(S'travel'
S''
S''
tp3434
a(S'verify'
S'side'
S' blue hallway'
tp3435
aa(lp3436
(S'turn'
S'right'
S''
tp3437
aa(lp3438
(S'travel'
S'steps'
S' 1'
tp3439
a(S'turn'
S'right'
S''
tp3440
a(S'verify'
S'front'
S' concrete hallway'
tp3441
a(S'travel'
S''
S''
tp3442
a(S'verify'
S'front'
S' wall'
tp3443
aa(lp3444
(S'turn'
S''
S''
tp3445
a(S'verify'
p3446
S'back'
S' wall'
tp3447
a(g3446
S'front'
S' flower hallway'
tp3448
a(S'travel'
S'steps'
S' 1'
tp3449
aa(lp3450
(g37
S''
S''
tp3451
aa(lp3452
(S'travel'
S'steps'
S' 3'
tp3453
a(S'verify'
S'side'
S' flower hallway'
tp3454
aa(lp3455
(S'turn'
S'right'
S''
tp3456
aa(lp3457
(S'travel'
S'steps'
S' 1'
tp3458
aa(lp3459
(S'travel'
S''
S''
tp3460
a(S'verify'
p3461
S'front'
S' wall'
tp3462
a(g3461
S'left'
S' wall'
tp3463
a(S'turn'
S'right'
S''
tp3464
a(S'verify'
S'front'
S' easel'
tp3465
aa(lp3466
(S'turn'
S''
S''
tp3467
a(S'verify'
S'left'
S' wall'
tp3468
aa(lp3469
(S'verify'
S'right'
S' yellow hallway'
tp3470
aa(lp3471
(S'travel'
S'steps'
S' 1'
tp3472
aa(lp3473
(S'travel'
S''
S''
tp3474
a(S'verify'
S'side'
S' flower hallway'
tp3475
a(S'travel'
S''
S''
tp3476
aa(lp3477
(S'verify'
p3478
S'front'
S' wall'
tp3479
a(g3478
S'left'
S' wall'
tp3480
a(S'turn'
S'right'
S''
tp3481
a(S'verify'
S'front'
S' grass hallway'
tp3482
aa(lp3483
(S'verify'
S'at'
S' easel'
tp3484
a(S'travel'
S'steps'
S' 1'
tp3485
a(S'verify'
p3486
S'front'
S' butterfly wall'
tp3487
a(g3486
S'back'
S' butterfly wall'
tp3488
aa(lp3489
(S'travel'
S''
S''
tp3490
a(S'verify'
S'side'
S' flower hallway'
tp3491
aa(lp3492
(S'turn'
S''
S''
tp3493
a(S'verify'
S'back'
S' wall'
tp3494
a(S'turn'
S'right'
S''
tp3495
aa(lp3496
(S'turn'
S'left'
S''
tp3497
a(S'travel'
S'steps'
S' 1'
tp3498
aa(lp3499
(S'travel'
S''
S''
tp3500
a(S'verify'
S'front'
S' wall'
tp3501
a(S'turn'
S'left'
S''
tp3502
aa(lp3503
(S'travel'
S'steps'
S' 1'
tp3504
aa(lp3505
(S'turn'
S'left'
S''
tp3506
aa(lp3507
(S'travel'
S'steps'
S' 1'
tp3508
a(S'verify'
S'side'
S' blue hallway'
tp3509
aa(lp3510
(S'travel'
S''
S''
tp3511
a(S'verify'
S'at'
S' hatrack'
tp3512
a(S'turn'
S'left'
S''
tp3513
aa(lp3514
(S'travel'
S''
S''
tp3515
aa(lp3516
(S'verify'
S'front'
S' brick hallway'
tp3517
a(S'travel'
S''
S''
tp3518
a(S'verify'
S'side'
S' flower hallway'
tp3519
aa(lp3520
(S'verify'
S'front'
S' butterfly wall'
tp3521
aa(lp3522
(S'travel'
S''
S''
tp3523
a(S'verify'
p3524
S'front'
S' brick hallway'
tp3525
a(g3524
S'back'
S' brick hallway'
tp3526
aa(lp3527
(S'travel'
S'steps'
S' 1'
tp3528
aa(lp3529
(S'turn'
S''
S''
tp3530
a(S'verify'
S'back'
S' easel'
tp3531
a(S'travel'
S'steps'
S' 1'
tp3532
aa(lp3533
(S'travel'
S''
S''
tp3534
a(S'verify'
S'at'
S' lamp'
tp3535
a(S'travel'
S'steps'
S' 1'
tp3536
aa(lp3537
(S'verify'
S'right'
S' easel'
tp3538
aa(lp3539
(S'turn'
S'left'
S''
tp3540
aa(lp3541
(S'turn'
S'right'
S''
tp3542
a(S'travel'
S'steps'
S' 3'
tp3543
aa(lp3544
(S'travel'
S''
S''
tp3545
a(S'verify'
S'side'
S' brick hallway'
tp3546
a(S'turn'
S'left'
S''
tp3547
aa(lp3548
(S'verify'
p3549
S'front'
S' easel'
tp3550
a(g3549
S'left'
S' yellow hallway'
tp3551
a(g3549
S'right'
S' yellow hallway'
tp3552
aa(lp3553
(g37
S''
S''
tp3554
aa(lp3555
(S'turn'
S''
S''
tp3556
a(S'verify'
S'front'
S' easel'
tp3557
aa(lp3558
(S'turn'
S''
S''
tp3559
a(S'verify'
p3560
S'back'
S' wall'
tp3561
a(g3560
S'at'
S' 3-intersection'
tp3562
aa(lp3563
(S'travel'
S''
S''
tp3564
a(S'verify'
S'at'
S' hatrack'
tp3565
aa(lp3566
(S'travel'
S''
S''
tp3567
a(S'verify'
p3568
S'front'
S' wall'
tp3569
a(g3568
S'left'
S' wall'
tp3570
a(g3568
S'back'
S' lamp'
tp3571
a(g3568
S'right'
S' concrete hallway'
tp3572
aa(lp3573
(S'verify'
S'front'
S' wood hallway'
tp3574
a(S'travel'
S''
S''
tp3575
a(S'turn'
S'left'
S''
tp3576
aa(lp3577
(S'turn'
S'right'
S''
tp3578
a(S'verify'
S'front'
S' blue hallway'
tp3579
aa(lp3580
(S'turn'
S'right'
S''
tp3581
aa(lp3582
(g37
S''
S''
tp3583
aa(lp3584
(S'travel'
S'steps'
S' 1'
tp3585
aa(lp3586
(S'verify'
S'at'
S' sofa'
tp3587
aa(lp3588
(S'travel'
S''
S''
tp3589
a(S'verify'
p3590
S'left'
S' wall'
tp3591
a(g3590
S'front'
S' wall'
tp3592
aa(lp3593
(S'travel'
S'steps'
S' 1'
tp3594
aa(lp3595
(S'verify'
S'front'
S' gravel hallway'
tp3596
a(S'travel'
S''
S''
tp3597
aa(lp3598
(S'travel'
S'steps'
S' 1'
tp3599
aa(lp3600
(S'travel'
S''
S''
tp3601
a(S'verify'
S'side'
S' flower hallway'
p3602
tp3603
a(S'turn'
S'left'
S''
tp3604
a(S'verify'
S'front'
S' flower hallway'
tp3605
aa(lp3606
(g37
S''
S''
tp3607
aa(lp3608
(S'travel'
S''
S''
tp3609
a(S'verify'
S'front'
S' wall'
tp3610
a(S'turn'
S'left'
S''
tp3611
a(S'verify'
S'front'
S' easel'
tp3612
aa(lp3613
(S'turn'
S''
S''
tp3614
a(S'verify'
S'front'
S' easel'
tp3615
aa(lp3616
(S'travel'
S''
S''
tp3617
a(S'verify'
S'front'
S' wall'
tp3618
a(S'turn'
S'left'
S''
tp3619
a(S'verify'
S'front'
S' lamp'
tp3620
a(S'travel'
S''
S''
tp3621
a(S'verify'
S'at'
S' lamp'
tp3622
a(S'turn'
S'right'
S''
tp3623
aa(lp3624
(S'travel'
S''
S''
tp3625
a(S'verify'
p3626
S'front'
S' wall'
tp3627
a(g3626
S'left'
S' wall'
tp3628
a(g3626
S'right'
S' wall'
tp3629
a(g3626
S'back'
S' yellow hallway'
tp3630
a(g3626
S'back'
S' fish wall'
tp3631
aa(lp3632
(S'travel'
S''
S''
tp3633
a(S'verify'
S'side'
S' brick hallway'
tp3634
a(S'turn'
S'right'
S''
tp3635
aa(lp3636
(S'travel'
S''
S''
tp3637
a(S'verify'
p3638
S'front'
S' tower wall'
tp3639
a(g3638
S'right'
S' butterfly wall'
p3640
tp3641
aa(lp3642
(S'travel'
S''
S''
tp3643
aa(lp3644
(S'turn'
S''
S''
tp3645
a(S'verify'
S'front'
S' yellow hallway'
tp3646
aa(lp3647
(S'turn'
S''
S''
tp3648
a(S'verify'
S'front'
S' chair'
tp3649
a(S'travel'
S''
S''
tp3650
aa(lp3651
(S'verify'
S'at'
S' hatrack'
tp3652
aa(lp3653
(S'turn'
S''
S''
tp3654
a(S'verify'
p3655
S'back'
S' wall'
tp3656
a(g3655
S'at'
S' 3-intersection'
tp3657
aa(lp3658
(g37
S''
S''
tp3659
aa(lp3660
(S'verify'
S'side'
S' grass hallway'
tp3661
a(S'turn'
S'right'
S''
tp3662
a(S'travel'
S''
S''
tp3663
a(S'verify'
S'front'
S' wall'
tp3664
aa(lp3665
(S'verify'
S'front'
S' sofa'
tp3666
a(S'travel'
S'steps'
S' 2'
tp3667
a(S'verify'
S'back'
S' sofa'
tp3668
aa(lp3669
(S'travel'
S'steps'
S' 2'
tp3670
aa(lp3671
(S'travel'
S'steps'
S' 1'
tp3672
a(S'verify'
S'side'
S' flower hallway'
tp3673
aa(lp3674
(S'travel'
S''
S''
tp3675
a(S'verify'
S'at'
S' sofa'
tp3676
aa(lp3677
(S'turn'
S'right'
S''
tp3678
aa(lp3679
(S'turn'
S''
S''
tp3680
a(S'verify'
p3681
S'left'
S' wall'
tp3682
a(g3681
S'right'
S' wall'
tp3683
a(g3681
S'back'
S' wall'
tp3684
aa(lp3685
(S'travel'
S''
S''
tp3686
a(S'verify'
S'front'
S' fish wall'
tp3687
aa(lp3688
(S'turn'
S''
S''
tp3689
a(S'verify'
S'front'
S' hatrack'
tp3690
a(S'travel'
S''
S''
tp3691
a(S'verify'
S'at'
S' hatrack'
tp3692
aa(lp3693
(S'travel'
S'steps'
S' 1'
tp3694
a(S'verify'
S'side'
S' blue hallway'
tp3695
aa(lp3696
(S'turn'
S'left'
S''
tp3697
aa(lp3698
(S'turn'
S''
S''
tp3699
a(S'verify'
S'front'
S' grass hallway'
tp3700
aa(lp3701
(S'turn'
S''
S''
tp3702
aa(lp3703
(S'travel'
S'steps'
S' 2'
tp3704
a(S'verify'
S'side'
S' gravel hallway'
tp3705
aa(lp3706
(S'turn'
S'right'
S''
tp3707
aa(lp3708
(S'turn'
S'left'
S''
tp3709
aa(lp3710
(S'verify'
S'side'
S' gravel hallway'
tp3711
a(S'turn'
S'right'
S''
tp3712
aa(lp3713
(S'travel'
S'steps'
S' 3'
tp3714
aa(lp3715
(S'travel'
S''
S''
tp3716
a(S'verify'
S'at'
S' lamp'
tp3717
a(S'turn'
S'right'
S''
tp3718
a(S'travel'
S''
S''
tp3719
a(S'verify'
p3720
S'front'
S' wall'
tp3721
a(g3720
S'right'
S' wall'
tp3722
aa(lp3723
(S'travel'
S''
S''
tp3724
a(S'verify'
S'at'
S' chair'
tp3725
a(S'turn'
S'right'
S''
tp3726
aa(lp3727
(S'turn'
S'right'
S''
tp3728
a(S'verify'
S'front'
S' flower hallway'
tp3729
a(S'travel'
S'steps'
S' 1'
tp3730
a(S'turn'
S'right'
S''
tp3731
a(S'travel'
S''
S''
tp3732
a(S'verify'
S'front'
S' wall'
tp3733
aa(lp3734
(S'travel'
S''
S''
tp3735
a(S'verify'
S'at'
S' sofa'
tp3736
a(S'turn'
S'right'
S''
tp3737
aa(lp3738
(S'turn'
S'left'
S''
tp3739
a(S'verify'
S'front'
S' yellow hallway'
tp3740
aa(lp3741
(S'travel'
S'steps'
S' 1'
tp3742
a(S'verify'
S'at'
S' easel'
tp3743
aa(lp3744
(S'travel'
S'steps'
S' 1'
tp3745
aa(lp3746
(S'travel'
S''
S''
tp3747
a(S'verify'
S'left'
S' easel'
tp3748
aa(lp3749
(S'turn'
S'left'
S''
tp3750
a(S'verify'
S'front'
S' brick hallway'
tp3751
a(S'travel'
S''
S''
tp3752
a(S'verify'
S'front'
S' butterfly wall'
tp3753
aa(lp3754
(S'turn'
S'left'
S''
tp3755
aa(lp3756
(S'turn'
S''
S''
tp3757
a(S'verify'
S'front'
S' grass hallway'
tp3758
a(S'travel'
S''
S''
tp3759
a(S'verify'
S'side'
S' brick hallway'
tp3760
aa(lp3761
(S'travel'
S''
S''
tp3762
a(S'verify'
S'front'
S' wall'
tp3763
aa(lp3764
(S'travel'
S'steps'
S' 2'
tp3765
aa(lp3766
(S'turn'
S'left'
S''
tp3767
a(S'verify'
S'front'
S' blue hallway'
tp3768
a(S'travel'
S''
S''
tp3769
a(S'verify'
S'at'
S' hatrack'
tp3770
a(S'turn'
S'left'
S''
tp3771
aa(lp3772
(S'verify'
S'front'
S' easel'
tp3773
aa(lp3774
(S'turn'
S'left'
S''
tp3775
aa(lp3776
(S'turn'
S'right'
S''
tp3777
aa(lp3778
(S'travel'
S''
S''
tp3779
a(S'verify'
p3780
S'front'
S' wall'
tp3781
a(g3780
S'left'
S' wall'
tp3782
a(g3780
S'right'
S' wall'
tp3783
aa(lp3784
(S'travel'
S''
S''
tp3785
a(S'verify'
S'side'
S' concrete hallway'
tp3786
a(S'turn'
S'right'
S''
tp3787
a(S'verify'
S'front'
S' barstool'
tp3788
aa(lp3789
(S'travel'
S'steps'
S' 1'
tp3790
a(S'turn'
S'right'
S''
tp3791
aa(lp3792
(S'verify'
p3793
S'front'
S' hatrack'
tp3794
a(g3793
S'left'
S' concrete hallway'
tp3795
aa(lp3796
(S'travel'
S'steps'
S' 1'
tp3797
aa(lp3798
(S'turn'
S'left'
S''
tp3799
aa(lp3800
(S'turn'
S''
S''
tp3801
a(S'travel'
S''
S''
tp3802
a(S'verify'
S'front'
S' wall'
tp3803
a(S'turn'
S'left'
S''
tp3804
a(S'travel'
S''
S''
tp3805
a(S'verify'
S'at'
S' sofa'
tp3806
aa(lp3807
(S'verify'
S'front'
S' brick hallway'
tp3808
aa(lp3809
(S'turn'
S'right'
S''
tp3810
aa(lp3811
(S'turn'
S''
S''
tp3812
a(S'verify'
S'back'
S' wall'
tp3813
aa(lp3814
(S'turn'
S''
S''
tp3815
a(S'verify'
S'front'
S' brick hallway'
tp3816
aa(lp3817
(S'verify'
S'front'
S' gravel hallway'
tp3818
a(S'travel'
S'steps'
S' 2'
tp3819
a(S'verify'
S'side'
S' brick hallway'
tp3820
aa(lp3821
(S'travel'
S''
S''
tp3822
a(S'verify'
S'front'
S' wall'
tp3823
aa(lp3824
(S'verify'
S'at'
S' sofa'
tp3825
aa(lp3826
(S'travel'
S''
S''
tp3827
a(S'verify'
S'side'
S' brick hallway'
tp3828
aa(lp3829
(S'verify'
S'front'
S' wall'
tp3830
aa(lp3831
(S'verify'
S'front'
S' sofa'
tp3832
aa(lp3833
(S'turn'
S'right'
S''
tp3834
a(S'verify'
S'front'
S' gravel hallway'
tp3835
a(S'travel'
S'steps'
S' 2'
tp3836
aa(lp3837
(g37
S''
S''
tp3838
aa(lp3839
(S'travel'
S'steps'
S' 1'
tp3840
a(S'verify'
S'side'
S' blue hallway'
tp3841
aa(lp3842
(S'turn'
S'left'
S''
tp3843
aa(lp3844
(S'travel'
S''
S''
tp3845
a(S'verify'
S'at'
S' easel'
tp3846
a(S'turn'
S'left'
S''
tp3847
a(S'travel'
S''
S''
tp3848
a(S'verify'
p3849
S'front'
S' wall'
tp3850
a(g3849
S'left'
S' wall'
tp3851
a(g3849
S'side'
S' blue hallway'
tp3852
aa(lp3853
(g37
S''
S''
tp3854
aa(lp3855
(S'verify'
S'at'
S' chair'
tp3856
aa(lp3857
(S'travel'
S'steps'
S' 1'
tp3858
aa(lp3859
(S'travel'
S''
S''
tp3860
a(S'verify'
S'left'
S' fish wall'
p3861
tp3862
aa(lp3863
(S'travel'
S'steps'
S' 1'
tp3864
aa(lp3865
(S'verify'
S'front'
S' chair'
tp3866
a(S'travel'
S'steps'
S' 2'
tp3867
a(S'verify'
S'back'
S' chair'
tp3868
aa(lp3869
(S'verify'
p3870
S'front'
S' chair'
tp3871
a(g3870
S'front'
S' hatrack'
tp3872
aa(lp3873
(S'verify'
S'front'
S' chair'
p3874
tp3875
a(S'travel'
S'steps'
S' 2'
p3876
tp3877
a(S'verify'
p3878
S'back'
S' chair'
p3879
tp3880
a(g3878
S'at'
S' barstool'
p3881
tp3882
aa(lp3883
(S'turn'
S'left'
S''
tp3884
aa(lp3885
(S'turn'
S'right'
S''
tp3886
aa(lp3887
(S'travel'
S''
S''
tp3888
a(S'turn'
S'left'
S''
tp3889
a(S'travel'
S''
S''
tp3890
a(S'verify'
S'front'
S' wall'
tp3891
aa(lp3892
(S'turn'
S''
S''
tp3893
a(S'verify'
S'front'
S' sofa'
p3894
tp3895
a(S'travel'
S''
S''
tp3896
a(S'verify'
S'at'
S' sofa'
tp3897
aa(lp3898
(S'turn'
S''
S''
tp3899
a(S'verify'
S'right'
S' wall'
tp3900
aa(lp3901
(S'travel'
S''
S''
tp3902
a(S'verify'
S'front'
S' wall'
tp3903
a(S'turn'
S'right'
S''
tp3904
aa(lp3905
(S'travel'
S''
S''
tp3906
a(S'verify'
S'at'
S' chair'
tp3907
aa(lp3908
(S'turn'
S''
S''
tp3909
a(S'verify'
S'front'
S' grass hallway'
tp3910
a(S'travel'
S''
S''
tp3911
a(S'verify'
S'side'
S' yellow hallway'
tp3912
aa(lp3913
(S'verify'
p3914
S'front'
S' hatrack'
tp3915
a(g3914
S'left'
S' concrete hallway'
tp3916
aa(lp3917
(S'turn'
S'right'
S''
tp3918
aa(lp3919
(S'turn'
S''
S''
tp3920
a(S'verify'
S'front'
S' chair'
tp3921
aa(lp3922
(S'travel'
S'steps'
S' 1'
tp3923
aa(lp3924
(S'verify'
S'front'
S' yellow hallway'
tp3925
a(S'travel'
S'steps'
S' 2'
tp3926
aa(lp3927
(S'travel'
S''
S''
tp3928
a(S'verify'
S'at'
S' hatrack'
tp3929
a(S'turn'
S'right'
S''
tp3930
a(S'verify'
S'front'
S' blue hallway'
tp3931
aa(lp3932
(S'turn'
S'left'
S''
tp3933
a(S'travel'
S'steps'
S' 1'
tp3934
aa(lp3935
(S'travel'
S'steps'
S' 2'
tp3936
aa(lp3937
(S'turn'
S''
S''
tp3938
a(S'verify'
S'back'
S' wall'
tp3939
aa(lp3940
(S'travel'
S'steps'
S' 2'
tp3941
a(S'verify'
S'side'
S' yellow hallway'
tp3942
aa(lp3943
(S'travel'
S''
S''
tp3944
aa(lp3945
(S'turn'
S'right'
S''
tp3946
aa(lp3947
(S'travel'
S''
S''
tp3948
a(S'verify'
p3949
S'front'
S' wall'
tp3950
a(g3949
S'right'
S' wall'
tp3951
a(S'turn'
S'left'
S''
tp3952
aa(lp3953
(S'travel'
S''
S''
tp3954
a(S'verify'
p3955
S'front'
S' wall'
tp3956
a(g3955
S'left'
S' wall'
tp3957
aa(lp3958
(S'turn'
S''
S''
tp3959
a(S'verify'
S'front'
S' lamp'
tp3960
aa(lp3961
(S'turn'
S'left'
S''
tp3962
aa(lp3963
(S'travel'
S'steps'
S' 1'
tp3964
aa(lp3965
(S'verify'
S'front'
S' flower hallway'
tp3966
a(S'travel'
S''
S''
tp3967
a(S'turn'
S''
S''
tp3968
a(S'travel'
S''
S''
tp3969
a(S'verify'
p3970
S'front'
S' wall'
tp3971
a(g3970
S'left'
S' wall'
tp3972
a(g3970
S'right'
S' wall'
tp3973
aa(lp3974
(S'verify'
S'front'
S' grass hallway'
tp3975
a(S'travel'
S''
S''
tp3976
a(S'verify'
S'front'
S' wall'
tp3977
a(S'turn'
S'right'
S''
tp3978
aa(lp3979
(S'travel'
S'steps'
S' 2'
tp3980
a(S'verify'
S'at'
S' sofa'
tp3981
aa(lp3982
(S'turn'
S''
S''
tp3983
a(S'verify'
S'front'
S' grass hallway'
tp3984
a(S'travel'
S''
S''
tp3985
a(S'verify'
S'side'
S' brick hallway'
tp3986
aa(lp3987
(S'travel'
S''
S''
tp3988
a(S'verify'
S'left'
S' hallway'
tp3989
aa(lp3990
(S'turn'
S''
S''
tp3991
a(S'verify'
S'front'
S' blue hallway'
tp3992
a(S'travel'
S''
S''
tp3993
a(S'verify'
S'side'
S' grass hallway'
tp3994
aa(lp3995
(S'travel'
S''
S''
tp3996
a(S'verify'
S'side'
S' blue hallway'
tp3997
aa(lp3998
(S'turn'
S'left'
S''
tp3999
aa(lp4000
(S'turn'
S'right'
S''
tp4001
aa(lp4002
(S'travel'
S''
S''
tp4003
a(S'verify'
S'side'
S' blue hallway'
tp4004
aa(lp4005
(S'travel'
S''
S''
tp4006
a(S'verify'
S'side'
S' grass hallway'
tp4007
a(S'turn'
S'right'
S''
tp4008
a(S'verify'
S'front'
S' grass hallway'
tp4009
a(S'travel'
S''
S''
tp4010
a(S'verify'
S'at'
S' hatrack'
tp4011
aa(lp4012
(S'turn'
S''
S''
tp4013
a(S'verify'
S'front'
S' brick hallway'
tp4014
aa(lp4015
(S'turn'
S'right'
S''
tp4016
aa(lp4017
(S'verify'
p4018
S'front'
S' wall'
tp4019
a(g4018
S'left'
S' wall'
tp4020
a(g4018
S'right'
S' wall'
tp4021
a(g4018
S'back'
S' tower wall'
tp4022
aa(lp4023
(S'turn'
S''
S''
tp4024
a(S'verify'
p4025
S'front'
S' wood hallway'
tp4026
a(g4025
S'back'
S' hatrack'
tp4027
aa(lp4028
(S'travel'
S''
S''
tp4029
a(S'verify'
p4030
S'left'
S' wall'
tp4031
a(g4030
S'front'
S' wall'
tp4032
a(S'turn'
S'right'
S''
tp4033
aa(lp4034
(S'verify'
S'front'
S' brick hallway'
tp4035
a(S'travel'
S''
S''
tp4036
aa(lp4037
(S'verify'
S'side'
p4038
S' blue hallway'
p4039
tp4040
aa(lp4041
(S'turn'
S'left'
S''
tp4042
a(S'travel'
S'steps'
S' 1'
tp4043
aa(lp4044
(S'verify'
S'front'
S' grass hallway'
tp4045
aa(lp4046
(S'turn'
S'left'
S''
tp4047
aa(lp4048
(S'turn'
S'left'
S''
tp4049
a(S'verify'
S'front'
S' yellow hallway'
tp4050
a(S'travel'
S''
S''
tp4051
a(S'verify'
S'front'
S' wall'
tp4052
aa(lp4053
(S'turn'
S'right'
S''
tp4054
aa(lp4055
(S'turn'
S''
S''
tp4056
a(S'verify'
S'front'
S' brick hallway'
tp4057
aa(lp4058
(S'turn'
S'left'
S''
tp4059
aa(lp4060
(S'travel'
S'steps'
S' 1'
tp4061
aa(lp4062
(S'turn'
S'right'
S''
tp4063
a(S'verify'
S'front'
S' blue hallway'
tp4064
a(S'travel'
S'steps'
S' 4'
tp4065
aa(lp4066
(S'travel'
S'steps'
S' 1'
tp4067
aa(lp4068
(S'travel'
S'steps'
S' 1'
tp4069
aa(lp4070
(S'turn'
S'left'
S''
tp4071
aa(lp4072
(S'travel'
S''
S''
tp4073
a(S'verify'
S'front'
S' wall'
tp4074
aa(lp4075
(S'verify'
S'front'
S' brick hallway'
tp4076
a(S'travel'
S'steps'
S' 5'
tp4077
a(S'verify'
S'side'
S' gravel hallway'
tp4078
aa(lp4079
(S'turn'
S''
S''
tp4080
a(S'verify'
S'back'
S' wall'
tp4081
a(S'turn'
S'right'
S''
tp4082
aa(lp4083
(S'travel'
S'steps'
S' 1'
tp4084
aa(lp4085
(S'verify'
S'side'
S' blue hallway'
tp4086
a(S'turn'
S'left'
S''
tp4087
aa(lp4088
(S'travel'
S'steps'
S' 2'
tp4089
aa(lp4090
(S'travel'
S'steps'
S' 1'
tp4091
aa(lp4092
(S'travel'
S''
S''
tp4093
a(S'verify'
S'side'
S' concrete hallway'
tp4094
aa(lp4095
(S'turn'
S'right'
S''
tp4096
aa(lp4097
(S'turn'
S''
S''
tp4098
a(S'verify'
S'front'
S' grass hallway'
tp4099
aa(lp4100
(S'turn'
S''
S''
tp4101
a(S'verify'
S'right'
S' chair'
p4102
tp4103
aa(lp4104
(S'turn'
S''
S''
tp4105
a(S'verify'
S'front'
S' yellow hallway'
tp4106
a(S'travel'
S''
S''
tp4107
a(S'verify'
S'front'
S' wall'
tp4108
a(S'turn'
S'right'
S''
tp4109
aa(lp4110
(S'verify'
S'front'
S' yellow hallway'
tp4111
a(S'travel'
S'steps'
S' 3'
tp4112
a(S'verify'
S'side'
S' concrete hallway'
tp4113
aa(lp4114
(S'travel'
S'steps'
S' 1'
tp4115
aa(lp4116
(S'travel'
S'steps'
S' 1'
tp4117
aa(lp4118
(S'turn'
S'right'
S''
tp4119
aa(lp4120
(S'turn'
S'right'
S''
tp4121
aa(lp4122
(S'travel'
S''
S''
tp4123
a(S'verify'
S'front'
S' wall'
tp4124
aa(lp4125
(S'travel'
S''
S''
tp4126
a(S'verify'
S'at'
S' hatrack'
tp4127
a(S'turn'
S'left'
S''
tp4128
aa(lp4129
(S'travel'
S''
S''
tp4130
a(S'verify'
S'right'
S' hallway'
tp4131
a(S'turn'
S'right'
S''
tp4132
a(S'travel'
S''
S''
tp4133
a(S'turn'
S''
S''
tp4134
a(S'travel'
S''
S''
tp4135
a(S'turn'
S''
S''
tp4136
a(S'travel'
S''
S''
tp4137
a(S'verify'
p4138
S'front'
S' wall'
tp4139
a(g4138
S'right'
S' wall'
tp4140
a(g4138
S'left'
S' wall'
tp4141
aa(lp4142
(S'turn'
S''
S''
tp4143
a(S'verify'
S'front'
S' brick hallway'
tp4144
a(S'travel'
S''
S''
tp4145
a(S'verify'
S'side'
S' wood hallway'
p4146
tp4147
aa(lp4148
(S'travel'
S''
S''
tp4149
aa(lp4150
(S'verify'
S'front'
S' yellow hallway'
tp4151
aa(lp4152
(S'travel'
S''
S''
tp4153
a(S'verify'
p4154
S'front'
S' blue hallway'
tp4155
a(g4154
S'side'
S' flower hallway'
tp4156
aa(lp4157
(S'travel'
S''
S''
tp4158
a(S'verify'
S'at'
S' hatrack'
tp4159
a(S'turn'
S'left'
S''
tp4160
a(S'verify'
S'front'
S' grass hallway'
tp4161
aa(lp4162
(S'turn'
S'left'
S''
tp4163
aa(lp4164
(S'turn'
S''
S''
tp4165
a(S'verify'
p4166
S'front'
S' gravel hallway'
tp4167
a(g4166
S'front'
S' easel'
tp4168
aa(lp4169
(S'turn'
S''
S''
tp4170
a(S'verify'
p4171
S'right'
S' chair'
tp4172
a(g4171
S'front'
S' wood hallway'
tp4173
aa(lp4174
(S'travel'
S'steps'
S' 2'
tp4175
aa(lp4176
(S'turn'
S'left'
S''
tp4177
a(S'turn'
S'left'
S''
tp4178
aa(lp4179
(g37
S''
S''
tp4180
aa(lp4181
(S'turn'
S'right'
S''
tp4182
aa(lp4183
(S'travel'
S''
S''
tp4184
a(S'verify'
S'side'
S' blue hallway'
tp4185
aa(lp4186
(S'travel'
S'steps'
S' 2'
tp4187
aa(lp4188
(S'travel'
S''
S''
tp4189
a(S'verify'
p4190
S'front'
S' wall'
tp4191
a(g4190
S'right'
S' wall'
tp4192
aa(lp4193
(S'turn'
S'left'
S''
tp4194
a(S'verify'
S'front'
S' yellow hallway'
tp4195
a(S'travel'
S'steps'
S' 2'
tp4196
a(S'verify'
S'front'
S' wall'
tp4197
aa(lp4198
(S'turn'
S''
S''
tp4199
a(S'verify'
S'right'
S' wall'
tp4200
aa(lp4201
(S'turn'
S'left'
S''
tp4202
aa(lp4203
(S'travel'
S'steps'
S' 1'
tp4204
a(S'verify'
S'side'
S' blue hallway'
tp4205
aa(lp4206
(S'verify'
p4207
S'front'
S' brick hallway'
tp4208
a(g4207
S'front'
S' lamp'
p4209
tp4210
a(S'travel'
S''
S''
tp4211
a(S'verify'
S'at'
S' lamp'
p4212
tp4213
a(S'travel'
S'steps'
S' 2'
tp4214
aa(lp4215
(S'verify'
S'left'
S' butterfly wall'
tp4216
aa(lp4217
(S'turn'
S''
S''
tp4218
a(S'verify'
S'front'
S' easel'
tp4219
aa(lp4220
(S'verify'
S'front'
S' easel'
tp4221
aa(lp4222
(S'travel'
S''
S''
tp4223
a(S'verify'
p4224
S'front'
S' sofa'
tp4225
a(g4224
S'back'
S' hatrack'
tp4226
aa(lp4227
(S'turn'
S'left'
S''
tp4228
a(S'verify'
S'front'
S' flower hallway'
tp4229
a(S'travel'
S'steps'
S' 1'
tp4230
a(S'turn'
S'right'
S''
tp4231
aa(lp4232
(S'verify'
S'at'
S' easel'
tp4233
aa(lp4234
(S'travel'
S'steps'
S' 1'
tp4235
aa(lp4236
(S'verify'
S'front'
S' yellow hallway'
tp4237
aa(lp4238
(S'travel'
S''
S''
tp4239
a(S'verify'
S'side'
S' blue hallway'
tp4240
aa(lp4241
(g37
S''
S''
tp4242
aa(lp4243
(S'turn'
S''
S''
tp4244
a(S'verify'
S'back'
S' wall'
tp4245
a(S'turn'
S'left'
S''
tp4246
aa(lp4247
(S'turn'
S'left'
S''
tp4248
aa(lp4249
(S'travel'
S'steps'
S' 1'
tp4250
aa(lp4251
(S'verify'
S'right'
S' grass hallway'
tp4252
aa(lp4253
(S'turn'
S'right'
S''
tp4254
a(S'verify'
S'front'
S' flower hallway'
tp4255
aa(lp4256
(S'turn'
S''
S''
tp4257
a(S'verify'
S'front'
S' yellow hallway'
tp4258
a(S'travel'
S''
S''
tp4259
a(S'verify'
S'front'
S' wall'
tp4260
aa(lp4261
(S'verify'
S'front'
S' chair'
tp4262
a(S'travel'
S''
S''
tp4263
a(S'verify'
p4264
S'back'
S' chair'
tp4265
a(g4264
S'side'
S' flower hallway'
tp4266
aa(lp4267
(S'verify'
S'front'
S' blue hallway'
tp4268
a(S'travel'
S''
S''
tp4269
a(S'verify'
S'front'
S' wall'
tp4270
aa(lp4271
(S'travel'
S''
S''
tp4272
a(S'verify'
S'at'
S' barstool'
tp4273
aa(lp4274
(S'travel'
S''
S''
tp4275
a(S'verify'
p4276
S'front'
S' gravel hallway'
tp4277
a(g4276
S'side'
S' concrete hallway'
tp4278
aa(lp4279
(S'verify'
S'side'
S' brick hallway'
tp4280
aa(lp4281
(S'travel'
S''
S''
tp4282
a(S'verify'
S'front'
S' wall'
tp4283
aa(lp4284
(S'verify'
S'front'
S' chair'
tp4285
a(S'travel'
S'steps'
S' 2'
tp4286
a(S'verify'
p4287
S'back'
S' chair'
tp4288
a(g4287
S'at'
S' barstool'
tp4289
aa(lp4290
(S'turn'
S''
S''
tp4291
a(S'verify'
S'front'
S' lamp'
tp4292
a(S'travel'
S''
S''
tp4293
a(S'verify'
p4294
S'front'
S' wall'
tp4295
a(g4294
S'right'
S' wall'
tp4296
a(S'turn'
S'left'
S''
tp4297
aa(lp4298
(S'turn'
S''
S''
tp4299
a(S'verify'
S'front'
S' lamp'
tp4300
aa(lp4301
(S'travel'
S'steps'
S' 2'
tp4302
aa(lp4303
(S'turn'
S'right'
S''
tp4304
aa(lp4305
(S'turn'
S'right'
S''
tp4306
aa(lp4307
(S'travel'
S'steps'
S' 6'
p4308
tp4309
aa(lp4310
(S'turn'
S'left'
S''
tp4311
a(S'travel'
S'steps'
S' 2'
tp4312
aa(lp4313
(S'turn'
S''
S''
tp4314
a(S'verify'
S'front'
S' brick hallway'
tp4315
a(S'travel'
S''
S''
tp4316
a(S'verify'
S'side'
S' concrete hallway'
tp4317
aa(lp4318
(S'travel'
S''
S''
tp4319
a(S'verify'
S'front'
S' blue hallway'
tp4320
aa(lp4321
(S'travel'
S'steps'
S' 1'
tp4322
a(S'verify'
p4323
S'front'
S' gravel hallway'
tp4324
a(g4323
S'side'
S' yellow hallway'
tp4325
aa(lp4326
(S'turn'
S''
S''
tp4327
a(S'verify'
p4328
S'back'
S' wall'
tp4329
a(g4328
S'at'
S' 3-intersection'
tp4330
a(S'turn'
S'left'
S''
tp4331
aa(lp4332
(S'travel'
S''
S''
tp4333
aa(lp4334
(S'verify'
p4335
S'front'
S' yellow hallway'
tp4336
a(g4335
S'side'
S' gravel hallway'
tp4337
a(S'turn'
S'right'
S''
tp4338
aa(lp4339
(S'turn'
S''
S''
tp4340
a(S'verify'
S'front'
S' chair'
tp4341
a(S'travel'
S''
S''
tp4342
a(S'verify'
p4343
S'back'
S' chair'
tp4344
a(g4343
S'front'
S' wall'
tp4345
a(g4343
S'right'
S' wall'
tp4346
aa(lp4347
(S'travel'
S''
S''
tp4348
a(S'verify'
S'side'
S' blue hallway'
tp4349
aa(lp4350
(S'verify'
p4351
S'front'
S' wood hallway'
tp4352
a(g4351
S'front'
S' butterfly wall'
tp4353
aa(lp4354
(S'verify'
p4355
S'front'
S' flower hallway'
tp4356
a(g4355
S'front'
S' easel'
tp4357
aa(lp4358
(S'verify'
S'front'
S' lamp'
tp4359
a(S'travel'
S''
S''
tp4360
a(S'verify'
p4361
S'back'
S' lamp'
tp4362
a(g4361
S'front'
S' wall'
tp4363
a(g4361
S'right'
S' wall'
tp4364
aa(lp4365
(S'travel'
S'steps'
S' 1'
tp4366
aa(lp4367
(S'travel'
S'steps'
S' 1'
tp4368
aa(lp4369
(S'verify'
S'front'
S' easel'
tp4370
a(S'travel'
S'steps'
S' 2'
tp4371
a(S'verify'
S'back'
S' easel'
tp4372
aa(lp4373
(g37
S''
S''
tp4374
aa(lp4375
(S'travel'
S'steps'
S' 2'
tp4376
aa(lp4377
(S'verify'
S'front'
S' chair'
tp4378
a(S'travel'
S'steps'
S' 2'
tp4379
a(S'verify'
p4380
S'back'
S' chair'
tp4381
a(g4380
S'at'
S' barstool'
tp4382
aa(lp4383
(S'verify'
S'front'
S' blue hallway'
tp4384
a(S'travel'
S''
S''
tp4385
a(S'verify'
S'front'
S' wall'
tp4386
aa(lp4387
(S'turn'
S'left'
S''
tp4388
aa(lp4389
(S'travel'
S''
S''
tp4390
a(S'verify'
S'at'
S' easel'
tp4391
a(S'turn'
S'right'
S''
tp4392
a(S'verify'
S'front'
S' wood hallway'
tp4393
a(S'travel'
S'steps'
S' 1'
tp4394
aa(lp4395
(S'turn'
S''
S''
tp4396
a(S'verify'
S'front'
S' flower hallway'
tp4397
a(S'travel'
S''
S''
tp4398
a(S'verify'
S'side'
S' brick hallway'
tp4399
aa(lp4400
(S'travel'
S'steps'
S' 2'
tp4401
aa(lp4402
(S'travel'
S'steps'
S' 2'
tp4403
a(S'verify'
S'side'
S' blue hallway'
tp4404
aa(lp4405
(S'turn'
S'left'
S''
tp4406
aa(lp4407
(S'travel'
S'steps'
S' 1'
tp4408
a(S'verify'
S'side'
S' blue hallway'
tp4409
aa(lp4410
(S'turn'
S'right'
S''
tp4411
aa(lp4412
(S'turn'
S'right'
S''
tp4413
aa(lp4414
(S'turn'
S'left'
S''
tp4415
aa(lp4416
(S'travel'
S'steps'
S' 1'
tp4417
a(S'verify'
S'at'
S' barstool'
tp4418
aa(lp4419
(S'turn'
S'right'
S''
tp4420
a(S'verify'
S'front'
S' lamp'
tp4421
a(S'turn'
S'right'
S''
tp4422
a(S'verify'
S'front'
S' hatrack'
tp4423
aa(lp4424
(S'turn'
S''
S''
tp4425
a(S'verify'
p4426
S'back'
S' wall'
tp4427
a(g4426
S'at'
S' 3-intersection'
tp4428
aa(lp4429
(S'turn'
S''
S''
tp4430
a(S'verify'
S'left'
S' easel'
tp4431
aa(lp4432
(S'turn'
S''
S''
tp4433
a(S'verify'
S'front'
S' easel'
tp4434
aa(lp4435
(S'turn'
S''
S''
tp4436
a(S'verify'
p4437
S'back'
S' wall'
tp4438
a(g4437
S'at'
S' 3-intersection'
tp4439
aa(lp4440
(S'travel'
S''
S''
tp4441
a(S'turn'
S''
S''
tp4442
a(S'travel'
S''
S''
tp4443
a(S'turn'
S''
S''
tp4444
a(S'travel'
S''
S''
tp4445
a(S'turn'
S''
S''
tp4446
aa(lp4447
(S'travel'
S''
S''
tp4448
a(S'verify'
p4449
S'front'
S' concrete hallway'
tp4450
a(g4449
S'side'
S' concrete hallway'
tp4451
a(g4449
S'front'
S' butterfly wall'
tp4452
a(g4449
S'side'
S' butterfly wall'
p4453
tp4454
aa(lp4455
(S'turn'
S''
S''
tp4456
a(S'verify'
p4457
S'front'
S' yellow hallway'
tp4458
a(g4457
S'front'
S' sofa'
tp4459
a(S'travel'
S'steps'
S' 3'
tp4460
a(S'verify'
S'back'
S' sofa'
tp4461
aa(lp4462
(S'verify'
S'front'
S' concrete hallway'
tp4463
a(S'travel'
S'steps'
S' 1'
tp4464
a(S'verify'
S'side'
S' flower hallway'
tp4465
aa(lp4466
(S'turn'
S''
S''
tp4467
a(S'verify'
p4468
S'front'
S' butterfly wall'
tp4469
a(g4468
S'front'
S' blue hallway'
tp4470
a(S'travel'
S''
S''
tp4471
aa(lp4472
(S'verify'
p4473
S'front'
S' brick hallway'
tp4474
a(g4473
S'front'
S' lamp'
tp4475
a(S'travel'
S''
S''
tp4476
a(S'verify'
p4477
S'back'
S' lamp'
tp4478
a(g4477
S'at'
S' hatrack'
tp4479
aa(lp4480
(S'travel'
S''
S''
tp4481
a(S'verify'
S'side'
S' flower hallway'
tp4482
a(S'turn'
S'left'
S''
tp4483
aa(lp4484
(S'turn'
S''
S''
tp4485
a(S'verify'
S'back'
S' wall'
tp4486
aa(lp4487
(S'travel'
S'steps'
S' 1'
tp4488
a(S'verify'
S'side'
S' concrete hallway'
tp4489
aa(lp4490
(S'turn'
S''
S''
tp4491
a(S'verify'
p4492
S'front'
S' brick hallway'
tp4493
a(g4492
S'back'
S' sofa'
tp4494
a(S'travel'
S''
S''
tp4495
a(S'verify'
p4496
S'front'
S' wall'
tp4497
a(g4496
S'left'
S' wall'
tp4498
a(S'turn'
S'right'
S''
tp4499
a(S'verify'
S'front'
S' easel'
tp4500
aa(lp4501
(S'travel'
S'steps'
S' 2'
tp4502
aa(lp4503
(S'turn'
S''
S''
tp4504
a(S'verify'
p4505
S'front'
S' blue hallway'
tp4506
a(g4505
S'front'
S' chair'
tp4507
a(S'travel'
S''
S''
tp4508
a(S'verify'
S'front'
S' wall'
tp4509
aa(lp4510
(S'travel'
S'steps'
S' 1'
tp4511
aa(lp4512
(S'turn'
S''
S''
tp4513
a(S'verify'
p4514
S'back'
S' wall'
tp4515
a(g4514
S'at'
S' 3-intersection'
tp4516
aa(lp4517
(S'verify'
S'front'
S' chair'
tp4518
a(S'travel'
S'steps'
S' 2'
tp4519
a(S'verify'
S'back'
S' chair'
tp4520
aa(lp4521
(S'turn'
S''
S''
tp4522
a(S'verify'
p4523
S'back'
S' wall'
tp4524
a(g4523
S'at'
S' 3-intersection'
tp4525
aa(lp4526
(S'travel'
S'steps'
S' 1'
tp4527
a(S'verify'
S'side'
S' wood hallway'
tp4528
aa(lp4529
(S'verify'
S'front'
S' flower hallway'
tp4530
a(S'turn'
S'right'
S''
tp4531
a(S'verify'
S'front'
S' concrete hallway'
tp4532
aa(lp4533
(S'turn'
S''
S''
tp4534
a(S'verify'
S'back'
S' sofa'
tp4535
aa(lp4536
(S'travel'
S'steps'
S' 1'
tp4537
a(S'verify'
S'front'
S' wall'
tp4538
aa(lp4539
(S'travel'
S'steps'
S' 2'
tp4540
a(S'verify'
S'side'
S' concrete hallway'
tp4541
aa(lp4542
(S'travel'
S''
S''
tp4543
a(S'verify'
p4544
S'front'
S' wall'
tp4545
a(g4544
S'left'
S' wall'
tp4546
aa(lp4547
(S'turn'
S'left'
S''
tp4548
aa(lp4549
(S'travel'
S'steps'
S' 5'
tp4550
a(S'verify'
S'side'
S' yellow hallway'
tp4551
aa(lp4552
(S'turn'
S''
S''
tp4553
a(S'verify'
p4554
S'left'
S' wall'
tp4555
a(g4554
S'back'
S' wall'
tp4556
aa(lp4557
(g37
S''
S''
tp4558
aa(lp4559
(S'turn'
S'left'
S''
tp4560
aa(lp4561
(S'turn'
S'left'
S''
tp4562
a(S'travel'
S'steps'
S' 3'
tp4563
aa(lp4564
(S'travel'
S''
S''
tp4565
a(S'verify'
S'left'
S' hallway'
tp4566
a(S'turn'
S'left'
S''
tp4567
aa(lp4568
(S'turn'
S''
S''
tp4569
a(S'verify'
S'front'
S' lamp'
tp4570
aa(lp4571
(S'turn'
S'left'
S''
tp4572
aa(lp4573
(S'travel'
S'steps'
S' 1'
tp4574
a(S'verify'
S'front'
S' wall'
tp4575
aa(lp4576
(S'turn'
S'left'
S''
tp4577
aa(lp4578
(S'turn'
S'right'
S''
tp4579
aa(lp4580
(S'turn'
S''
S''
tp4581
a(S'verify'
S'left'
S' wall'
tp4582
aa(lp4583
(S'travel'
S'steps'
S' 1'
tp4584
a(S'verify'
S'side'
S' wood hallway'
tp4585
aa(lp4586
(g37
S''
S''
tp4587
aa(lp4588
(S'turn'
S'right'
S''
tp4589
aa(lp4590
(S'travel'
S'steps'
S' 1'
tp4591
a(S'verify'
S'side'
S' brick hallway'
tp4592
aa(lp4593
(S'verify'
S'front'
S' wood hallway'
tp4594
a(S'travel'
S'steps'
S' 2'
tp4595
a(S'verify'
S'at'
S' easel'
tp4596
aa(lp4597
(S'turn'
S'left'
S''
tp4598
aa(lp4599
(S'turn'
S'left'
S''
tp4600
a(S'travel'
S'steps'
S' 1'
tp4601
aa(lp4602
(S'travel'
S''
S''
tp4603
a(S'verify'
S'at'
S' lamp'
tp4604
a(S'travel'
S'steps'
S' 2'
tp4605
aa(lp4606
(S'travel'
S'steps'
S' 1'
tp4607
aa(lp4608
(S'verify'
S'front'
S' yellow hallway'
tp4609
aa(lp4610
(S'turn'
S''
S''
tp4611
a(S'verify'
S'front'
S' flower hallway'
tp4612
aa(lp4613
(S'turn'
S'left'
S''
tp4614
aa(lp4615
(S'turn'
S'left'
S''
tp4616
aa(lp4617
(S'verify'
S'at'
S' chair'
tp4618
aa(lp4619
(S'turn'
S''
S''
tp4620
a(S'verify'
p4621
S'front'
S' wood hallway'
tp4622
a(g4621
S'right'
S' chair'
tp4623
aa(lp4624
(S'turn'
S'right'
S''
tp4625
aa(lp4626
(S'turn'
S''
S''
tp4627
a(S'verify'
p4628
S'front'
S' gravel hallway'
tp4629
a(g4628
S'front'
S' easel'
tp4630
aa(lp4631
(S'turn'
S'left'
S''
tp4632
a(S'verify'
S'front'
S' blue hallway'
tp4633
aa(lp4634
(S'verify'
S'front'
S' easel'
tp4635
aa(lp4636
(S'turn'
S''
S''
tp4637
a(S'verify'
S'front'
S' easel'
tp4638
aa(lp4639
(S'travel'
S'steps'
S' 1'
tp4640
a(S'verify'
S'side'
S' wood hallway'
tp4641
aa(lp4642
(S'verify'
S'side'
S' gravel hallway'
tp4643
aa(lp4644
(S'verify'
S'at'
S' easel'
tp4645
a(S'turn'
S'right'
S''
tp4646
a(S'travel'
S''
S''
tp4647
aa(lp4648
(S'turn'
S''
S''
tp4649
a(S'verify'
p4650
S'right'
S' wall'
tp4651
a(g4650
S'left'
S' wall'
tp4652
a(g4650
S'back'
S' wall'
tp4653
aa(lp4654
(S'turn'
S'right'
S''
tp4655
a(S'verify'
S'front'
S' blue hallway'
tp4656
a(S'travel'
S''
S''
tp4657
a(S'verify'
S'front'
S' wall'
tp4658
aa(lp4659
(S'verify'
S'front'
S' fish wall'
tp4660
a(S'travel'
S''
S''
tp4661
a(S'verify'
p4662
S'front'
S' wall'
tp4663
a(g4662
S'left'
S' wall'
tp4664
a(g4662
S'right'
S' wall'
tp4665
aa(lp4666
(S'turn'
S'left'
S''
tp4667
aa(lp4668
(S'turn'
S'right'
S''
tp4669
aa(lp4670
(S'turn'
S'left'
S''
tp4671
aa(lp4672
(g37
S''
S''
tp4673
aa(lp4674
(S'travel'
S'steps'
S' 1'
tp4675
aa(lp4676
(S'travel'
S''
S''
tp4677
a(S'verify'
p4678
S'front'
S' wall'
tp4679
a(g4678
S'left'
S' wall'
tp4680
aa(lp4681
(S'travel'
S''
S''
tp4682
a(S'verify'
S'at'
S' easel'
tp4683
aa(lp4684
(S'travel'
S''
S''
tp4685
a(S'verify'
S'at'
S' chair'
tp4686
a(S'turn'
S'left'
S''
tp4687
aa(lp4688
(S'verify'
S'right'
S' concrete hallway'
p4689
tp4690
aa(lp4691
(S'travel'
S''
S''
tp4692
a(S'verify'
p4693
S'front'
S' wall'
tp4694
a(g4693
S'left'
S' blue hallway'
tp4695
a(g4693
S'right'
S' blue hallway'
tp4696
aa(lp4697
(S'turn'
S''
S''
tp4698
a(S'verify'
S'left'
S' wall'
tp4699
aa(lp4700
(S'turn'
S'right'
S''
tp4701
aa(lp4702
(S'verify'
S'front'
S' gravel hallway'
tp4703
a(S'travel'
S'steps'
S' 1'
tp4704
a(S'verify'
S'side'
S' brick hallway'
tp4705
aa(lp4706
(S'travel'
S''
S''
tp4707
a(S'turn'
S''
S''
tp4708
a(S'travel'
S''
S''
tp4709
a(S'turn'
S''
S''
tp4710
a(S'travel'
S''
S''
tp4711
a(S'verify'
p4712
S'front'
S' wall'
tp4713
a(g4712
S'left'
S' wall'
tp4714
a(g4712
S'right'
S' wall'
tp4715
aa(lp4716
(S'travel'
S''
S''
tp4717
a(S'verify'
S'at'
S' easel'
tp4718
a(S'turn'
S'left'
S''
tp4719
aa(lp4720
(S'turn'
S'left'
S''
tp4721
aa(lp4722
(S'travel'
S''
S''
tp4723
a(S'verify'
S'side'
S' flower hallway'
tp4724
aa(lp4725
(S'turn'
S'left'
S''
tp4726
aa(lp4727
(S'turn'
S''
S''
tp4728
a(S'verify'
S'back'
S' wall'
tp4729
a(S'turn'
S'right'
S''
tp4730
aa(lp4731
(S'turn'
S''
S''
tp4732
a(S'verify'
S'front'
S' concrete hallway'
tp4733
aa(lp4734
(S'travel'
S''
S''
tp4735
a(S'verify'
p4736
S'side'
S' concrete hallway'
tp4737
a(g4736
S'front'
S' tower wall'
tp4738
a(g4736
S'side'
S' fish wall'
p4739
tp4740
aa(lp4741
(S'verify'
S'front'
S' blue hallway'
tp4742
a(S'travel'
S'steps'
S' 2'
tp4743
aa(lp4744
(S'turn'
S''
S''
tp4745
a(S'verify'
S'front'
S' flower hallway'
tp4746
a(S'travel'
S''
S''
tp4747
a(S'verify'
S'front'
S' fish wall'
tp4748
aa(lp4749
(S'travel'
S'steps'
S' 1'
tp4750
aa(lp4751
(S'travel'
S''
S''
tp4752
a(S'verify'
S'front'
S' wall'
tp4753
aa(lp4754
(S'turn'
S'right'
S''
tp4755
aa(lp4756
(S'verify'
p4757
S'front'
S' lamp'
tp4758
a(g4757
S'front'
S' easel'
tp4759
aa(lp4760
(S'turn'
S''
S''
tp4761
a(S'verify'
S'front'
S' flower hallway'
tp4762
a(S'travel'
S''
S''
tp4763
a(S'verify'
S'side'
S' brick hallway'
tp4764
aa(lp4765
(S'turn'
S'right'
S''
tp4766
aa(lp4767
(S'verify'
S'left'
S' chair'
tp4768
aa(lp4769
(S'turn'
S'left'
S''
tp4770
aa(lp4771
(S'travel'
S''
S''
tp4772
a(S'verify'
S'at'
S' easel'
tp4773
aa(lp4774
(S'turn'
S''
S''
tp4775
a(S'travel'
S''
S''
tp4776
a(S'verify'
S'side'
S' flower hallway'
tp4777
aa(lp4778
(S'travel'
S'steps'
S' 1'
tp4779
aa(lp4780
(S'travel'
S'steps'
S' 1'
tp4781
a(S'verify'
p4782
S'front'
S' wall'
tp4783
a(g4782
S'left'
S' wall'
tp4784
aa(lp4785
(S'turn'
S'right'
S''
tp4786
aa(lp4787
(S'travel'
S'steps'
S' 3'
tp4788
a(S'verify'
S'side'
S' yellow hallway'
tp4789
a(S'turn'
S'left'
S''
tp4790
a(S'travel'
S'steps'
S' 1'
tp4791
aa(lp4792
(S'verify'
S'right'
S' sofa'
p4793
tp4794
aa(lp4795
(S'turn'
S''
S''
tp4796
a(S'verify'
p4797
S'back'
S' wall'
tp4798
a(g4797
S'at'
S' 3-intersection'
tp4799
aa(lp4800
(S'verify'
S'right'
S' grass hallway'
p4801
tp4802
aa(lp4803
(S'travel'
S'steps'
S' 1'
tp4804
a(S'verify'
S'side'
S' yellow hallway'
tp4805
aa(lp4806
(S'turn'
S''
S''
tp4807
a(S'verify'
S'front'
S' hatrack'
tp4808
aa(lp4809
(S'travel'
S''
S''
tp4810
a(S'verify'
S'side'
S' flower hallway'
tp4811
aa(lp4812
(S'turn'
S'right'
S''
tp4813
a(S'verify'
S'front'
S' chair'
tp4814
a(S'travel'
S''
S''
tp4815
a(S'verify'
p4816
S'back'
S' chair'
tp4817
a(g4816
S'at'
S' barstool'
tp4818
aa(lp4819
(S'travel'
S'steps'
S' 3'
tp4820
aa(lp4821
(S'turn'
S'left'
S''
tp4822
aa(lp4823
(S'turn'
S'left'
S''
tp4824
aa(lp4825
(S'turn'
S'left'
S''
tp4826
a(S'verify'
S'front'
S' concrete hallway'
tp4827
aa(lp4828
(S'turn'
S''
S''
tp4829
a(S'verify'
S'front'
S' yellow hallway'
tp4830
a(S'travel'
S''
S''
tp4831
a(S'verify'
S'front'
S' wall'
tp4832
aa(lp4833
(S'turn'
S'left'
S''
tp4834
aa(lp4835
(S'turn'
S''
S''
tp4836
a(S'verify'
S'front'
S' hatrack'
tp4837
aa(lp4838
(S'turn'
S'left'
S''
tp4839
aa(lp4840
(S'turn'
S'left'
S''
tp4841
aa(lp4842
(S'turn'
S'left'
S''
tp4843
aa(lp4844
(S'travel'
S''
S''
tp4845
a(S'verify'
S'side'
S' flower hallway'
tp4846
a(S'turn'
S'left'
S''
tp4847
a(S'verify'
S'front'
S' flower hallway'
tp4848
aa(lp4849
(S'verify'
S'front'
S' easel'
tp4850
a(S'travel'
S'steps'
S' 2'
tp4851
a(S'verify'
p4852
S'back'
S' easel'
tp4853
a(g4852
S'side'
S' brick hallway'
tp4854
aa(lp4855
(S'travel'
S'steps'
S' 1'
tp4856
a(S'turn'
S'right'
S''
tp4857
a(S'verify'
S'front'
S' blue hallway'
tp4858
aa(lp4859
(S'turn'
S'right'
S''
tp4860
aa(lp4861
(S'turn'
S'left'
S''
tp4862
a(S'travel'
S''
S''
tp4863
a(S'verify'
S'front'
S' wall'
tp4864
aa(lp4865
(S'turn'
S''
S''
tp4866
a(S'verify'
S'back'
S' wall'
tp4867
a(S'turn'
S'left'
S''
tp4868
aa(lp4869
(S'turn'
S''
S''
tp4870
a(S'verify'
p4871
S'back'
S' wall'
tp4872
a(g4871
S'at'
S' 3-intersection'
tp4873
aa(lp4874
(S'turn'
S'left'
S''
tp4875
aa(lp4876
(S'travel'
S''
S''
tp4877
aa(lp4878
(S'turn'
S'left'
S''
tp4879
aa(lp4880
(S'travel'
S'steps'
S' 1'
tp4881
aa(lp4882
(S'turn'
S'right'
S''
tp4883
aa(lp4884
(S'verify'
p4885
S'at'
S' easel'
tp4886
a(g4885
S'left'
S' tower wall'
tp4887
a(g4885
S'right'
S' butterfly wall'
tp4888
aa(lp4889
(S'turn'
S''
S''
tp4890
a(S'verify'
p4891
S'front'
S' gravel hallway'
tp4892
a(g4891
S'front'
S' lamp'
tp4893
aa(lp4894
(S'turn'
S''
S''
tp4895
a(S'verify'
S'back'
S' wall'
tp4896
a(S'travel'
S''
S''
tp4897
a(S'verify'
S'at'
S' hatrack'
tp4898
aa(lp4899
(S'travel'
S'steps'
S' 2'
tp4900
aa(lp4901
(S'verify'
S'at'
S' 3-intersection'
tp4902
aa(lp4903
(S'turn'
S'right'
S''
tp4904
aa(lp4905
(S'turn'
S''
S''
tp4906
a(S'verify'
S'front'
S' gravel hallway'
tp4907
aa(lp4908
(S'turn'
S'left'
S''
tp4909
a(S'travel'
S''
S''
tp4910
a(S'verify'
S'at'
S' chair'
tp4911
aa(lp4912
(S'travel'
S''
S''
tp4913
a(S'verify'
S'at'
S' hatrack'
tp4914
a(S'turn'
S'right'
S''
tp4915
a(S'verify'
S'front'
S' concrete hallway'
tp4916
aa(lp4917
(S'travel'
S''
S''
tp4918
aa(lp4919
(S'turn'
S''
S''
tp4920
a(S'verify'
S'front'
S' blue hallway'
tp4921
a(S'travel'
S''
S''
tp4922
a(S'verify'
S'side'
S' flower hallway'
tp4923
aa(lp4924
(S'turn'
S'left'
S''
tp4925
aa(lp4926
(S'travel'
S'steps'
S' 1'
tp4927
a(S'verify'
S'side'
S' yellow hallway'
tp4928
aa(lp4929
(S'verify'
S'front'
S' yellow hallway'
tp4930
a(S'travel'
S'steps'
S' 1'
tp4931
a(S'verify'
S'side'
S' concrete hallway'
tp4932
aa(lp4933
(S'travel'
S''
S''
tp4934
aa(lp4935
(S'travel'
S'steps'
S' 3'
tp4936
a(S'verify'
S'side'
S' flower hallway'
tp4937
aa(lp4938
(S'travel'
S'steps'
S' 1'
tp4939
aa(lp4940
(S'travel'
S''
S''
tp4941
a(S'verify'
S'at'
S' easel'
tp4942
aa(lp4943
(S'turn'
S'left'
S''
tp4944
aa(lp4945
(S'turn'
S'left'
S''
tp4946
aa(lp4947
(S'turn'
S'right'
S''
tp4948
aa(lp4949
(S'turn'
S'right'
S''
tp4950
aa(lp4951
(S'turn'
S'left'
S''
tp4952
a(S'verify'
S'front'
S' wood hallway'
tp4953
aa(lp4954
(S'travel'
S'steps'
S' 1'
tp4955
aa(lp4956
(S'verify'
S'right'
S' sofa'
tp4957
aa(lp4958
(S'turn'
S'right'
S''
tp4959
a(S'travel'
S'steps'
S' 1'
tp4960
aa(lp4961
(S'turn'
S'left'
S''
tp4962
aa(lp4963
(S'turn'
S''
S''
tp4964
a(S'verify'
S'right'
S' wall'
tp4965
aa(lp4966
(S'turn'
S'right'
S''
tp4967
aa(lp4968
(S'travel'
S'steps'
S' 3'
tp4969
aa(lp4970
(S'travel'
S''
S''
tp4971
a(S'verify'
p4972
S'front'
S' tower wall'
tp4973
a(g4972
S'back'
S' butterfly wall'
tp4974
aa(lp4975
(S'travel'
S''
S''
tp4976
a(S'verify'
p4977
S'front'
S' wall'
tp4978
a(g4977
S'right'
S' wall'
tp4979
a(g4977
S'left'
S' concrete hallway'
tp4980
a(g4977
S'back'
S' concrete hallway'
tp4981
aa(lp4982
(S'turn'
S''
S''
tp4983
a(S'verify'
p4984
S'right'
S' wall'
tp4985
a(g4984
S'left'
S' wall'
tp4986
a(g4984
S'back'
S' wall'
tp4987
aa(lp4988
(S'verify'
S'front'
S' blue hallway'
tp4989
a(S'travel'
S'steps'
S' 2'
tp4990
a(S'verify'
S'side'
S' gravel hallway'
tp4991
aa(lp4992
(g37
S''
S''
tp4993
aa(lp4994
(S'turn'
S''
S''
tp4995
a(S'verify'
S'back'
S' wall'
tp4996
a(S'travel'
S''
S''
tp4997
a(S'verify'
S'at'
S' chair'
tp4998
a(S'turn'
S'right'
S''
tp4999
aa(lp5000
(S'verify'
p5001
S'side'
S' concrete hallway'
tp5002
a(g5001
S'back'
S' yellow hallway'
tp5003
a(g5001
S'front'
S' yellow hallway'
tp5004
aa(lp5005
(S'turn'
S''
S''
tp5006
a(S'verify'
S'front'
S' brick hallway'
tp5007
aa(lp5008
(S'travel'
S'steps'
S' 1'
tp5009
a(S'verify'
S'side'
S' blue hallway'
tp5010
aa(lp5011
(S'turn'
S'right'
S''
tp5012
aa(lp5013
(S'turn'
S''
S''
tp5014
a(S'verify'
S'right'
S' wall'
tp5015
aa(lp5016
(S'travel'
S'steps'
S' 1'
tp5017
a(S'verify'
S'at'
S' barstool'
tp5018
aa(lp5019
(S'verify'
S'side'
S' wood hallway'
tp5020
a(S'turn'
S'left'
S''
tp5021
aa(lp5022
(S'verify'
S'left'
S' easel'
tp5023
aa(lp5024
(S'verify'
S'front'
S' chair'
tp5025
a(S'travel'
S'steps'
S' 2'
tp5026
a(S'verify'
p5027
S'back'
S' chair'
tp5028
a(g5027
S'at'
S' barstool'
tp5029
aa(lp5030
(S'verify'
S'front'
S' chair'
tp5031
a(S'travel'
S''
S''
tp5032
a(S'verify'
p5033
S'back'
S' chair'
tp5034
a(g5033
S'side'
S' flower hallway'
tp5035
aa(lp5036
(S'travel'
S''
S''
tp5037
a(S'verify'
p5038
S'front'
S' brick hallway'
tp5039
a(g5038
S'back'
S' brick hallway'
p5040
tp5041
aa(lp5042
(S'travel'
S''
S''
tp5043
aa(lp5044
(S'turn'
S'right'
S''
tp5045
a(S'travel'
S''
S''
tp5046
a(S'verify'
S'at'
S' easel'
tp5047
aa(lp5048
(S'verify'
S'front'
S' easel'
tp5049
aa(lp5050
(S'verify'
p5051
S'left'
p5052
S' concrete hallway'
p5053
tp5054
a(g5051
S'left'
S' chair'
p5055
tp5056
aa(lp5057
(S'turn'
S'right'
S''
tp5058
a(S'verify'
S'front'
S' brick hallway'
tp5059
aa(lp5060
(S'turn'
S'left'
S''
tp5061
aa(lp5062
(S'verify'
S'at'
S' easel'
tp5063
aa(lp5064
(S'turn'
S''
S''
tp5065
a(S'verify'
S'back'
S' wall'
tp5066
a(S'turn'
S'left'
S''
tp5067
aa(lp5068
(S'turn'
S'left'
S''
tp5069
aa(lp5070
(S'turn'
S''
S''
tp5071
a(S'verify'
S'back'
S' wall'
tp5072
aa(lp5073
(S'travel'
S''
S''
tp5074
a(S'verify'
S'left'
S' fish wall'
tp5075
aa(lp5076
(S'turn'
S'right'
S''
tp5077
a(S'travel'
S'steps'
S' 1'
tp5078
a(S'turn'
S'right'
S''
tp5079
aa(lp5080
(S'travel'
S'steps'
S' 1'
tp5081
a(S'verify'
p5082
S'front'
S' wall'
tp5083
a(g5082
S'right'
S' wall'
tp5084
a(g5082
S'left'
S' wall'
tp5085
aa(lp5086
(S'travel'
S''
S''
tp5087
a(S'verify'
S'at'
S' easel'
tp5088
a(S'turn'
S'right'
S''
tp5089
aa(lp5090
(S'turn'
S''
S''
tp5091
aa(lp5092
(S'travel'
S'steps'
S' 1'
tp5093
aa(lp5094
(S'verify'
p5095
S'front'
S' blue hallway'
tp5096
a(g5095
S'front'
S' sofa'
tp5097
a(g5095
S'front'
S' barstool'
tp5098
a(g5095
S'front'
S' chair'
tp5099
a(S'travel'
S''
S''
tp5100
a(S'verify'
p5101
S'back'
S' sofa'
tp5102
a(g5101
S'back'
S' barstool'
tp5103
a(g5101
S'back'
S' chair'
tp5104
a(g5101
S'side'
S' flower hallway'
tp5105
aa(lp5106
(g37
S''
S''
tp5107
aa(lp5108
(S'travel'
S''
S''
tp5109
a(S'verify'
S'at'
S' hatrack'
tp5110
a(S'turn'
S'right'
S''
tp5111
aa(lp5112
(S'turn'
S'right'
S''
tp5113
a(S'travel'
S''
S''
tp5114
a(S'verify'
S'right'
S' hallway'
tp5115
a(S'turn'
S'right'
S''
tp5116
aa(lp5117
(S'turn'
S''
S''
tp5118
a(S'verify'
p5119
S'front'
S' yellow hallway'
tp5120
a(g5119
S'front'
S' chair'
tp5121
aa(lp5122
(S'turn'
S'right'
S''
tp5123
aa(lp5124
(S'turn'
S'left'
S''
tp5125
aa(lp5126
(S'travel'
S'steps'
S' 1'
tp5127
aa(lp5128
(S'travel'
S''
S''
tp5129
a(S'verify'
p5130
S'front'
S' wall'
tp5131
a(g5130
S'left'
S' wall'
tp5132
a(g5130
S'right'
S' wall'
tp5133
aa(lp5134
(S'travel'
S'steps'
S' 1'
tp5135
aa(lp5136
(S'verify'
S'front'
S' blue hallway'
tp5137
a(S'travel'
S''
S''
tp5138
a(S'verify'
S'left'
S' flower hallway'
tp5139
a(S'travel'
S''
S''
tp5140
aa(lp5141
(S'travel'
S'steps'
S' 2'
tp5142
a(S'verify'
S'side'
S' concrete hallway'
tp5143
aa(lp5144
(S'travel'
S''
S''
tp5145
a(S'verify'
S'front'
S' blue hallway'
tp5146
aa(lp5147
(S'travel'
S''
S''
tp5148
a(S'verify'
S'right'
S' hallway'
tp5149
a(S'turn'
S'right'
S''
tp5150
aa(lp5151
(S'verify'
S'front'
S' yellow hallway'
tp5152
a(S'travel'
S'steps'
S' 2'
tp5153
a(S'verify'
S'side'
S' gravel hallway'
tp5154
aa(lp5155
(S'turn'
S'right'
S''
tp5156
aa(lp5157
(S'turn'
S'right'
S''
tp5158
aa(lp5159
(S'verify'
p5160
S'front'
S' wood hallway'
tp5161
a(g5160
S'back'
S' wood hallway'
tp5162
a(g5160
S'left'
S' concrete hallway'
tp5163
aa(lp5164
(S'turn'
S''
S''
tp5165
a(S'verify'
p5166
S'front'
S' brick hallway'
tp5167
a(g5166
S'front'
S' lamp'
tp5168
aa(lp5169
(S'turn'
S''
S''
tp5170
a(S'verify'
p5171
S'left'
S' wall'
tp5172
a(g5171
S'back'
S' wall'
tp5173
aa(lp5174
(S'travel'
S''
S''
tp5175
a(S'verify'
p5176
S'front'
S' wall'
tp5177
a(g5176
S'right'
S' wall'
tp5178
aa(lp5179
(S'turn'
S'left'
S''
tp5180
aa(lp5181
(S'travel'
S'steps'
S' 3'
tp5182
aa(lp5183
(S'turn'
S'right'
S''
tp5184
aa(lp5185
(S'verify'
S'at'
S' sofa'
tp5186
aa(lp5187
(S'turn'
S'left'
S''
tp5188
a(S'travel'
S''
S''
tp5189
a(S'verify'
S'front'
S' wall'
tp5190
aa(lp5191
(S'turn'
S''
S''
tp5192
aa(lp5193
(S'travel'
S''
S''
tp5194
a(S'verify'
S'front'
S' wall'
tp5195
aa(lp5196
(S'travel'
S'steps'
S' 1'
tp5197
a(S'verify'
p5198
S'front'
S' wall'
tp5199
a(g5198
S'left'
S' wall'
tp5200
aa(lp5201
(S'turn'
S'right'
S''
tp5202
a(S'verify'
S'front'
S' brick hallway'
tp5203
aa(lp5204
(S'turn'
S'right'
S''
tp5205
aa(lp5206
(S'travel'
S'steps'
S' 1'
tp5207
a(S'verify'
S'side'
S' brick hallway'
tp5208
aa(lp5209
(S'travel'
S'steps'
S' 1'
tp5210
a(S'turn'
S'right'
S''
tp5211
aa(lp5212
(S'turn'
S'left'
S''
tp5213
a(S'travel'
S''
S''
tp5214
a(S'verify'
S'at'
S' easel'
tp5215
aa(lp5216
(S'turn'
S'left'
S''
tp5217
aa(lp5218
(S'travel'
S'steps'
S' 3'
tp5219
aa(lp5220
(S'travel'
S''
S''
tp5221
a(S'verify'
S'front'
S' wall'
tp5222
aa(lp5223
(S'turn'
S''
S''
tp5224
a(S'verify'
S'back'
S' wall'
tp5225
a(S'turn'
S'left'
S''
tp5226
aa(lp5227
(S'turn'
S''
S''
tp5228
a(S'verify'
S'front'
S' barstool'
tp5229
aa(lp5230
(S'turn'
S''
S''
tp5231
a(S'verify'
S'front'
S' chair'
tp5232
a(S'travel'
S''
S''
tp5233
a(S'verify'
S'back'
S' chair'
tp5234
aa(lp5235
(S'verify'
S'front'
S' hatrack'
tp5236
a(S'travel'
S'steps'
S' 3'
tp5237
a(S'verify'
p5238
S'back'
S' hatrack'
tp5239
a(g5238
S'front'
S' grass hallway'
tp5240
a(g5238
S'side'
S' yellow hallway'
tp5241
aa(lp5242
(S'verify'
S'front'
S' flower hallway'
tp5243
a(S'travel'
S'steps'
S' 2'
tp5244
a(S'verify'
S'side'
S' brick hallway'
tp5245
aa(lp5246
(S'travel'
S'steps'
S' 2'
tp5247
aa(lp5248
(S'turn'
S''
S''
tp5249
a(S'verify'
p5250
S'right'
S' wall'
tp5251
a(g5250
S'back'
S' wall'
tp5252
aa(lp5253
(S'turn'
S'left'
S''
tp5254
aa(lp5255
(S'turn'
S''
S''
tp5256
a(S'verify'
p5257
S'back'
S' wall'
tp5258
a(g5257
S'front'
S' hatrack'
tp5259
a(S'travel'
S''
S''
tp5260
a(S'verify'
S'back'
S' hatrack'
tp5261
aa(lp5262
(S'turn'
S'right'
S''
tp5263
aa(lp5264
(g37
S''
S''
tp5265
aa(lp5266
(g37
S''
S''
tp5267
aa(lp5268
(S'turn'
S'left'
S''
tp5269
aa(lp5270
(S'travel'
S''
S''
tp5271
a(S'verify'
S'side'
S' flower hallway'
tp5272
a(S'turn'
S'right'
S''
tp5273
aa(lp5274
(S'travel'
S'steps'
S' 1'
tp5275
a(S'verify'
S'side'
S' blue hallway'
tp5276
aa(lp5277
(S'travel'
S'steps'
S' 4'
tp5278
aa(lp5279
(S'turn'
S'right'
S''
tp5280
a(S'travel'
S'steps'
S' 2'
tp5281
aa(lp5282
(S'turn'
S''
S''
tp5283
a(S'verify'
S'front'
S' brick hallway'
tp5284
aa(lp5285
(S'turn'
S'right'
S''
tp5286
a(S'verify'
S'front'
S' gravel hallway'
tp5287
aa(lp5288
(S'travel'
S'steps'
S' 3'
tp5289
aa(lp5290
(S'verify'
p5291
S'front'
S' sofa'
tp5292
a(g5291
S'right'
S' chair'
tp5293
aa(lp5294
(S'travel'
S'steps'
S' 1'
tp5295
aa(lp5296
(S'turn'
S'right'
S''
tp5297
a(S'travel'
S'steps'
S' 1'
tp5298
aa(lp5299
(S'turn'
S''
S''
tp5300
a(S'verify'
S'front'
S' chair'
tp5301
aa(lp5302
(S'turn'
S'right'
S''
tp5303
aa(lp5304
(S'travel'
S'steps'
S' 3'
tp5305
aa(lp5306
(S'verify'
p5307
S'left'
S' flower hallway'
tp5308
a(g5307
S'right'
S' flower hallway'
tp5309
aa(lp5310
(S'travel'
S''
S''
tp5311
a(S'verify'
S'side'
S' gravel hallway'
tp5312
a(S'turn'
S'right'
S''
tp5313
aa(lp5314
(S'turn'
S'left'
S''
tp5315
aa(lp5316
(S'turn'
S'right'
S''
tp5317
aa(lp5318
(S'verify'
S'front'
S' wall'
tp5319
aa(lp5320
(S'travel'
S''
S''
tp5321
a(S'verify'
S'right'
S' concrete hallway'
tp5322
aa(lp5323
(S'travel'
S'steps'
S' 2'
tp5324
a(S'verify'
S'side'
S' blue hallway'
tp5325
aa(lp5326
(S'turn'
S'left'
S''
tp5327
aa(lp5328
(S'travel'
S'steps'
S' 1'
tp5329
a(S'verify'
S'side'
S' wood hallway'
tp5330
aa(lp5331
(S'travel'
S''
S''
tp5332
a(S'verify'
S'side'
S' flower hallway'
tp5333
a(S'turn'
S'left'
S''
tp5334
aa(lp5335
(S'verify'
S'front'
S' lamp'
tp5336
a(S'travel'
S''
S''
tp5337
aa(lp5338
(S'turn'
S''
S''
tp5339
a(S'verify'
S'right'
S' wall'
tp5340
aa(lp5341
(S'travel'
S''
S''
tp5342
aa(lp5343
(S'travel'
S''
S''
tp5344
a(S'verify'
S'right'
S' wall'
tp5345
aa(lp5346
(S'travel'
S''
S''
tp5347
a(S'verify'
S'side'
S' brick hallway'
tp5348
a(S'turn'
S'right'
S''
tp5349
aa(lp5350
(S'turn'
S'left'
S''
tp5351
aa(lp5352
(S'turn'
S''
S''
tp5353
a(S'verify'
S'back'
S' wall'
tp5354
aa(lp5355
(S'travel'
S'steps'
S' 1'
tp5356
a(S'verify'
S'at'
S' lamp'
tp5357
aa(lp5358
(S'travel'
S'steps'
S' 1'
tp5359
a(S'verify'
S'side'
S' blue hallway'
tp5360
aa(lp5361
(S'travel'
S'steps'
S' 1'
tp5362
aa(lp5363
(S'turn'
S'left'
S''
tp5364
aa(lp5365
(S'travel'
S'steps'
S' 1'
tp5366
aa(lp5367
(g37
S''
S''
tp5368
aa(lp5369
(S'verify'
S'front'
S' chair'
tp5370
a(S'travel'
S''
S''
tp5371
a(S'verify'
p5372
S'at'
S' barstool'
tp5373
a(g5372
S'back'
S' chair'
tp5374
aa(lp5375
(S'turn'
S''
S''
tp5376
a(S'verify'
S'back'
S' wall'
tp5377
aa(lp5378
(S'turn'
S''
S''
tp5379
a(S'verify'
S'front'
S' wood hallway'
tp5380
aa(lp5381
(S'travel'
S'steps'
S' 2'
tp5382
a(S'verify'
S'front'
S' wall'
tp5383
aa(lp5384
(S'turn'
S'left'
S''
tp5385
a(S'verify'
p5386
S'front'
S' brick hallway'
tp5387
a(g5386
S'front'
S' lamp'
tp5388
aa(lp5389
(S'travel'
S''
S''
tp5390
a(S'verify'
p5391
S'at'
S' easel'
tp5392
a(g5391
S'side'
S' brick hallway'
tp5393
aa(lp5394
(S'travel'
S''
S''
tp5395
a(S'verify'
S'right'
S' hallway'
tp5396
aa(lp5397
(S'turn'
S'right'
S''
tp5398
aa(lp5399
(S'turn'
S''
S''
tp5400
a(S'verify'
S'back'
S' easel'
tp5401
aa(lp5402
(S'turn'
S'left'
S''
tp5403
aa(lp5404
(S'travel'
S'steps'
S' 1'
tp5405
aa(lp5406
(S'turn'
S'left'
S''
tp5407
a(S'verify'
S'front'
S' brick hallway'
tp5408
aa(lp5409
(S'turn'
S'right'
S''
tp5410
a(S'verify'
S'front'
S' gravel hallway'
tp5411
a(S'travel'
S''
S''
tp5412
a(S'verify'
S'at'
S' easel'
tp5413
aa(lp5414
(S'turn'
S''
S''
tp5415
aa(lp5416
(S'travel'
S'steps'
S' 2'
tp5417
a(S'verify'
S'at'
S' easel'
tp5418
aa(lp5419
(S'travel'
S''
S''
tp5420
a(S'verify'
S'right'
S' flower hallway'
tp5421
a(S'turn'
S'right'
S''
tp5422
aa(lp5423
(S'turn'
S'right'
S''
tp5424
aa(lp5425
(S'turn'
S'left'
S''
tp5426
aa(lp5427
(S'turn'
S''
S''
tp5428
a(S'travel'
S'steps'
S' 1'
tp5429
a(S'turn'
S'right'
S''
tp5430
aa(lp5431
(S'travel'
S''
S''
tp5432
a(S'verify'
S'side'
S' concrete hallway'
tp5433
a(S'turn'
S'left'
S''
tp5434
aa(lp5435
(S'turn'
S''
S''
tp5436
a(S'verify'
p5437
S'front'
S' gravel hallway'
tp5438
a(g5437
S'front'
S' easel'
tp5439
aa(lp5440
(S'travel'
S'steps'
S' 1'
tp5441
aa(lp5442
(S'turn'
S'right'
S''
tp5443
aa(lp5444
(S'turn'
S'left'
S''
tp5445
aa(lp5446
(S'travel'
S''
S''
tp5447
a(S'verify'
S'side'
S' flower hallway'
tp5448
a(S'turn'
S'left'
S''
tp5449
aa(lp5450
(S'travel'
S''
S''
tp5451
a(S'verify'
S'side'
S' flower hallway'
tp5452
aa(lp5453
(S'turn'
S''
S''
tp5454
a(S'verify'
S'back'
S' wall'
tp5455
a(S'turn'
S'left'
S''
tp5456
a(S'travel'
S'steps'
S' 2'
tp5457
a(S'verify'
S'side'
S' gravel hallway'
tp5458
aa(lp5459
(S'travel'
S'steps'
S' 3'
tp5460
aa(lp5461
(S'verify'
p5462
S'front'
S' wall'
tp5463
a(g5462
S'left'
S' wall'
tp5464
a(g5462
S'right'
S' wall'
tp5465
aa(lp5466
(S'travel'
S''
S''
tp5467
a(S'verify'
p5468
S'front'
S' fish wall'
tp5469
a(g5468
S'front'
S' yellow hallway'
tp5470
aa(lp5471
(S'travel'
S'steps'
S' 1'
tp5472
aa(lp5473
(S'travel'
S'steps'
S' 2'
tp5474
aa(lp5475
(S'turn'
S'right'
S''
tp5476
aa(lp5477
(S'travel'
S''
S''
tp5478
aa(lp5479
(S'travel'
S''
S''
tp5480
a(S'verify'
S'side'
S' flower hallway'
tp5481
aa(lp5482
(S'turn'
S'right'
S''
tp5483
aa(lp5484
(S'turn'
S'left'
S''
tp5485
a(S'travel'
S'steps'
S' 1'
tp5486
aa(lp5487
(S'verify'
p5488
S'right'
S' concrete hallway'
tp5489
a(g5488
S'right'
S' sofa'
tp5490
aa(lp5491
(S'turn'
S''
S''
tp5492
a(S'verify'
p5493
S'front'
S' flower hallway'
tp5494
a(g5493
S'back'
S' sofa'
tp5495
aa(lp5496
(S'turn'
S'right'
S''
tp5497
aa(lp5498
(S'turn'
S''
S''
tp5499
a(S'verify'
S'right'
S' easel'
tp5500
aa(lp5501
(S'turn'
S'left'
S''
tp5502
aa(lp5503
(S'verify'
S'side'
S' grass hallway'
tp5504
a(S'turn'
S'right'
S''
tp5505
aa(lp5506
(S'verify'
S'front'
S' gravel hallway'
tp5507
a(S'travel'
S''
S''
tp5508
a(S'verify'
S'front'
S' wall'
tp5509
aa(lp5510
(S'travel'
S''
S''
tp5511
a(S'verify'
S'front'
S' wall'
tp5512
a(S'turn'
S'left'
S''
tp5513
aa(lp5514
(S'verify'
S'front'
S' blue hallway'
tp5515
aa(lp5516
(S'travel'
S'steps'
S' 1'
tp5517
aa(lp5518
(S'turn'
S'left'
S''
tp5519
aa(lp5520
(S'travel'
S'steps'
S' 1'
tp5521
aa(lp5522
(S'travel'
S'steps'
S' 1'
tp5523
a(S'verify'
S'front'
S' wall'
tp5524
aa(lp5525
(S'turn'
S''
S''
tp5526
a(S'verify'
S'front'
S' gravel hallway'
tp5527
aa(lp5528
(S'verify'
S'side'
S' blue hallway'
tp5529
aa(lp5530
(S'turn'
S''
S''
tp5531
a(S'verify'
S'front'
S' hatrack'
tp5532
aa(lp5533
(S'travel'
S''
S''
tp5534
a(S'verify'
S'front'
S' wall'
tp5535
a(S'turn'
S'right'
S''
tp5536
aa(lp5537
(S'verify'
S'at'
S' hatrack'
tp5538
aa(lp5539
(S'travel'
S'steps'
S' 1'
tp5540
a(S'verify'
S'at'
S' lamp'
tp5541
aa(lp5542
(S'travel'
S''
S''
tp5543
a(S'verify'
p5544
S'front'
S' wall'
tp5545
a(g5544
S'side'
S' blue hallway'
tp5546
aa(lp5547
(S'turn'
S''
S''
tp5548
a(S'travel'
S''
S''
tp5549
a(S'verify'
S'at'
S' barstool'
tp5550
aa(lp5551
(S'verify'
S'right'
S' gravel hallway'
tp5552
aa(lp5553
(S'travel'
S'steps'
S' 1'
tp5554
a(S'verify'
p5555
S'side'
S' gravel hallway'
tp5556
a(g5555
S'front'
S' yellow hallway'
tp5557
aa(lp5558
(S'verify'
S'at'
S' hatrack'
tp5559
aa(lp5560
(S'verify'
S'right'
S' concrete hallway'
tp5561
aa(lp5562
(S'turn'
S''
S''
tp5563
a(S'verify'
p5564
S'back'
S' wall'
tp5565
a(g5564
S'front'
S' yellow hallway'
tp5566
a(S'travel'
S'steps'
S' 2'
tp5567
a(S'verify'
S'side'
S' gravel hallway'
tp5568
aa(lp5569
(S'turn'
S'left'
S''
tp5570
aa(lp5571
(g37
S''
S''
tp5572
aa(lp5573
(S'turn'
S''
S''
tp5574
a(S'verify'
p5575
S'front'
S' blue hallway'
tp5576
a(g5575
S'back'
S' sofa'
tp5577
aa(lp5578
(S'verify'
S'front'
S' easel'
tp5579
a(S'travel'
S'steps'
S' 2'
tp5580
a(S'verify'
S'back'
S' easel'
tp5581
aa(lp5582
(S'turn'
S'left'
S''
tp5583
aa(lp5584
(S'turn'
S''
S''
tp5585
a(S'verify'
S'left'
S' wall'
tp5586
aa(lp5587
(S'verify'
S'front'
S' easel'
tp5588
aa(lp5589
(S'verify'
S'front'
S' blue hallway'
tp5590
a(S'travel'
S''
S''
tp5591
aa(lp5592
(S'travel'
S'steps'
S' 4'
tp5593
aa(lp5594
(S'travel'
S'steps'
S' 2'
tp5595
a(S'verify'
S'side'
S' concrete hallway'
tp5596
aa(lp5597
(S'travel'
S''
S''
tp5598
a(S'verify'
p5599
S'front'
S' wall'
tp5600
a(g5599
S'left'
S' wall'
tp5601
a(g5599
S'right'
S' wall'
tp5602
aa(lp5603
(S'verify'
S'front'
S' grass hallway'
tp5604
a(S'travel'
S''
S''
tp5605
a(S'verify'
p5606
S'front'
S' wall'
tp5607
a(g5606
S'right'
S' yellow hallway'
tp5608
aa(lp5609
(S'turn'
S'right'
S''
tp5610
a(S'verify'
S'front'
S' wood hallway'
tp5611
aa(lp5612
(S'travel'
S''
S''
tp5613
a(S'verify'
p5614
S'front'
S' wall'
tp5615
a(g5614
S'left'
S' wall'
tp5616
a(S'turn'
S'right'
S''
tp5617
aa(lp5618
(S'turn'
S''
S''
tp5619
a(S'verify'
p5620
S'left'
S' gravel hallway'
tp5621
a(g5620
S'left'
S' easel'
tp5622
a(g5620
S'front'
S' yellow hallway'
tp5623
aa(lp5624
(S'turn'
S'left'
S''
tp5625
aa(lp5626
(g37
S''
S''
tp5627
aa(lp5628
(S'turn'
S'right'
S''
tp5629
a(S'verify'
S'front'
S' gravel hallway'
tp5630
aa(lp5631
(S'turn'
S'left'
S''
tp5632
aa(lp5633
(S'travel'
S'steps'
S' 1'
tp5634
aa(lp5635
(S'travel'
S''
S''
tp5636
a(S'verify'
S'side'
S' flower hallway'
tp5637
aa(lp5638
(S'travel'
S'steps'
S' 1'
tp5639
a(S'verify'
p5640
S'front'
S' wall'
tp5641
a(g5640
S'right'
p5642
S' wall'
p5643
tp5644
a(g5640
S'left'
S' wall'
p5645
tp5646
aa(lp5647
(S'travel'
S'steps'
S' 1'
tp5648
aa(lp5649
(S'verify'
S'front'
S' gravel hallway'
tp5650
a(S'travel'
S'steps'
S' 3'
tp5651
a(S'verify'
S'front'
S' wall'
tp5652
aa(lp5653
(S'travel'
S''
S''
tp5654
a(S'verify'
S'front'
S' fish wall'
tp5655
aa(lp5656
(S'travel'
S''
S''
tp5657
a(S'verify'
p5658
S'front'
S' wall'
tp5659
a(g5658
S'left'
S' grass hallway'
tp5660
aa(lp5661
(S'turn'
S'right'
S''
tp5662
a(S'verify'
S'front'
S' gravel hallway'
tp5663
aa(lp5664
(S'travel'
S'steps'
S' 1'
tp5665
aa(lp5666
(S'travel'
S''
S''
tp5667
a(S'verify'
S'at'
S' lamp'
tp5668
a(S'travel'
S'steps'
S' 1'
tp5669
aa(lp5670
(S'travel'
S''
S''
tp5671
a(S'verify'
S'at'
S' sofa'
tp5672
aa(lp5673
(S'travel'
S''
S''
tp5674
a(S'verify'
p5675
S'front'
S' wall'
tp5676
a(g5675
S'right'
S' wall'
tp5677
a(g5675
S'back'
S' yellow hallway'
tp5678
a(g5675
S'left'
S' grass hallway'
tp5679
aa(lp5680
(S'travel'
S'steps'
S' 1'
tp5681
aa(lp5682
(S'travel'
S''
S''
tp5683
a(S'verify'
p5684
S'front'
S' concrete hallway'
tp5685
a(g5684
S'back'
S' concrete hallway'
p5686
tp5687
a(g5684
S'at'
S' hatrack'
tp5688
aa(lp5689
(S'verify'
S'left'
S' sofa'
tp5690
aa(lp5691
(S'verify'
S'at'
S' hatrack'
tp5692
a(S'turn'
S'left'
S''
tp5693
a(S'travel'
S''
S''
tp5694
a(S'verify'
p5695
S'front'
S' wall'
tp5696
a(g5695
S'left'
S' wall'
tp5697
aa(lp5698
(S'verify'
p5699
S'front'
S' brick hallway'
tp5700
a(g5699
S'front'
S' lamp'
tp5701
a(S'travel'
S''
S''
tp5702
a(S'verify'
p5703
S'back'
S' lamp'
tp5704
a(g5703
S'at'
S' hatrack'
tp5705
aa(lp5706
(S'travel'
S'steps'
S' 1'
tp5707
aa(lp5708
(S'turn'
S'right'
S''
tp5709
aa(lp5710
(S'turn'
S''
S''
tp5711
a(S'verify'
S'front'
S' flower hallway'
tp5712
aa(lp5713
(S'travel'
S'steps'
S' 1'
tp5714
a(S'verify'
S'side'
S' concrete hallway'
tp5715
aa(lp5716
(S'turn'
S''
S''
tp5717
a(S'verify'
p5718
S'front'
S' blue hallway'
tp5719
a(g5718
S'front'
S' chair'
tp5720
a(S'travel'
S''
S''
tp5721
a(S'verify'
S'front'
S' wall'
tp5722
aa(lp5723
(S'turn'
S'right'
S''
tp5724
aa(lp5725
(S'travel'
S''
S''
tp5726
a(S'verify'
S'side'
S' flower hallway'
tp5727
aa(lp5728
(S'turn'
S''
S''
tp5729
a(S'verify'
p5730
S'back'
S' wall'
tp5731
a(g5730
S'at'
S' 3-intersection'
tp5732
aa(lp5733
(g37
S''
S''
tp5734
aa(lp5735
(S'verify'
S'front'
S' easel'
tp5736
a(S'travel'
S''
S''
tp5737
a(S'verify'
S'back'
S' easel'
tp5738
aa(lp5739
(S'travel'
S'steps'
S' 1'
tp5740
aa(lp5741
(S'verify'
p5742
S'front'
S' hatrack'
tp5743
a(g5742
S'left'
S' concrete hallway'
tp5744
aa(lp5745
(S'turn'
S''
S''
tp5746
a(S'verify'
S'front'
S' brick hallway'
tp5747
a(S'travel'
S''
S''
tp5748
a(S'verify'
S'side'
S' wood hallway'
tp5749
aa(lp5750
(S'turn'
S''
S''
tp5751
a(S'verify'
p5752
S'left'
S' blue hallway'
tp5753
a(g5752
S'right'
S' blue hallway'
tp5754
a(g5752
S'front'
S' hallway'
tp5755
a(g5752
S'back'
S' wall'
tp5756
aa(lp5757
(S'turn'
S''
S''
tp5758
a(S'verify'
S'front'
S' sofa'
tp5759
aa(lp5760
(S'travel'
S'steps'
S' 2'
tp5761
aa(lp5762
(S'turn'
S'left'
S''
tp5763
aa(lp5764
(S'turn'
S'left'
S''
tp5765
aa(lp5766
(S'turn'
S''
S''
tp5767
a(S'verify'
p5768
S'back'
S' wall'
tp5769
a(g5768
S'at'
S' 3-intersection'
tp5770
aa(lp5771
(S'verify'
p5772
S'left'
S' blue hallway'
tp5773
a(g5772
S'right'
S' blue hallway'
tp5774
a(g5772
S'front'
S' wall'
tp5775
aa(lp5776
(S'turn'
S'left'
S''
tp5777
aa(lp5778
(S'verify'
S'front'
S' brick hallway'
tp5779
a(S'travel'
S'steps'
S' 4'
tp5780
a(S'verify'
S'side'
S' wood hallway'
tp5781
aa(lp5782
(S'travel'
S''
S''
tp5783
a(S'verify'
S'right'
S' flower hallway'
tp5784
a(S'turn'
S'right'
S''
tp5785
aa(lp5786
(S'verify'
p5787
S'right'
S' brick hallway'
tp5788
a(g5787
S'left'
S' brick hallway'
tp5789
aa(lp5790
(S'travel'
S'steps'
S' 1'
tp5791
aa(lp5792
(S'verify'
p5793
S'front'
S' lamp'
tp5794
a(g5793
S'front'
S' hatrack'
tp5795
a(S'travel'
S''
S''
tp5796
a(S'verify'
p5797
S'back'
S' hatrack'
tp5798
a(g5797
S'back'
S' lamp'
tp5799
aa(lp5800
(S'verify'
S'left'
S' sofa'
tp5801
aa(lp5802
(S'turn'
S'left'
S''
tp5803
aa(lp5804
(S'travel'
S'steps'
S' 1'
tp5805
a(S'verify'
S'side'
S' grass hallway'
tp5806
aa(lp5807
(S'travel'
S'steps'
S' 1'
tp5808
aa(lp5809
(S'travel'
S''
S''
tp5810
a(S'verify'
S'side'
S' concrete hallway'
tp5811
aa(lp5812
(S'travel'
S'steps'
S' 2'
tp5813
a(S'verify'
S'side'
S' yellow hallway'
tp5814
aa(lp5815
(S'travel'
S'steps'
S' 1'
tp5816
a(S'verify'
S'at'
S' barstool'
tp5817
aa(lp5818
(S'travel'
S'steps'
S' 4'
tp5819
aa(lp5820
(S'verify'
S'front'
S' hatrack'
tp5821
aa(lp5822
(S'turn'
S'right'
S''
tp5823
aa(lp5824
(S'turn'
S'left'
S''
tp5825
a(S'verify'
S'front'
S' brick hallway'
tp5826
aa(lp5827
(S'verify'
S'front'
S' lamp'
tp5828
a(S'travel'
S'steps'
S' 3'
tp5829
a(S'verify'
S'back'
S' lamp'
tp5830
aa(lp5831
(S'turn'
S''
S''
tp5832
a(S'verify'
S'front'
S' easel'
tp5833
aa(lp5834
(S'turn'
S'left'
S''
tp5835
aa(lp5836
(S'turn'
S''
S''
tp5837
a(S'verify'
p5838
S'front'
S' gravel hallway'
tp5839
a(g5838
S'front'
S' easel'
tp5840
aa(lp5841
(S'turn'
S'left'
S''
tp5842
aa(lp5843
(S'travel'
S''
S''
tp5844
a(S'verify'
S'side'
S' flower hallway'
tp5845
a(S'turn'
S'left'
S''
tp5846
a(S'verify'
S'front'
S' flower hallway'
tp5847
aa(lp5848
(S'travel'
S'steps'
S' 4'
tp5849
aa(lp5850
(S'verify'
S'front'
S' grass hallway'
tp5851
a(S'travel'
S''
S''
tp5852
a(S'verify'
S'side'
S' yellow hallway'
tp5853
aa(lp5854
(S'travel'
S''
S''
tp5855
a(S'verify'
S'side'
S' wood hallway'
tp5856
a(S'turn'
S''
S''
tp5857
a(S'verify'
p5858
S'front'
S' wood hallway'
tp5859
a(g5858
S'front'
S' tower wall'
tp5860
aa(lp5861
(S'turn'
S'right'
S''
tp5862
aa(lp5863
(S'turn'
S''
S''
tp5864
a(S'verify'
S'front'
S' yellow hallway'
tp5865
aa(lp5866
(S'turn'
S'left'
S''
tp5867
aa(lp5868
(S'turn'
S'left'
S''
tp5869
aa(lp5870
(S'travel'
S'steps'
S' 1'
tp5871
a(S'verify'
S'side'
S' brick hallway'
tp5872
aa(lp5873
(S'travel'
S''
S''
tp5874
a(S'verify'
S'side'
S' yellow hallway'
tp5875
aa(lp5876
(S'turn'
S''
S''
tp5877
a(S'verify'
p5878
S'front'
S' gravel hallway'
tp5879
a(g5878
S'front'
S' easel'
tp5880
aa(lp5881
(S'travel'
S''
S''
tp5882
a(S'verify'
S'side'
S' hallway'
tp5883
a(S'turn'
S'right'
S''
tp5884
aa(lp5885
(S'turn'
S''
S''
tp5886
a(S'verify'
p5887
S'front'
S' brick hallway'
tp5888
a(g5887
S'front'
S' chair'
tp5889
aa(lp5890
(S'turn'
S''
S''
tp5891
a(S'verify'
S'front'
S' yellow hallway'
tp5892
a(S'travel'
S''
S''
tp5893
a(S'verify'
S'side'
S' flower hallway'
tp5894
aa(lp5895
(S'turn'
S'left'
S''
tp5896
aa(lp5897
(S'travel'
S''
S''
tp5898
a(S'verify'
p5899
S'at'
S' easel'
tp5900
a(g5899
S'side'
S' brick hallway'
tp5901
a(S'turn'
S'left'
S''
tp5902
aa(lp5903
(S'turn'
S''
S''
tp5904
a(S'verify'
S'front'
S' hatrack'
tp5905
aa(lp5906
(S'turn'
S'left'
S''
tp5907
aa(lp5908
(S'turn'
S''
S''
tp5909
a(S'verify'
S'left'
S' wall'
tp5910
aa(lp5911
(S'travel'
S''
S''
tp5912
a(S'verify'
S'front'
S' wall'
tp5913
a(S'turn'
S'left'
S''
tp5914
a(S'verify'
S'front'
S' easel'
tp5915
aa(lp5916
(S'turn'
S'left'
S''
tp5917
aa(lp5918
(S'travel'
S'steps'
S' 1'
tp5919
aa(lp5920
(S'travel'
S''
S''
tp5921
a(S'verify'
S'side'
S' flower hallway'
tp5922
a(S'turn'
S'left'
S''
tp5923
aa(lp5924
(S'turn'
S'right'
S''
tp5925
aa(lp5926
(S'travel'
S''
S''
tp5927
a(S'verify'
S'left'
S' flower hallway'
tp5928
a(S'travel'
S''
S''
tp5929
aa(lp5930
(S'travel'
S'steps'
S' 1'
tp5931
aa(lp5932
(S'verify'
S'front'
S' blue hallway'
tp5933
aa(lp5934
(S'travel'
S'steps'
S' 1'
tp5935
aa(lp5936
(S'verify'
S'left'
S' hatrack'
p5937
tp5938
aa(lp5939
(g37
S''
S''
tp5940
aa(lp5941
(S'turn'
S'right'
S''
tp5942
a(S'verify'
p5943
S'front'
S' blue hallway'
tp5944
a(g5943
S'front'
S' hatrack'
tp5945
a(S'travel'
S''
S''
tp5946
aa(lp5947
(S'travel'
S'steps'
S' 1'
tp5948
aa(lp5949
(S'verify'
S'right'
S' concrete hallway'
tp5950
aa(lp5951
(S'verify'
S'front'
S' blue hallway'
tp5952
a(S'travel'
S'steps'
S' 2'
tp5953
aa(lp5954
(S'turn'
S'left'
S''
tp5955
aa(lp5956
(S'turn'
S'left'
S''
tp5957
a(S'verify'
S'front'
S' brick hallway'
tp5958
a(S'travel'
S''
S''
tp5959
a(S'verify'
S'front'
S' butterfly wall'
tp5960
aa(lp5961
(S'verify'
S'back'
S' tower wall'
tp5962
aa(lp5963
(S'verify'
p5964
S'side'
S' concrete hallway'
tp5965
a(g5964
S'right'
S' butterfly wall'
tp5966
a(g5964
S'left'
S' tower wall'
tp5967
aa(lp5968
(S'turn'
S''
S''
tp5969
a(S'verify'
S'front'
S' easel'
tp5970
a(S'travel'
S''
S''
tp5971
a(S'verify'
S'at'
S' easel'
tp5972
aa(lp5973
(S'travel'
S'steps'
S' 1'
tp5974
a(S'verify'
S'side'
S' grass hallway'
tp5975
aa(lp5976
(S'turn'
S'right'
S''
tp5977
aa(lp5978
(S'travel'
S''
S''
tp5979
aa(lp5980
(S'travel'
S''
S''
tp5981
a(S'verify'
S'front'
S' wall'
tp5982
aa(lp5983
(S'travel'
S''
S''
tp5984
a(S'verify'
S'front'
S' flower hallway'
tp5985
aa(lp5986
(S'turn'
S'left'
S''
tp5987
aa(lp5988
(S'travel'
S''
S''
tp5989
a(S'verify'
p5990
S'left'
S' hallway'
tp5991
a(g5990
S'left'
S' fish wall'
tp5992
a(S'turn'
S'left'
S''
tp5993
aa(lp5994
(S'verify'
S'at'
S' hatrack'
tp5995
aa(lp5996
(S'turn'
S''
S''
tp5997
a(S'verify'
S'front'
S' brick hallway'
tp5998
aa(lp5999
(S'travel'
S'steps'
S' 1'
tp6000
aa(lp6001
(S'travel'
S'steps'
S' 1'
tp6002
aa(lp6003
(S'travel'
S''
S''
tp6004
a(S'verify'
S'side'
S' blue hallway'
tp6005
a(S'turn'
S'right'
S''
tp6006
a(S'verify'
S'front'
S' blue hallway'
tp6007
aa(lp6008
(S'turn'
S''
S''
tp6009
a(S'verify'
S'front'
S' flower hallway'
tp6010
aa(lp6011
(S'turn'
S'right'
S''
tp6012
aa(lp6013
(S'verify'
S'front'
S' chair'
tp6014
a(S'travel'
S''
S''
tp6015
a(S'verify'
S'back'
S' chair'
tp6016
aa(lp6017
(S'travel'
S''
S''
tp6018
a(S'verify'
p6019
S'front'
S' wall'
tp6020
a(g6019
S'left'
S' wall'
tp6021
a(g6019
S'right'
S' wall'
tp6022
a(g6019
S'back'
S' yellow hallway'
tp6023
a(g6019
S'back'
S' fish wall'
tp6024
aa(lp6025
(S'verify'
S'front'
S' flower hallway'
tp6026
a(S'travel'
S''
S''
tp6027
a(S'verify'
S'side'
S' blue hallway'
tp6028
aa(lp6029
(S'travel'
S'steps'
S' 1'
tp6030
a(S'verify'
S'side'
S' blue hallway'
tp6031
aa(lp6032
(S'travel'
S''
S''
tp6033
a(S'verify'
S'side'
S' flower hallway'
tp6034
a(S'travel'
S''
S''
tp6035
aa(lp6036
(S'turn'
S'left'
S''
tp6037
a(S'verify'
S'front'
S' blue hallway'
tp6038
aa(lp6039
(S'travel'
S'steps'
S' 1'
tp6040
aa(lp6041
(S'turn'
S'left'
S''
tp6042
a(S'verify'
S'front'
S' gravel hallway'
tp6043
aa(lp6044
(S'turn'
S''
S''
tp6045
a(S'verify'
S'front'
S' wood hallway'
tp6046
aa(lp6047
(S'travel'
S'steps'
S' 1'
tp6048
aa(lp6049
(S'turn'
S'right'
S''
tp6050
a(S'verify'
S'front'
S' grass hallway'
tp6051
aa(lp6052
(S'turn'
S'right'
S''
tp6053
aa(lp6054
(S'travel'
S''
S''
tp6055
a(S'verify'
S'front'
S' wall'
tp6056
a(S'turn'
S'left'
S''
tp6057
aa(lp6058
(S'turn'
S'right'
S''
tp6059
a(S'verify'
S'front'
S' easel'
tp6060
aa(lp6061
(S'turn'
S'left'
S''
tp6062
aa(lp6063
(S'travel'
S'steps'
S' 2'
tp6064
aa(lp6065
(S'travel'
S'steps'
S' 1'
tp6066
aa(lp6067
(S'travel'
S''
S''
tp6068
a(S'verify'
S'front'
S' wall'
tp6069
a(S'turn'
S'left'
S''
tp6070
a(S'verify'
S'front'
S' lamp'
tp6071
aa(lp6072
(S'turn'
S'right'
S''
tp6073
a(S'verify'
S'front'
S' brick hallway'
tp6074
a(S'travel'
S''
S''
tp6075
a(S'verify'
S'side'
S' flower hallway'
tp6076
aa(lp6077
(S'travel'
S''
S''
tp6078
a(S'verify'
p6079
S'front'
S' wall'
tp6080
a(g6079
S'right'
S' wall'
tp6081
a(S'turn'
S'left'
S''
tp6082
aa(lp6083
(S'verify'
p6084
S'front'
S' hatrack'
tp6085
a(g6084
S'front'
S' lamp'
tp6086
a(S'travel'
S''
S''
tp6087
a(S'verify'
p6088
S'back'
S' hatrack'
tp6089
a(g6088
S'back'
S' lamp'
tp6090
aa(lp6091
(S'verify'
p6092
S'left'
S' sofa'
tp6093
a(g6092
S'right'
S' barstool'
tp6094
aa(lp6095
(S'turn'
S''
S''
tp6096
a(S'verify'
S'front'
S' fish wall'
tp6097
aa(lp6098
(S'travel'
S'steps'
S' 1'
tp6099
a(S'verify'
S'side'
S' blue hallway'
tp6100
aa(lp6101
(S'verify'
S'side'
S' blue hallway'
tp6102
a(S'turn'
S'right'
S''
tp6103
aa(lp6104
(S'travel'
S''
S''
tp6105
a(S'verify'
S'side'
S' brick hallway'
tp6106
a(S'turn'
S'right'
S''
tp6107
a(S'verify'
S'front'
S' lamp'
tp6108
aa(lp6109
(S'turn'
S'left'
S''
tp6110
aa(lp6111
(S'travel'
S'steps'
S' 4'
tp6112
aa(lp6113
(S'travel'
S''
S''
tp6114
a(S'verify'
S'front'
S' wall'
tp6115
a(S'turn'
S'right'
S''
tp6116
aa(lp6117
(S'turn'
S''
S''
tp6118
a(S'verify'
S'front'
S' blue hallway'
tp6119
a(S'travel'
S''
S''
tp6120
a(S'verify'
S'side'
S' grass hallway'
tp6121
aa(lp6122
(S'travel'
S'steps'
S' 3'
tp6123
a(S'verify'
S'side'
S' concrete hallway'
p6124
tp6125
aa(lp6126
(S'turn'
S'left'
S''
tp6127
aa(lp6128
(S'travel'
S'steps'
S' 1'
tp6129
a(S'verify'
S'side'
S' concrete hallway'
tp6130
aa(lp6131
(S'turn'
S'left'
S''
tp6132
aa(lp6133
(S'travel'
S''
S''
tp6134
a(S'verify'
S'right'
S' hallway'
tp6135
aa(lp6136
(S'turn'
S''
S''
tp6137
a(S'verify'
S'front'
S' blue hallway'
tp6138
a(S'travel'
S''
S''
tp6139
a(S'verify'
S'side'
S' flower hallway'
tp6140
aa(lp6141
(S'turn'
S'right'
S''
tp6142
a(S'verify'
p6143
S'front'
S' blue hallway'
tp6144
a(g6143
S'front'
S' hatrack'
tp6145
a(S'travel'
S''
S''
tp6146
aa(lp6147
(S'turn'
S''
S''
tp6148
a(S'verify'
S'back'
S' wall'
tp6149
a(S'turn'
S'right'
S''
tp6150
aa(lp6151
(S'verify'
p6152
S'front'
S' wall'
tp6153
a(g6152
S'left'
S' wall'
tp6154
a(S'turn'
S'right'
S''
tp6155
aa(lp6156
(S'travel'
S''
S''
tp6157
a(S'verify'
S'at'
S' hatrack'
tp6158
aa(lp6159
(S'travel'
S'steps'
S' 1'
tp6160
a(S'verify'
S'side'
S' blue hallway'
tp6161
aa(lp6162
(S'travel'
S''
S''
tp6163
a(S'verify'
S'side'
S' flower hallway'
tp6164
aa(lp6165
(S'verify'
p6166
S'front'
S' hatrack'
tp6167
a(g6166
S'left'
S' concrete hallway'
tp6168
aa(lp6169
(S'turn'
S'right'
S''
tp6170
a(S'travel'
S'steps'
S' 1'
tp6171
aa(lp6172
(S'verify'
S'front'
S' fish wall'
tp6173
aa(lp6174
(S'turn'
S''
S''
tp6175
a(S'verify'
S'front'
S' hatrack'
tp6176
aa(lp6177
(S'verify'
p6178
S'front'
S' wall'
tp6179
a(g6178
S'right'
S' wall'
tp6180
a(S'turn'
S'left'
S''
tp6181
a(S'travel'
S''
S''
tp6182
a(S'verify'
p6183
S'front'
S' wall'
tp6184
a(g6183
S'left'
S' wall'
tp6185
a(g6183
S'at'
S' lamp'
tp6186
a(S'turn'
S'right'
S''
tp6187
aa(lp6188
(S'turn'
S'left'
S''
tp6189
a(S'verify'
S'front'
S' brick hallway'
tp6190
aa(lp6191
(S'verify'
S'front'
S' blue hallway'
tp6192
a(S'travel'
S''
S''
tp6193
a(S'verify'
S'side'
S' wood hallway'
tp6194
aa(lp6195
(S'travel'
S''
S''
tp6196
a(S'verify'
p6197
S'at'
S' chair'
tp6198
a(g6197
S'at'
S' hatrack'
tp6199
a(g6197
S'front'
S' concrete hallway'
tp6200
a(g6197
S'back'
S' concrete hallway'
tp6201
aa(lp6202
(S'turn'
S''
S''
tp6203
a(S'verify'
S'front'
S' flower hallway'
tp6204
a(S'travel'
S''
S''
tp6205
a(S'verify'
S'side'
S' brick hallway'
tp6206
aa(lp6207
(S'verify'
S'at'
S' hatrack'
tp6208
aa(lp6209
(S'travel'
S''
S''
tp6210
a(S'verify'
S'front'
S' wall'
tp6211
aa(lp6212
(S'turn'
S'left'
S''
tp6213
aa(lp6214
(S'verify'
S'front'
S' flower hallway'
tp6215
a(S'travel'
S''
S''
tp6216
a(S'turn'
S''
S''
tp6217
a(S'travel'
S''
S''
tp6218
a(S'verify'
p6219
S'front'
S' wall'
tp6220
a(g6219
S'left'
S' wall'
tp6221
a(g6219
S'right'
S' wall'
tp6222
aa(lp6223
(g37
S''
S''
tp6224
aa(lp6225
(S'turn'
S'right'
S''
tp6226
a(S'verify'
S'front'
S' gravel hallway'
tp6227
aa(lp6228
(S'verify'
S'front'
S' tower wall'
tp6229
aa(lp6230
(S'travel'
S'steps'
S' 1'
tp6231
a(S'verify'
S'side'
S' blue hallway'
tp6232
aa(lp6233
(S'turn'
S''
S''
tp6234
a(S'verify'
S'left'
S' wall'
tp6235
aa(lp6236
(S'travel'
S'steps'
S' 1'
tp6237
a(S'verify'
p6238
S'front'
S' wall'
tp6239
a(g6238
S'left'
S' wall'
tp6240
aa(lp6241
(S'turn'
S''
S''
tp6242
a(S'verify'
S'front'
S' hatrack'
tp6243
a(S'travel'
S''
S''
tp6244
a(S'verify'
S'at'
S' hatrack'
tp6245
aa(lp6246
(S'travel'
S''
S''
tp6247
a(S'verify'
S'front'
S' wall'
tp6248
aa(lp6249
(S'verify'
S'front'
S' lamp'
tp6250
a(S'travel'
S'steps'
S' 4'
tp6251
a(S'verify'
p6252
S'back'
S' lamp'
tp6253
a(g6252
S'side'
S' flower hallway'
tp6254
aa(lp6255
(S'verify'
p6256
S'at'
S' easel'
tp6257
a(g6256
S'front'
S' fish wall'
tp6258
a(g6256
S'front'
S' gravel hallway'
tp6259
aa(lp6260
(S'travel'
S''
S''
tp6261
a(S'verify'
S'side'
S' yellow hallway'
tp6262
aa(lp6263
(S'turn'
S'right'
S''
tp6264
a(S'travel'
S'steps'
S' 1'
tp6265
aa(lp6266
(S'turn'
S'right'
S''
tp6267
a(S'verify'
S'front'
S' blue hallway'
tp6268
a(S'travel'
S'steps'
S' 2'
tp6269
aa(lp6270
(S'travel'
S'steps'
S' 3'
tp6271
a(S'verify'
S'side'
S' blue hallway'
tp6272
aa(lp6273
(S'travel'
S''
S''
tp6274
aa(lp6275
(S'turn'
S'right'
S''
tp6276
aa(lp6277
(S'travel'
S''
S''
tp6278
a(S'verify'
S'at'
S' sofa'
tp6279
aa(lp6280
(S'travel'
S''
S''
tp6281
a(S'verify'
p6282
S'front'
S' wall'
tp6283
a(g6282
S'right'
S' wall'
tp6284
aa(lp6285
(S'travel'
S'steps'
S' 1'
tp6286
a(S'verify'
S'side'
S' blue hallway'
tp6287
aa(lp6288
(S'travel'
S''
S''
tp6289
a(S'verify'
S'at'
S' chair'
tp6290
a(S'travel'
S'steps'
S' 1'
tp6291
aa(lp6292
(S'travel'
S''
S''
tp6293
a(S'verify'
S'at'
S' easel'
tp6294
a(S'turn'
S'left'
S''
tp6295
aa(lp6296
(S'travel'
S'steps'
S' 2'
tp6297
aa(lp6298
(S'travel'
S'steps'
S' 3'
tp6299
a(S'verify'
S'front'
S' wall'
tp6300
aa(lp6301
(S'travel'
S''
S''
tp6302
a(S'verify'
p6303
S'front'
S' wall'
tp6304
a(g6303
S'left'
S' wall'
tp6305
a(g6303
S'right'
S' wall'
tp6306
a(g6303
S'back'
S' yellow hallway'
tp6307
a(g6303
S'back'
S' fish wall'
tp6308
aa(lp6309
(S'travel'
S'steps'
S' 1'
tp6310
aa(lp6311
(S'travel'
S''
S''
tp6312
a(S'verify'
S'at'
S' hatrack'
tp6313
a(S'turn'
S'right'
S''
tp6314
aa(lp6315
(S'travel'
S''
S''
tp6316
a(S'verify'
S'side'
S' flower hallway'
tp6317
a(S'turn'
S'left'
S''
tp6318
aa(lp6319
(S'travel'
S'steps'
S' 5'
p6320
tp6321
aa(lp6322
(S'turn'
S'left'
S''
tp6323
aa(lp6324
(S'turn'
S''
S''
tp6325
a(S'verify'
p6326
S'back'
S' wall'
tp6327
a(g6326
S'at'
S' 3-intersection'
tp6328
aa(lp6329
(S'turn'
S'left'
S''
tp6330
a(S'verify'
S'front'
S' flower hallway'
tp6331
aa(lp6332
(S'travel'
S'steps'
S' 1'
tp6333
a(S'turn'
S'right'
S''
tp6334
aa(lp6335
(S'verify'
S'front'
S' blue hallway'
tp6336
a(S'travel'
S''
S''
tp6337
a(S'verify'
p6338
S'side'
S' grass hallway'
tp6339
a(g6338
S'front'
S' wall'
tp6340
aa(lp6341
(S'turn'
S''
S''
tp6342
a(S'verify'
S'left'
S' wall'
tp6343
aa(lp6344
(S'travel'
S'steps'
S' 1'
tp6345
aa(lp6346
(S'turn'
S''
S''
tp6347
a(S'verify'
S'back'
S' sofa'
tp6348
aa(lp6349
(S'turn'
S'right'
S''
tp6350
aa(lp6351
(S'travel'
S'steps'
S' 2'
tp6352
aa(lp6353
(S'travel'
S'steps'
S' 2'
tp6354
aa(lp6355
(S'turn'
S'right'
S''
tp6356
a(S'verify'
S'front'
S' flower hallway'
tp6357
aa(lp6358
(S'turn'
S'right'
S''
tp6359
aa(lp6360
(S'travel'
S''
S''
tp6361
a(S'verify'
S'at'
S' hatrack'
tp6362
a(S'turn'
S'right'
S''
tp6363
a(S'verify'
S'front'
S' blue hallway'
tp6364
aa(lp6365
(S'turn'
S'left'
S''
tp6366
aa(lp6367
(S'turn'
S'right'
S''
tp6368
aa(lp6369
(S'turn'
S''
S''
tp6370
a(S'verify'
S'front'
S' sofa'
tp6371
aa(lp6372
(S'verify'
S'front'
S' easel'
tp6373
aa(lp6374
(S'verify'
S'front'
S' brick hallway'
tp6375
a(S'travel'
S''
S''
tp6376
aa(lp6377
(S'travel'
S'steps'
S' 3'
tp6378
aa(lp6379
(S'verify'
S'front'
S' lamp'
tp6380
a(S'travel'
S''
S''
tp6381
a(S'verify'
S'back'
S' lamp'
tp6382
aa(lp6383
(S'travel'
S''
S''
tp6384
a(S'verify'
p6385
S'front'
S' blue hallway'
tp6386
a(g6385
S'side'
S' flower hallway'
tp6387
aa(lp6388
(S'turn'
S'left'
S''
tp6389
a(S'verify'
S'front'
S' wood hallway'
tp6390
aa(lp6391
(S'travel'
S''
S''
tp6392
a(S'verify'
S'left'
S' flower hallway'
tp6393
a(S'turn'
S'left'
S''
tp6394
aa(lp6395
(S'travel'
S'steps'
S' 1'
tp6396
aa(lp6397
(S'turn'
S'right'
S''
tp6398
a(S'travel'
S'steps'
S' 1'
tp6399
aa(lp6400
(S'travel'
S''
S''
tp6401
a(S'verify'
S'side'
S' blue hallway'
tp6402
a(S'turn'
S'right'
S''
tp6403
aa(lp6404
(S'travel'
S''
S''
tp6405
a(S'verify'
S'at'
S' chair'
tp6406
a(S'travel'
S'steps'
S' 1'
tp6407
aa(lp6408
(S'turn'
S'right'
S''
tp6409
aa(lp6410
(S'verify'
S'side'
S' flower hallway'
tp6411
a(S'turn'
S'right'
S''
tp6412
aa(lp6413
(S'verify'
p6414
S'front'
S' blue hallway'
tp6415
a(g6414
S'front'
S' chair'
tp6416
a(S'travel'
S''
S''
tp6417
a(S'verify'
S'at'
S' chair'
tp6418
a(S'travel'
S'steps'
S' 1'
tp6419
aa(lp6420
(S'turn'
S''
S''
tp6421
a(S'verify'
S'front'
S' yellow hallway'
tp6422
a(S'travel'
S'steps'
S' 1'
tp6423
aa(lp6424
(S'verify'
S'at'
S' hatrack'
tp6425
aa(lp6426
(S'travel'
S''
S''
tp6427
a(S'verify'
p6428
S'front'
S' blue hallway'
tp6429
a(g6428
S'back'
S' blue hallway'
tp6430
aa(lp6431
(S'turn'
S'left'
S''
tp6432
a(S'verify'
p6433
S'front'
S' yellow hallway'
tp6434
a(g6433
S'front'
S' hatrack'
tp6435
a(S'travel'
S''
S''
tp6436
a(S'verify'
p6437
S'front'
S' wall'
tp6438
a(g6437
S'back'
S' hatrack'
tp6439
aa(lp6440
(S'turn'
S'right'
S''
tp6441
aa(lp6442
(S'turn'
S'right'
S''
tp6443
aa(lp6444
(S'turn'
S''
S''
tp6445
a(S'verify'
S'front'
S' hatrack'
tp6446
aa(lp6447
(S'turn'
S''
S''
tp6448
a(S'verify'
S'front'
S' chair'
tp6449
aa(lp6450
(S'turn'
S''
S''
tp6451
a(S'travel'
S''
S''
tp6452
aa(lp6453
(S'travel'
S'steps'
S' 3'
tp6454
a(S'verify'
p6455
S'side'
S' flower hallway'
tp6456
a(g6455
S'at'
S' 3-intersection'
tp6457
aa(lp6458
(S'travel'
S''
S''
tp6459
a(S'verify'
S'side'
S' blue hallway'
tp6460
a(S'turn'
S'left'
S''
tp6461
aa(lp6462
(S'travel'
S''
S''
tp6463
a(S'verify'
S'side'
S' yellow hallway'
tp6464
aa(lp6465
(S'turn'
S''
S''
tp6466
a(S'verify'
S'front'
S' flower hallway'
tp6467
a(S'travel'
S''
S''
tp6468
a(S'verify'
S'side'
S' brick hallway'
tp6469
aa(lp6470
(S'turn'
S'right'
S''
tp6471
aa(lp6472
(S'turn'
S''
S''
tp6473
a(S'verify'
p6474
S'front'
S' wood hallway'
tp6475
a(g6474
S'back'
S' hatrack'
tp6476
aa(lp6477
(S'travel'
S'steps'
S' 1'
tp6478
aa(lp6479
(S'turn'
S'left'
S''
tp6480
aa(lp6481
(S'turn'
S''
S''
tp6482
a(S'verify'
S'front'
S' hatrack'
tp6483
a(S'travel'
S''
S''
tp6484
a(S'verify'
S'at'
S' hatrack'
tp6485
aa(lp6486
(S'turn'
S'left'
S''
tp6487
aa(lp6488
(S'turn'
S''
S''
tp6489
a(S'verify'
S'front'
S' grass hallway'
tp6490
a(S'travel'
S''
S''
tp6491
a(S'verify'
S'side'
S' blue hallway'
tp6492
aa(lp6493
(S'turn'
S''
S''
tp6494
a(S'verify'
S'left'
S' wall'
tp6495
aa(lp6496
(S'travel'
S''
S''
tp6497
a(S'verify'
S'front'
S' flower hallway'
tp6498
aa(lp6499
(S'turn'
S'left'
S''
tp6500
a(S'verify'
S'front'
S' gravel hallway'
tp6501
a(S'travel'
S'steps'
S' 1'
tp6502
aa(lp6503
(S'travel'
S'steps'
S' 1'
tp6504
aa(lp6505
(S'travel'
S'steps'
S' 1'
tp6506
aa(lp6507
(S'travel'
S'steps'
S' 1'
tp6508
aa(lp6509
(S'travel'
S'steps'
S' 1'
tp6510
aa(lp6511
(S'turn'
S'left'
S''
tp6512
aa(lp6513
(S'turn'
S''
S''
tp6514
a(S'verify'
S'front'
S' flower hallway'
tp6515
aa(lp6516
(S'turn'
S'right'
S''
tp6517
aa(lp6518
(S'turn'
S'left'
S''
tp6519
aa(lp6520
(S'turn'
S'right'
S''
tp6521
a(S'verify'
S'front'
S' brick hallway'
tp6522
a(S'travel'
S''
S''
tp6523
a(S'verify'
S'at'
S' lamp'
tp6524
a(S'travel'
S'steps'
S' 2'
tp6525
aa(lp6526
(S'travel'
S''
S''
tp6527
aa(lp6528
(S'travel'
S'steps'
S' 1'
tp6529
aa(lp6530
(S'travel'
S''
S''
tp6531
a(S'verify'
p6532
S'front'
S' wall'
tp6533
a(g6532
S'left'
S' wall'
tp6534
aa(lp6535
(S'travel'
S''
S''
tp6536
a(S'verify'
S'right'
S' hallway'
tp6537
a(S'turn'
S'right'
S''
tp6538
aa(lp6539
(S'turn'
S'right'
S''
tp6540
aa(lp6541
(S'travel'
S''
S''
tp6542
aa(lp6543
(S'travel'
S'steps'
S' 2'
tp6544
aa(lp6545
(S'travel'
S'steps'
S' 2'
tp6546
aa(lp6547
(S'verify'
S'front'
S' yellow hallway'
tp6548
a(S'travel'
S''
S''
tp6549
a(S'verify'
S'front'
S' wall'
tp6550
aa(lp6551
(S'turn'
S'right'
S''
tp6552
aa(lp6553
(g37
S''
S''
tp6554
aa(lp6555
(S'travel'
S'steps'
S' 1'
tp6556
a(S'verify'
p6557
S'left'
S' wall'
tp6558
a(g6557
S'front'
S' wall'
tp6559
a(S'turn'
S'right'
S''
tp6560
a(S'verify'
p6561
S'front'
S' blue hallway'
tp6562
a(g6561
S'front'
S' chair'
tp6563
aa(lp6564
(S'verify'
S'right'
S' barstool'
p6565
tp6566
aa(lp6567
(S'verify'
S'front'
S' chair'
tp6568
a(S'travel'
S''
S''
tp6569
a(S'verify'
p6570
S'back'
S' chair'
tp6571
a(g6570
S'side'
S' flower hallway'
tp6572
aa(lp6573
(S'verify'
S'at'
S' lamp'
tp6574
a(S'travel'
S'steps'
S' 1'
tp6575
aa(lp6576
(S'travel'
S'steps'
S' 2'
tp6577
a(S'verify'
S'side'
S' gravel hallway'
tp6578
aa(lp6579
(S'travel'
S'steps'
S' 1'
tp6580
a(S'verify'
S'side'
S' concrete hallway'
tp6581
aa(lp6582
(S'turn'
S''
S''
tp6583
aa(lp6584
(S'turn'
S''
S''
tp6585
a(S'verify'
S'front'
S' chair'
tp6586
a(S'travel'
S''
S''
tp6587
a(S'verify'
S'at'
S' chair'
tp6588
aa(lp6589
(S'travel'
S''
S''
tp6590
a(S'verify'
p6591
S'front'
S' wall'
tp6592
a(g6591
S'left'
S' wall'
tp6593
a(g6591
S'right'
S' wall'
tp6594
aa(lp6595
(S'turn'
S''
S''
tp6596
a(S'verify'
p6597
S'back'
S' wall'
tp6598
a(g6597
S'at'
S' 3-intersection'
tp6599
aa(lp6600
(S'travel'
S'steps'
S' 1'
tp6601
aa(lp6602
(S'turn'
S'right'
S''
tp6603
aa(lp6604
(S'turn'
S'left'
S''
tp6605
aa(lp6606
(S'turn'
S''
S''
tp6607
a(S'verify'
p6608
S'back'
S' wall'
tp6609
a(g6608
S'right'
S' wall'
tp6610
a(g6608
S'left'
S' wall'
tp6611
aa(lp6612
(S'turn'
S'left'
S''
tp6613
aa(lp6614
(S'turn'
S''
S''
tp6615
a(S'verify'
S'front'
S' brick hallway'
tp6616
a(S'travel'
S''
S''
tp6617
a(S'verify'
S'side'
S' blue hallway'
tp6618
aa(lp6619
(S'turn'
S''
S''
tp6620
a(S'verify'
p6621
S'front'
S' yellow hallway'
tp6622
a(g6621
S'front'
S' sofa'
tp6623
a(S'travel'
S'steps'
S' 3'
tp6624
a(S'verify'
S'back'
S' sofa'
tp6625
aa(lp6626
(S'travel'
S'steps'
S' 4'
tp6627
aa(lp6628
(S'verify'
S'back'
S' blue hallway'
tp6629
aa(lp6630
(S'turn'
S'left'
S''
tp6631
a(S'travel'
S'steps'
S' 4'
tp6632
aa(lp6633
(S'travel'
S'steps'
S' 1'
tp6634
a(S'verify'
p6635
S'front'
S' wall'
tp6636
a(g6635
S'left'
S' wall'
tp6637
aa(lp6638
(S'turn'
S'left'
S''
tp6639
aa(lp6640
(S'turn'
S''
S''
tp6641
a(S'verify'
S'back'
S' wall'
tp6642
a(S'turn'
S'right'
S''
tp6643
a(S'travel'
S''
S''
tp6644
a(S'verify'
p6645
S'front'
S' wall'
tp6646
a(g6645
S'left'
S' wall'
tp6647
aa(lp6648
(S'turn'
S''
S''
tp6649
a(S'verify'
p6650
S'front'
S' blue hallway'
tp6651
a(g6650
S'front'
S' sofa'
tp6652
aa(lp6653
(S'turn'
S''
S''
tp6654
a(S'verify'
p6655
S'left'
S' wall'
tp6656
a(g6655
S'right'
S' flower hallway'
tp6657
a(g6655
S'front'
S' blue hallway'
tp6658
aa(lp6659
(S'travel'
S'steps'
S' 1'
tp6660
aa(lp6661
(S'turn'
S'right'
S''
tp6662
aa(lp6663
(S'travel'
S''
S''
tp6664
a(S'verify'
S'left'
S' yellow hallway'
tp6665
aa(lp6666
(S'turn'
S''
S''
tp6667
a(S'verify'
p6668
S'front'
S' grass hallway'
tp6669
a(g6668
S'front'
S' hatrack'
tp6670
a(S'travel'
S'steps'
S' 3'
tp6671
a(S'verify'
p6672
S'back'
S' hatrack'
tp6673
a(g6672
S'side'
S' blue hallway'
tp6674
aa(lp6675
(S'travel'
S''
S''
tp6676
a(S'verify'
S'front'
S' wall'
tp6677
aa(lp6678
(S'travel'
S'steps'
S' 1'
tp6679
aa(lp6680
(S'verify'
S'front'
S' grass hallway'
tp6681
a(S'travel'
S''
S''
tp6682
aa(lp6683
(S'verify'
S'side'
S' gravel hallway'
tp6684
aa(lp6685
(S'turn'
S'left'
S''
tp6686
aa(lp6687
(S'turn'
S'left'
S''
tp6688
aa(lp6689
(S'turn'
S'right'
S''
tp6690
aa(lp6691
(S'turn'
S'right'
S''
tp6692
a(S'travel'
S''
S''
tp6693
a(S'verify'
S'at'
S' hatrack'
tp6694
aa(lp6695
(S'verify'
S'at'
S' chair'
tp6696
aa(lp6697
(S'turn'
S'left'
S''
tp6698
a(S'verify'
S'front'
S' easel'
tp6699
aa(lp6700
(S'turn'
S'left'
S''
tp6701
aa(lp6702
(S'verify'
p6703
S'left'
S' wall'
tp6704
a(g6703
S'right'
S' wall'
tp6705
a(g6703
S'front'
S' wall'
tp6706
a(g6703
S'back'
S' fish wall'
tp6707
aa(lp6708
(S'turn'
S''
S''
tp6709
a(S'verify'
S'front'
S' gravel hallway'
tp6710
a(S'travel'
S''
S''
tp6711
a(S'verify'
S'front'
S' wall'
tp6712
aa(lp6713
(S'verify'
S'right'
S' easel'
tp6714
aa(lp6715
(S'turn'
S''
S''
tp6716
a(S'verify'
S'front'
S' brick hallway'
tp6717
aa(lp6718
(S'travel'
S''
S''
tp6719
a(S'verify'
S'front'
S' wall'
tp6720
aa(lp6721
(S'turn'
S'right'
S''
tp6722
aa(lp6723
(S'turn'
S'right'
S''
tp6724
aa(lp6725
(S'travel'
S''
S''
tp6726
a(S'verify'
S'at'
S' chair'
tp6727
a(S'turn'
S'left'
S''
tp6728
a(S'verify'
S'front'
S' blue hallway'
tp6729
aa(lp6730
(S'turn'
S''
S''
tp6731
a(S'verify'
p6732
S'back'
S' wall'
tp6733
a(g6732
S'at'
S' 3-intersection'
tp6734
aa(lp6735
(S'verify'
S'front'
S' easel'
tp6736
a(S'travel'
S'steps'
S' 1'
tp6737
a(S'turn'
S'right'
S''
tp6738
aa(lp6739
(S'travel'
S'steps'
S' 1'
tp6740
aa(lp6741
(S'verify'
S'at'
S' lamp'
tp6742
aa(lp6743
(S'travel'
S'steps'
S' 3'
tp6744
aa(lp6745
(S'travel'
S''
S''
tp6746
a(S'verify'
S'side'
S' brick hallway'
tp6747
a(S'turn'
S'left'
S''
tp6748
aa(lp6749
(S'travel'
S''
S''
tp6750
a(S'verify'
S'front'
S' wall'
tp6751
a(S'turn'
S'left'
S''
tp6752
a(S'verify'
S'front'
S' easel'
tp6753
aa(lp6754
(S'travel'
S'steps'
S' 2'
tp6755
aa(lp6756
(S'travel'
S''
S''
tp6757
aa(lp6758
(S'travel'
S'steps'
S' 2'
tp6759
aa(lp6760
(S'turn'
S'right'
S''
tp6761
aa(lp6762
(S'travel'
S'steps'
S' 1'
tp6763
aa(lp6764
(S'turn'
S'right'
S''
tp6765
aa(lp6766
(S'travel'
S'steps'
S' 2'
tp6767
aa(lp6768
(S'turn'
S'right'
S''
tp6769
aa(lp6770
(S'verify'
S'front'
S' easel'
tp6771
aa(lp6772
(S'travel'
S'steps'
S' 1'
tp6773
aa(lp6774
(S'turn'
S'right'
S''
tp6775
aa(lp6776
(S'verify'
S'side'
S' gravel hallway'
p6777
tp6778
a(S'turn'
S'left'
S''
tp6779
a(S'travel'
S''
S''
tp6780
a(S'verify'
S'side'
S' yellow hallway'
tp6781
aa(lp6782
(S'verify'
S'side'
S' grass hallway'
tp6783
aa(lp6784
(S'travel'
S''
S''
tp6785
a(S'verify'
S'side'
S' flower hallway'
tp6786
a(S'travel'
S''
S''
tp6787
aa(lp6788
(S'turn'
S''
S''
tp6789
a(S'verify'
S'back'
S' wall'
tp6790
a(S'turn'
S'left'
S''
tp6791
aa(lp6792
(S'verify'
S'at'
S' easel'
tp6793
aa(lp6794
(S'travel'
S''
S''
tp6795
a(S'verify'
S'front'
S' flower hallway'
tp6796
aa(lp6797
(S'turn'
S'left'
S''
tp6798
aa(lp6799
(S'verify'
S'at'
S' chair'
tp6800
aa(lp6801
(S'travel'
S'steps'
S' 3'
tp6802
aa(lp6803
(S'turn'
S''
S''
tp6804
a(S'verify'
S'front'
S' easel'
tp6805
aa(lp6806
(S'turn'
S''
S''
tp6807
a(S'verify'
S'front'
S' chair'
tp6808
a(S'travel'
S''
S''
tp6809
a(S'verify'
S'at'
S' chair'
tp6810
aa(lp6811
(S'travel'
S''
S''
tp6812
a(S'verify'
S'at'
S' chair'
tp6813
aa(lp6814
(S'turn'
S'right'
S''
tp6815
aa(lp6816
(S'travel'
S''
S''
tp6817
a(S'verify'
S'side'
S' blue hallway'
tp6818
aa(lp6819
(S'turn'
S''
S''
tp6820
a(S'verify'
p6821
S'front'
S' wood hallway'
tp6822
a(g6821
S'front'
S' easel'
tp6823
aa(lp6824
(S'travel'
S''
S''
tp6825
a(S'verify'
S'front'
S' wall'
tp6826
aa(lp6827
(S'turn'
S''
S''
tp6828
a(S'verify'
p6829
S'back'
S' wall'
tp6830
a(g6829
S'at'
S' 3-intersection'
p6831
tp6832
aa(lp6833
(S'travel'
S'steps'
S' 1'
tp6834
aa(lp6835
(S'turn'
S'right'
S''
tp6836
a(S'verify'
S'front'
S' blue hallway'
tp6837
aa(lp6838
(S'verify'
S'left'
S' chair'
tp6839
aa(lp6840
(g37
S''
S''
tp6841
aa(lp6842
(S'turn'
S'right'
S''
tp6843
aa(lp6844
(S'travel'
S'steps'
S' 1'
tp6845
aa(lp6846
(S'turn'
S'left'
S''
tp6847
aa(lp6848
(S'verify'
S'front'
S' wall'
tp6849
a(S'turn'
S'right'
S''
tp6850
aa(lp6851
(S'travel'
S''
S''
tp6852
a(S'verify'
S'at'
S' lamp'
tp6853
a(S'travel'
S'steps'
S' 1'
tp6854
aa(lp6855
(S'travel'
S'steps'
S' 1'
tp6856
aa(lp6857
(S'verify'
S'at'
S' sofa'
tp6858
aa(lp6859
(S'verify'
S'side'
S' yellow hallway'
tp6860
aa(lp6861
(S'turn'
S'left'
S''
tp6862
aa(lp6863
(S'turn'
S'left'
S''
tp6864
aa(lp6865
(S'travel'
S'steps'
S' 3'
tp6866
aa(lp6867
(S'turn'
S'right'
S''
tp6868
a(S'verify'
S'front'
S' butterfly wall'
tp6869
aa(lp6870
(S'travel'
S'steps'
S' 1'
tp6871
a(S'verify'
S'side'
S' concrete hallway'
tp6872
aa(lp6873
(g37
S''
S''
tp6874
aa(lp6875
(S'travel'
S'steps'
S' 1'
tp6876
aa(lp6877
(g37
S''
S''
tp6878
aa(lp6879
(S'verify'
S'front'
S' concrete hallway'
tp6880
a(S'travel'
S''
S''
tp6881
a(S'verify'
p6882
S'front'
S' wall'
tp6883
a(g6882
S'left'
S' wall'
tp6884
a(g6882
S'right'
S' wall'
tp6885
aa(lp6886
(S'travel'
S''
S''
tp6887
a(S'verify'
S'at'
S' barstool'
tp6888
aa(lp6889
(S'turn'
S'right'
S''
tp6890
a(S'travel'
S''
S''
tp6891
a(S'verify'
p6892
S'front'
S' wall'
tp6893
a(g6892
S'right'
S' wall'
tp6894
a(g6892
S'left'
S' wall'
tp6895
aa(lp6896
(S'verify'
S'right'
S' concrete hallway'
tp6897
aa(lp6898
(S'travel'
S''
S''
tp6899
a(S'verify'
p6900
S'front'
S' wall'
tp6901
a(g6900
S'right'
S' wall'
tp6902
aa(lp6903
(S'travel'
S''
S''
tp6904
a(S'verify'
p6905
S'front'
S' wall'
tp6906
a(g6905
S'side'
S' blue hallway'
tp6907
aa(lp6908
(S'turn'
S'right'
S''
tp6909
aa(lp6910
(S'verify'
S'front'
S' blue hallway'
tp6911
a(S'travel'
S''
S''
tp6912
a(S'verify'
S'at'
S' chair'
tp6913
aa(lp6914
(S'travel'
S''
S''
tp6915
a(S'turn'
S'right'
S''
tp6916
aa(lp6917
(S'travel'
S'steps'
S' 1'
tp6918
a(S'verify'
S'at'
S' lamp'
tp6919
aa(lp6920
(S'travel'
S'steps'
S' 1'
tp6921
aa(lp6922
(S'turn'
S'right'
S''
tp6923
aa(lp6924
(S'turn'
S''
S''
tp6925
a(S'verify'
p6926
S'front'
S' brick hallway'
tp6927
a(g6926
S'front'
S' butterfly wall'
tp6928
aa(lp6929
(S'travel'
S'steps'
S' 1'
tp6930
aa(lp6931
(S'travel'
S''
S''
tp6932
a(S'verify'
S'right'
S' flower hallway'
tp6933
aa(lp6934
(S'turn'
S'right'
S''
tp6935
aa(lp6936
(g37
S''
S''
tp6937
aa(lp6938
(S'turn'
S''
S''
tp6939
a(S'verify'
p6940
S'back'
S' wall'
tp6941
a(g6940
S'left'
S' wall'
tp6942
a(g6940
S'right'
S' wall'
tp6943
aa(lp6944
(S'turn'
S''
S''
tp6945
a(S'verify'
S'back'
S' wall'
tp6946
a(S'travel'
S''
S''
tp6947
a(S'verify'
S'at'
S' hatrack'
tp6948
aa(lp6949
(S'turn'
S'left'
S''
tp6950
aa(lp6951
(S'verify'
S'at'
S' hatrack'
tp6952
aa(lp6953
(S'travel'
S''
S''
tp6954
a(S'verify'
S'side'
S' blue hallway'
tp6955
a(S'turn'
S'left'
S''
tp6956
a(S'verify'
S'front'
S' blue hallway'
tp6957
aa(lp6958
(S'verify'
p6959
S'front'
S' blue hallway'
tp6960
a(g6959
S'front'
S' chair'
tp6961
a(S'travel'
S''
S''
tp6962
a(S'verify'
S'at'
S' chair'
tp6963
a(S'turn'
S'right'
S''
tp6964
a(S'verify'
S'front'
S' barstool'
tp6965
aa(lp6966
(S'turn'
S''
S''
tp6967
a(S'verify'
p6968
S'front'
S' yellow hallway'
tp6969
a(g6968
S'left'
S' easel'
tp6970
a(g6968
S'left'
S' gravel hallway'
p6971
tp6972
aa(lp6973
(S'verify'
p6974
S'front'
S' wood hallway'
tp6975
a(g6974
S'back'
S' wood hallway'
tp6976
aa(lp6977
(S'travel'
S'steps'
S' 1'
tp6978
a(S'turn'
S'right'
S''
tp6979
a(S'travel'
S''
S''
tp6980
a(S'verify'
S'front'
S' wall'
tp6981
aa(lp6982
(g37
S''
S''
tp6983
aa(lp6984
(S'verify'
S'left'
S' lamp'
tp6985
aa(lp6986
(S'travel'
S'steps'
S' 1'
tp6987
a(S'verify'
S'right'
S' flower hallway'
tp6988
aa(lp6989
(S'verify'
p6990
S'front'
S' chair'
tp6991
a(g6990
S'front'
S' barstool'
tp6992
a(S'travel'
S'steps'
S' 4'
tp6993
a(S'verify'
p6994
S'side'
S' concrete hallway'
tp6995
a(g6994
S'back'
S' barstool'
tp6996
a(g6994
S'back'
S' chair'
tp6997
aa(lp6998
(S'travel'
S''
S''
tp6999
a(S'verify'
p7000
S'front'
S' wall'
tp7001
a(g7000
S'left'
S' wall'
tp7002
aa(lp7003
(S'travel'
S''
S''
tp7004
a(S'verify'
S'at'
S' chair'
tp7005
a(S'turn'
S'left'
S''
tp7006
a(S'verify'
S'front'
S' blue hallway'
tp7007
a(S'travel'
S''
S''
tp7008
a(S'verify'
S'front'
S' wall'
tp7009
aa(lp7010
(S'travel'
S''
S''
tp7011
a(S'verify'
S'side'
S' flower hallway'
tp7012
a(S'turn'
S'left'
S''
tp7013
aa(lp7014
(S'travel'
S'steps'
S' 1'
tp7015
aa(lp7016
(S'travel'
S'steps'
S' 1'
tp7017
aa(lp7018
(S'verify'
S'front'
S' lamp'
tp7019
a(S'travel'
S''
S''
tp7020
a(S'verify'
S'at'
S' lamp'
tp7021
a(S'travel'
S'steps'
S' 2'
tp7022
a(S'turn'
S'right'
S''
tp7023
a(S'travel'
S''
S''
tp7024
a(S'verify'
p7025
S'front'
S' wall'
tp7026
a(g7025
S'right'
S' hallway'
tp7027
a(g7025
S'left'
S' hallway'
tp7028
aa(lp7029
(S'turn'
S''
S''
tp7030
a(S'verify'
S'front'
S' yellow hallway'
tp7031
a(S'travel'
S''
S''
tp7032
a(S'verify'
p7033
S'right'
S' wall'
tp7034
a(g7033
S'side'
S' grass hallway'
tp7035
a(g7033
S'front'
S' wall'
tp7036
aa(lp7037
(S'travel'
S''
S''
tp7038
a(S'verify'
S'front'
S' sofa'
tp7039
aa(lp7040
(S'turn'
S'right'
S''
tp7041
aa(lp7042
(S'turn'
S''
S''
tp7043
a(S'verify'
p7044
S'back'
S' wall'
tp7045
a(g7044
S'at'
S' 3-intersection'
tp7046
aa(lp7047
(S'turn'
S'left'
S''
tp7048
aa(lp7049
(S'verify'
S'at'
S' easel'
tp7050
aa(lp7051
(S'turn'
S'left'
S''
tp7052
aa(lp7053
(S'travel'
S''
S''
tp7054
a(S'verify'
S'left'
S' hallway'
tp7055
a(S'turn'
S'left'
S''
tp7056
aa(lp7057
(S'turn'
S'left'
S''
tp7058
aa(lp7059
(S'travel'
S''
S''
tp7060
a(S'verify'
p7061
S'front'
S' wall'
tp7062
a(g7061
S'side'
S' blue hallway'
tp7063
aa(lp7064
(S'verify'
p7065
S'right'
S' lamp'
p7066
tp7067
a(g7065
S'back'
S' hatrack'
tp7068
aa(lp7069
(S'verify'
S'side'
S' blue hallway'
tp7070
aa(lp7071
(S'travel'
S'steps'
S' 1'
tp7072
aa(lp7073
(S'turn'
S'right'
S''
tp7074
a(S'verify'
p7075
S'front'
S' brick hallway'
tp7076
a(g7075
S'front'
S' lamp'
tp7077
aa(lp7078
(g37
S''
S''
tp7079
aa(lp7080
(S'turn'
S'left'
S''
tp7081
aa(lp7082
(S'turn'
S''
S''
tp7083
a(S'verify'
p7084
S'front'
S' wood hallway'
tp7085
a(g7084
S'back'
S' hatrack'
tp7086
aa(lp7087
(S'turn'
S'right'
S''
tp7088
a(S'verify'
S'front'
S' easel'
tp7089
a(S'travel'
S''
S''
tp7090
a(S'verify'
p7091
S'side'
S' blue hallway'
tp7092
a(g7091
S'back'
S' easel'
tp7093
aa(lp7094
(S'turn'
S'left'
S''
tp7095
aa(lp7096
(g37
S''
S''
tp7097
aa(lp7098
(S'turn'
S'right'
S''
tp7099
a(S'verify'
S'front'
S' brick hallway'
tp7100
aa(lp7101
(S'travel'
S'steps'
S' 1'
tp7102
aa(lp7103
(S'travel'
S'steps'
S' 1'
tp7104
aa(lp7105
(S'verify'
p7106
S'left'
S' concrete hallway'
tp7107
a(g7106
S'left'
S' sofa'
p7108
tp7109
aa(lp7110
(S'travel'
S''
S''
tp7111
a(S'verify'
S'front'
S' wall'
tp7112
a(S'turn'
S'right'
S''
tp7113
aa(lp7114
(S'turn'
S'right'
S''
tp7115
aa(lp7116
(S'turn'
S'left'
S''
tp7117
aa(lp7118
(S'turn'
S''
S''
tp7119
a(S'verify'
p7120
S'front'
S' wood hallway'
tp7121
a(g7120
S'front'
S' easel'
tp7122
aa(lp7123
(S'travel'
S'steps'
S' 3'
tp7124
a(S'verify'
S'side'
S' flower hallway'
tp7125
aa(lp7126
(S'travel'
S'steps'
S' 1'
tp7127
aa(lp7128
(S'turn'
S''
S''
tp7129
a(S'verify'
S'front'
S' grass hallway'
tp7130
a(S'travel'
S''
S''
tp7131
a(S'verify'
S'side'
S' yellow hallway'
tp7132
aa(lp7133
(S'turn'
S''
S''
tp7134
aa(lp7135
(S'turn'
S''
S''
tp7136
a(S'verify'
S'front'
S' easel'
tp7137
aa(lp7138
(S'travel'
S'steps'
S' 1'
tp7139
aa(lp7140
(S'turn'
S'left'
S''
tp7141
aa(lp7142
(S'turn'
S'left'
S''
tp7143
a(S'travel'
S''
S''
tp7144
a(S'turn'
S''
S''
tp7145
a(S'travel'
S''
S''
tp7146
a(S'turn'
S''
S''
tp7147
a(S'travel'
S''
S''
tp7148
a(S'verify'
p7149
S'front'
S' wall'
tp7150
a(g7149
S'left'
S' wall'
tp7151
a(g7149
S'right'
S' wall'
tp7152
aa(lp7153
(S'verify'
S'at'
S' hatrack'
tp7154
aa(lp7155
(g37
S''
S''
tp7156
aa(lp7157
(S'travel'
S'steps'
S' 2'
tp7158
aa(lp7159
(S'turn'
S'right'
S''
tp7160
aa(lp7161
(S'turn'
S''
S''
tp7162
a(S'verify'
S'front'
S' fish wall'
tp7163
aa(lp7164
(S'travel'
S'steps'
S' 3'
tp7165
aa(lp7166
(S'turn'
S'left'
S''
tp7167
aa(lp7168
(S'turn'
S'left'
S''
tp7169
a(S'verify'
S'front'
S' brick hallway'
tp7170
aa(lp7171
(S'travel'
S'steps'
S' 1'
tp7172
aa(lp7173
(S'travel'
S''
S''
tp7174
a(S'verify'
S'side'
S' blue hallway'
tp7175
a(S'turn'
S'right'
S''
tp7176
aa(lp7177
(S'turn'
S''
S''
tp7178
a(S'verify'
p7179
S'back'
S' wall'
tp7180
a(g7179
S'at'
S' 3-intersection'
tp7181
aa(lp7182
(S'travel'
S'steps'
S' 1'
tp7183
aa(lp7184
(S'turn'
S''
S''
tp7185
a(S'verify'
S'back'
S' wall'
tp7186
a(S'travel'
S''
S''
tp7187
a(S'verify'
p7188
S'left'
S' brick hallway'
tp7189
a(g7188
S'right'
S' brick hallway'
tp7190
aa(lp7191
(S'travel'
S''
S''
tp7192
a(S'verify'
S'at'
S' easel'
tp7193
a(S'turn'
S'left'
S''
tp7194
a(S'verify'
S'front'
S' wood hallway'
tp7195
a(S'travel'
S'steps'
S' 1'
tp7196
aa(lp7197
(S'travel'
S''
S''
tp7198
a(S'verify'
S'side'
S' gravel hallway'
tp7199
a(S'turn'
S'right'
S''
tp7200
a(S'verify'
S'front'
S' gravel hallway'
tp7201
aa(lp7202
(S'travel'
S'steps'
S' 1'
tp7203
aa(lp7204
(S'turn'
S'right'
S''
tp7205
aa(lp7206
(S'turn'
S'left'
S''
tp7207
aa(lp7208
(S'verify'
S'at'
S' hatrack'
tp7209
a(S'turn'
S'left'
S''
tp7210
aa(lp7211
(S'verify'
S'front'
S' blue hallway'
tp7212
a(S'travel'
S''
S''
tp7213
a(S'verify'
S'side'
S' flower hallway'
tp7214
aa(lp7215
(S'travel'
S''
S''
tp7216
a(S'verify'
S'at'
S' hatrack'
tp7217
aa(lp7218
(S'turn'
S''
S''
tp7219
a(S'verify'
S'back'
S' wall'
tp7220
aa(lp7221
(S'turn'
S'right'
S''
tp7222
aa(lp7223
(S'travel'
S''
S''
tp7224
a(S'verify'
S'at'
S' sofa'
tp7225
a(S'turn'
S'left'
S''
tp7226
a(S'travel'
S''
S''
tp7227
a(S'verify'
S'at'
S' sofa'
tp7228
a(S'turn'
S'right'
S''
tp7229
aa(lp7230
(S'travel'
S'steps'
S' 3'
tp7231
aa(lp7232
(S'turn'
S'left'
S''
tp7233
aa(lp7234
(S'travel'
S'steps'
S' 2'
tp7235
a(S'verify'
S'side'
S' wood hallway'
tp7236
aa(lp7237
(S'verify'
S'side'
S' brick hallway'
tp7238
a(S'turn'
S'left'
S''
tp7239
aa(lp7240
(S'travel'
S'steps'
S' 2'
tp7241
a(S'verify'
S'side'
S' blue hallway'
tp7242
aa(lp7243
(S'travel'
S'steps'
S' 2'
tp7244
a(S'verify'
S'side'
S' flower hallway'
tp7245
aa(lp7246
(S'verify'
S'front'
S' easel'
tp7247
aa(lp7248
(S'turn'
S'left'
S''
tp7249
a(S'verify'
p7250
S'front'
S' concrete hallway'
tp7251
a(g7250
S'front'
S' easel'
tp7252
a(S'travel'
S''
S''
tp7253
a(S'verify'
S'at'
S' easel'
tp7254
a(S'turn'
S'right'
S''
tp7255
a(S'verify'
S'front'
S' wood hallway'
tp7256
aa(lp7257
(S'turn'
S''
S''
tp7258
a(S'verify'
S'front'
S' yellow hallway'
tp7259
aa(lp7260
(S'travel'
S''
S''
tp7261
aa(lp7262
(S'turn'
S''
S''
tp7263
a(S'verify'
S'back'
S' wall'
tp7264
aa(lp7265
(S'turn'
S'left'
S''
tp7266
aa(lp7267
(S'travel'
S''
S''
tp7268
a(S'verify'
S'front'
S' wall'
tp7269
aa(lp7270
(S'travel'
S''
S''
tp7271
a(S'verify'
S'right'
S' easel'
tp7272
aa(lp7273
(S'turn'
S'right'
S''
tp7274
aa(lp7275
(S'travel'
S'steps'
S' 1'
tp7276
a(S'verify'
p7277
S'front'
S' tower wall'
tp7278
a(g7277
S'back'
S' butterfly wall'
tp7279
aa(lp7280
(S'turn'
S''
S''
tp7281
a(S'travel'
S''
S''
tp7282
a(S'verify'
S'side'
S' brick hallway'
tp7283
aa(lp7284
(S'turn'
S'left'
S''
tp7285
aa(lp7286
(S'travel'
S'steps'
S' 1'
tp7287
aa(lp7288
(S'turn'
S'left'
S''
tp7289
aa(lp7290
(S'turn'
S''
S''
tp7291
a(S'verify'
S'front'
S' yellow hallway'
tp7292
a(S'travel'
S''
S''
tp7293
a(S'verify'
S'side'
S' wood hallway'
tp7294
aa(lp7295
(S'travel'
S''
S''
tp7296
a(S'verify'
S'front'
S' wall'
tp7297
aa(lp7298
(S'travel'
S''
S''
tp7299
a(S'verify'
S'front'
S' wall'
tp7300
a(S'turn'
S'right'
S''
tp7301
aa(lp7302
(S'turn'
S'right'
S''
tp7303
aa(lp7304
(S'verify'
S'front'
S' chair'
tp7305
a(S'travel'
S'steps'
S' 2'
tp7306
a(S'verify'
S'back'
S' chair'
tp7307
aa(lp7308
(S'turn'
S'left'
S''
tp7309
a(S'verify'
S'front'
S' hatrack'
tp7310
a(S'travel'
S''
S''
tp7311
a(S'verify'
p7312
S'back'
S' hatrack'
tp7313
a(g7312
S'front'
S' wall'
tp7314
a(g7312
S'back'
S' yellow hallway'
p7315
tp7316
aa(lp7317
(S'turn'
S'right'
p7318
S''
tp7319
aa(lp7320
(S'travel'
S''
S''
tp7321
a(S'verify'
p7322
S'right'
S' brick hallway'
tp7323
a(g7322
S'left'
S' brick hallway'
tp7324
aa(lp7325
(S'verify'
p7326
S'side'
S' concrete hallway'
tp7327
a(g7326
S'right'
S' sofa'
tp7328
aa(lp7329
(S'travel'
S'steps'
S' 1'
tp7330
aa(lp7331
(S'travel'
S'steps'
S' 1'
tp7332
a(S'verify'
S'side'
S' brick hallway'
tp7333
aa(lp7334
(S'travel'
S''
S''
tp7335
a(S'verify'
S'front'
S' wall'
tp7336
aa(lp7337
(S'turn'
S''
S''
tp7338
a(S'verify'
p7339
S'left'
S' wall'
tp7340
a(g7339
S'back'
S' wall'
tp7341
aa(lp7342
(S'travel'
S'steps'
S' 1'
tp7343
aa(lp7344
(S'turn'
S'right'
S''
tp7345
a(S'travel'
S''
S''
tp7346
a(S'turn'
S''
S''
tp7347
a(S'travel'
S''
S''
tp7348
a(S'turn'
S''
S''
tp7349
a(S'verify'
S'front'
S' wood hallway'
tp7350
aa(lp7351
(S'turn'
S''
S''
tp7352
a(S'verify'
S'front'
S' yellow hallway'
tp7353
a(S'travel'
S''
S''
tp7354
a(S'verify'
S'side'
S' flower hallway'
tp7355
aa(lp7356
(S'travel'
S'steps'
S' 1'
tp7357
a(S'turn'
S'left'
S''
tp7358
a(S'verify'
S'front'
S' blue hallway'
tp7359
aa(lp7360
(S'turn'
S''
S''
tp7361
a(S'verify'
p7362
S'front'
S' brick hallway'
tp7363
a(g7362
S'back'
S' chair'
tp7364
a(g7362
S'front'
S' lamp'
tp7365
a(g7362
S'front'
S' easel'
tp7366
aa(lp7367
(S'turn'
S'right'
S''
tp7368
aa(lp7369
(S'travel'
S''
S''
tp7370
a(S'verify'
S'at'
S' chair'
tp7371
aa(lp7372
(S'verify'
S'front'
S' easel'
tp7373
a(S'travel'
S''
S''
tp7374
a(S'verify'
p7375
S'back'
S' easel'
tp7376
a(g7375
S'front'
S' wall'
tp7377
a(g7375
S'left'
S' wall'
tp7378
a(S'turn'
S'right'
S''
tp7379
a(S'verify'
S'front'
S' blue hallway'
tp7380
aa(lp7381
(S'turn'
S'right'
S''
tp7382
aa(lp7383
(S'turn'
S'right'
S''
tp7384
aa(lp7385
(S'travel'
S''
S''
tp7386
a(S'verify'
S'side'
S' gravel hallway'
tp7387
aa(lp7388
(S'turn'
S'right'
S''
tp7389
aa(lp7390
(S'travel'
S''
S''
tp7391
a(S'verify'
S'side'
S' gravel hallway'
tp7392
aa(lp7393
(S'verify'
S'front'
S' fish wall'
tp7394
a(S'turn'
S'left'
S''
tp7395
a(S'travel'
S''
S''
tp7396
a(S'verify'
S'front'
S' wall'
tp7397
aa(lp7398
(S'turn'
S'left'
S''
tp7399
aa(lp7400
(S'turn'
S'left'
S''
tp7401
aa(lp7402
(S'travel'
S''
S''
tp7403
a(S'verify'
S'at'
S' easel'
tp7404
a(S'turn'
S'right'
S''
tp7405
a(S'travel'
S''
S''
tp7406
a(S'verify'
S'front'
S' wall'
tp7407
aa(lp7408
(S'travel'
S'steps'
S' 1'
tp7409
aa(lp7410
(S'verify'
S'left'
S' concrete hallway'
tp7411
aa(lp7412
(S'verify'
S'at'
S' hatrack'
tp7413
a(S'turn'
S'right'
S''
tp7414
a(S'verify'
S'front'
S' sofa'
tp7415
a(S'travel'
S'steps'
S' 2'
tp7416
a(S'verify'
S'back'
S' sofa'
tp7417
aa(lp7418
(S'travel'
S'steps'
S' 1'
tp7419
aa(lp7420
(S'turn'
S''
S''
tp7421
a(S'verify'
p7422
S'front'
S' wood hallway'
tp7423
a(g7422
S'front'
S' easel'
tp7424
a(S'travel'
S''
S''
tp7425
a(S'verify'
S'at'
S' easel'
tp7426
a(S'turn'
S'left'
S''
tp7427
aa(lp7428
(S'travel'
S'steps'
S' 4'
tp7429
a(S'verify'
S'front'
S' wall'
tp7430
aa(lp7431
(S'travel'
S'steps'
S' 1'
tp7432
a(S'verify'
S'side'
S' wood hallway'
tp7433
aa(lp7434
(S'turn'
S''
S''
tp7435
a(S'verify'
S'front'
S' yellow hallway'
tp7436
a(S'travel'
S''
S''
tp7437
a(S'verify'
S'side'
S' blue hallway'
tp7438
aa(lp7439
(S'travel'
S'steps'
S' 2'
tp7440
aa(lp7441
(S'turn'
S''
S''
tp7442
a(S'verify'
S'back'
S' wall'
tp7443
a(S'turn'
S'left'
S''
tp7444
aa(lp7445
(S'travel'
S'steps'
S' 1'
tp7446
aa(lp7447
(S'travel'
S''
S''
tp7448
a(S'verify'
p7449
S'at'
S' easel'
tp7450
a(g7449
S'front'
S' gravel hallway'
tp7451
a(g7449
S'side'
S' yellow hallway'
tp7452
aa(lp7453
(S'turn'
S'right'
S''
tp7454
aa(lp7455
(S'travel'
S'steps'
S' 1'
tp7456
a(S'verify'
S'side'
S' concrete hallway'
tp7457
aa(lp7458
(S'verify'
p7459
S'front'
S' lamp'
tp7460
a(g7459
S'front'
S' hatrack'
tp7461
a(S'travel'
S''
S''
tp7462
a(S'verify'
p7463
S'back'
S' lamp'
tp7464
a(g7463
S'back'
S' hatrack'
tp7465
a(g7463
S'side'
S' gravel hallway'
tp7466
aa(lp7467
(S'turn'
S'right'
S''
tp7468
aa(lp7469
(S'verify'
S'front'
S' brick hallway'
tp7470
aa(lp7471
(S'travel'
S'steps'
S' 1'
tp7472
aa(lp7473
(S'turn'
S''
S''
tp7474
a(S'verify'
S'right'
S' wall'
tp7475
aa(lp7476
(S'travel'
S''
S''
tp7477
aa(lp7478
(S'turn'
S'left'
S''
tp7479
aa(lp7480
(S'turn'
S''
S''
tp7481
a(S'verify'
p7482
S'front'
S' blue hallway'
tp7483
a(g7482
S'front'
S' chair'
tp7484
a(S'travel'
S''
S''
tp7485
a(S'verify'
S'side'
S' flower hallway'
tp7486
a(S'turn'
S'right'
S''
tp7487
a(S'verify'
S'front'
S' flower hallway'
tp7488
aa(lp7489
(S'turn'
S''
S''
tp7490
a(S'verify'
S'front'
S' yellow hallway'
tp7491
a(S'travel'
S''
S''
tp7492
a(S'verify'
S'left'
S' flower hallway'
tp7493
aa(lp7494
(S'turn'
S''
S''
tp7495
a(S'verify'
S'front'
S' flower hallway'
tp7496
aa(lp7497
(S'turn'
S'left'
S''
tp7498
aa(lp7499
(S'turn'
S'right'
S''
tp7500
aa(lp7501
(S'turn'
S'left'
S''
tp7502
aa(lp7503
(S'travel'
S''
S''
tp7504
a(S'verify'
S'front'
S' wall'
tp7505
aa(lp7506
(S'verify'
S'front'
S' easel'
tp7507
a(S'travel'
S''
S''
tp7508
a(S'verify'
p7509
S'back'
S' easel'
tp7510
a(g7509
S'front'
S' wall'
tp7511
a(S'turn'
S'left'
S''
tp7512
a(S'verify'
S'front'
S' brick hallway'
tp7513
aa(lp7514
(S'turn'
S''
S''
tp7515
a(S'verify'
S'back'
S' easel'
tp7516
a(S'turn'
S'right'
S''
tp7517
aa(lp7518
(S'turn'
S''
S''
tp7519
a(S'verify'
S'front'
S' brick hallway'
tp7520
aa(lp7521
(S'turn'
S''
S''
tp7522
a(S'verify'
p7523
S'back'
S' wall'
tp7524
a(g7523
S'right'
S' wall'
tp7525
a(g7523
S'left'
S' wall'
tp7526
aa(lp7527
(S'travel'
S'steps'
S' 1'
tp7528
aa(lp7529
(S'travel'
S''
S''
tp7530
a(S'verify'
p7531
S'at'
S' easel'
tp7532
a(g7531
S'front'
S' wall'
tp7533
aa(lp7534
(S'travel'
S''
S''
tp7535
a(S'verify'
S'at'
S' sofa'
tp7536
aa(lp7537
(S'travel'
S''
S''
tp7538
a(S'verify'
S'side'
S' hallway'
p7539
tp7540
aa(lp7541
(S'verify'
S'left'
S' easel'
tp7542
aa(lp7543
(S'travel'
S'steps'
S' 1'
tp7544
aa(lp7545
(S'travel'
S'steps'
S' 1'
tp7546
aa(lp7547
(S'verify'
p7548
S'front'
S' butterfly wall'
p7549
tp7550
a(g7548
S'front'
S' blue hallway'
p7551
tp7552
aa(lp7553
(S'travel'
S'steps'
S' 1'
tp7554
aa(lp7555
(S'turn'
S'right'
S''
tp7556
aa(lp7557
(S'turn'
S''
S''
tp7558
a(S'verify'
S'front'
S' brick hallway'
tp7559
aa(lp7560
(S'turn'
S''
S''
tp7561
a(S'verify'
S'right'
S' wall'
tp7562
aa(lp7563
(S'verify'
S'side'
S' yellow hallway'
tp7564
a(S'turn'
S'left'
S''
tp7565
a(S'travel'
S''
S''
tp7566
a(S'verify'
S'front'
S' wall'
tp7567
aa(lp7568
(S'turn'
S''
S''
tp7569
a(S'verify'
S'front'
S' easel'
tp7570
aa(lp7571
(S'verify'
S'front'
S' flower hallway'
tp7572
aa(lp7573
(S'verify'
p7574
S'right'
S' concrete hallway'
tp7575
a(g7574
S'left'
S' wall'
tp7576
aa(lp7577
(S'turn'
S''
S''
tp7578
a(S'verify'
S'front'
S' blue hallway'
tp7579
a(S'travel'
S''
S''
tp7580
a(S'verify'
S'side'
S' grass hallway'
tp7581
aa(lp7582
(S'turn'
S''
S''
tp7583
a(S'verify'
S'back'
S' wall'
tp7584
a(S'turn'
S'right'
S''
tp7585
aa(lp7586
(S'verify'
p7587
S'right'
S' butterfly wall'
tp7588
a(g7587
S'left'
S' tower wall'
tp7589
aa(lp7590
(S'turn'
S'left'
S''
tp7591
aa(lp7592
(S'verify'
S'front'
S' brick hallway'
tp7593
a(S'travel'
S'steps'
S' 1'
tp7594
aa(lp7595
(S'travel'
S'steps'
S' 1'
tp7596
aa(lp7597
(S'verify'
S'front'
S' chair'
tp7598
a(S'travel'
S''
S''
tp7599
a(S'verify'
S'at'
S' chair'
tp7600
a(S'travel'
S'steps'
S' 1'
tp7601
aa(lp7602
(S'travel'
S''
S''
tp7603
a(S'verify'
p7604
S'front'
S' flower hallway'
tp7605
a(g7604
S'side'
S' yellow hallway'
tp7606
aa(lp7607
(S'turn'
S'right'
S''
tp7608
aa(lp7609
(S'turn'
S'left'
S''
tp7610
aa(lp7611
(S'turn'
S'left'
S''
tp7612
aa(lp7613
(S'travel'
S''
S''
tp7614
aa(lp7615
(S'travel'
S''
S''
tp7616
aa(lp7617
(S'turn'
S'left'
S''
tp7618
aa(lp7619
(S'travel'
S'steps'
S' 1'
tp7620
a(S'verify'
S'side'
S' wood hallway'
tp7621
aa(lp7622
(S'verify'
S'front'
S' yellow hallway'
tp7623
aa(lp7624
(S'verify'
S'front'
S' lamp'
tp7625
a(S'travel'
S''
S''
tp7626
a(S'verify'
S'back'
S' lamp'
tp7627
aa(lp7628
(S'travel'
S'steps'
S' 1'
tp7629
a(S'verify'
S'side'
S' blue hallway'
tp7630
aa(lp7631
(S'turn'
S''
S''
tp7632
a(S'verify'
S'front'
S' wood hallway'
tp7633
aa(lp7634
(S'turn'
S'left'
S''
tp7635
a(S'verify'
S'front'
S' wood hallway'
tp7636
aa(lp7637
(S'turn'
S'left'
S''
tp7638
aa(lp7639
(S'turn'
S''
S''
tp7640
a(S'verify'
S'front'
S' yellow hallway'
tp7641
aa(lp7642
(S'verify'
S'back'
S' easel'
tp7643
aa(lp7644
(S'travel'
S''
S''
tp7645
a(S'verify'
S'side'
S' blue hallway'
tp7646
a(S'turn'
S'right'
S''
tp7647
a(S'verify'
p7648
S'front'
S' blue hallway'
tp7649
a(g7648
S'front'
S' chair'
tp7650
a(g7648
S'front'
S' hatrack'
tp7651
a(S'travel'
S''
S''
tp7652
a(S'verify'
S'back'
S' hatrack'
tp7653
aa(lp7654
(S'turn'
S'right'
S''
tp7655
aa(lp7656
(S'turn'
S''
S''
tp7657
a(S'verify'
S'front'
S' barstool'
tp7658
aa(lp7659
(S'travel'
S'steps'
S' 2'
tp7660
aa(lp7661
(S'turn'
S''
S''
tp7662
a(S'verify'
S'front'
S' gravel hallway'
tp7663
aa(lp7664
(S'travel'
S''
S''
tp7665
a(S'verify'
p7666
S'front'
S' gravel hallway'
tp7667
a(g7666
S'side'
S' yellow hallway'
tp7668
a(S'turn'
S'left'
S''
tp7669
a(S'verify'
S'front'
S' yellow hallway'
tp7670
aa(lp7671
(S'turn'
S'left'
S''
tp7672
a(S'travel'
S'steps'
S' 2'
tp7673
aa(lp7674
(S'travel'
S''
S''
tp7675
a(S'verify'
S'at'
S' easel'
tp7676
aa(lp7677
(S'travel'
S'steps'
S' 2'
tp7678
a(S'verify'
S'side'
S' blue hallway'
tp7679
aa(lp7680
(S'turn'
S''
S''
tp7681
a(S'verify'
S'left'
S' wall'
tp7682
aa(lp7683
(S'travel'
S'steps'
S' 2'
tp7684
a(S'verify'
S'at'
S' hatrack'
tp7685
aa(lp7686
(S'travel'
S''
S''
tp7687
a(S'verify'
p7688
S'front'
S' wall'
tp7689
a(g7688
S'right'
S' wall'
tp7690
a(S'turn'
S'left'
S''
tp7691
aa(lp7692
(S'travel'
S''
S''
tp7693
a(S'verify'
S'at'
S' easel'
tp7694
a(S'turn'
S'right'
S''
tp7695
a(S'verify'
S'front'
S' wood hallway'
tp7696
a(S'travel'
S'steps'
S' 1'
tp7697
aa(lp7698
(S'verify'
S'front'
S' easel'
tp7699
aa(lp7700
(S'turn'
S''
S''
tp7701
a(S'verify'
S'front'
S' grass hallway'
tp7702
aa(lp7703
(S'turn'
S'left'
S''
tp7704
aa(lp7705
(S'turn'
S'right'
S''
tp7706
a(S'verify'
S'front'
S' brick hallway'
tp7707
a(S'travel'
S''
S''
tp7708
a(S'verify'
S'side'
S' concrete hallway'
tp7709
aa(lp7710
(S'travel'
S''
S''
tp7711
a(S'verify'
S'front'
S' fish wall'
tp7712
aa(lp7713
(S'turn'
S'left'
S''
tp7714
a(S'travel'
S''
S''
tp7715
a(S'verify'
S'at'
S' lamp'
tp7716
a(S'turn'
S'right'
S''
tp7717
aa(lp7718
(S'turn'
S''
S''
tp7719
a(S'verify'
S'front'
S' wood hallway'
tp7720
aa(lp7721
(S'verify'
S'front'
S' flower hallway'
tp7722
a(S'travel'
S'steps'
S' 2'
tp7723
a(S'verify'
S'side'
S' brick hallway'
tp7724
aa(lp7725
(S'turn'
S'left'
S''
tp7726
aa(lp7727
(S'turn'
S'left'
S''
tp7728
aa(lp7729
(S'travel'
S'steps'
S' 2'
tp7730
a(S'verify'
S'front'
S' wall'
tp7731
aa(lp7732
(S'turn'
S''
S''
tp7733
a(S'verify'
S'front'
S' lamp'
tp7734
aa(lp7735
(S'turn'
S'right'
S''
tp7736
aa(lp7737
(S'verify'
S'at'
S' hatrack'
tp7738
aa.