(lp1
(lp2
(S'verify'
S'back'
S' chair'
tp3
aa(lp4
(S'travel'
S''
S''
tp5
a(S'verify'
S'left'
S' hallway'
tp6
aa(lp7
(S'turn'
S''
S''
tp8
a(S'verify'
S'back'
S' sofa'
tp9
aa(lp10
(S'verify'
S'front'
S' lamp'
tp11
a(S'travel'
S'steps'
S' 4'
tp12
a(S'verify'
p13
S'back'
S' lamp'
tp14
a(g13
S'side'
S' wood hallway'
tp15
aa(lp16
(S'turn'
S''
S''
tp17
a(S'verify'
S'back'
S' easel'
tp18
aa(lp19
(S'travel'
S''
S''
tp20
aa(lp21
(S'verify'
S'front'
S' blue hallway'
tp22
a(S'travel'
S''
S''
tp23
a(S'verify'
S'at'
S' chair'
tp24
aa(lp25
(S'verify'
S'side'
S' yellow hallway'
tp26
aa(lp27
(S'travel'
S'steps'
S' 1'
tp28
a(S'verify'
S'side'
S' blue hallway'
tp29
aa(lp30
(S'verify'
S'side'
S' blue hallway'
tp31
a(S'turn'
S'left'
S''
tp32
a(S'verify'
S'front'
S' hatrack'
tp33
aa(lp34
(S'verify'
S'at'
S' lamp'
tp35
aa(lp36
(S'verify'
S'back'
S' easel'
tp37
a(S'travel'
S'steps'
S' 1'
tp38
aa(lp39
(S'travel'
S''
S''
tp40
a(S'verify'
p41
S'front'
S' wall'
tp42
a(g41
S'right'
S' wall'
tp43
a(S'turn'
S'left'
S''
tp44
aa(lp45
(S'travel'
S'steps'
S' 3'
tp46
a(S'verify'
S'side'
S' blue hallway'
tp47
aa(lp48
(S'turn'
S''
S''
tp49
a(S'travel'
S'steps'
S' 1'
tp50
a(S'turn'
S'right'
S''
tp51
aa(lp52
(S'travel'
S'steps'
S' 1'
tp53
aa(lp54
(S'turn'
S'right'
S''
tp55
aa(lp56
(S'turn'
S'right'
S''
tp57
a(S'travel'
S'steps'
S' 1'
tp58
aa(lp59
(S'turn'
S''
S''
tp60
a(S'travel'
S''
S''
tp61
a(S'verify'
p62
S'right'
S' wall'
tp63
a(g62
S'left'
S' wall'
tp64
a(g62
S'front'
S' wall'
tp65
aa(lp66
(S'turn'
S'left'
S''
tp67
aa(lp68
(S'turn'
S''
S''
tp69
a(S'verify'
S'front'
S' butterfly wall'
tp70
a(S'travel'
S''
S''
tp71
aa(lp72
(S'turn'
S'left'
S''
tp73
aa(lp74
(S'turn'
S''
S''
tp75
a(S'verify'
S'front'
S' easel'
tp76
a(S'travel'
S''
S''
tp77
a(S'verify'
S'at'
S' easel'
tp78
aa(lp79
(S'turn'
S'left'
S''
tp80
aa(lp81
(S'travel'
S''
S''
tp82
a(S'turn'
S'left'
S''
tp83
a(S'verify'
S'front'
S' wood hallway'
tp84
aa(lp85
(S'verify'
p86
S'front'
S' butterfly wall'
tp87
a(g86
S'back'
S' butterfly wall'
tp88
aa(lp89
(S'verify'
S'front'
S' blue hallway'
tp90
aa(lp91
(S'travel'
S'steps'
S' 1'
tp92
aa(lp93
(S'travel'
S''
S''
tp94
a(S'verify'
S'at'
S' easel'
tp95
a(S'turn'
S'right'
S''
tp96
aa(lp97
(S'verify'
S'at'
S' hatrack'
tp98
a(S'turn'
S'left'
S''
tp99
a(S'verify'
S'front'
S' concrete hallway'
tp100
aa(lp101
(S'turn'
S''
S''
tp102
a(S'verify'
S'front'
S' easel'
tp103
aa(lp104
(S'turn'
S''
S''
tp105
a(S'verify'
p106
S'front'
S' flower hallway'
tp107
a(g106
S'front'
S' fish wall'
tp108
aa(lp109
(S'turn'
S'left'
S''
tp110
aa(lp111
(S'travel'
S''
S''
tp112
a(S'verify'
S'at'
S' chair'
tp113
a(S'travel'
S'steps'
S' 1'
tp114
aa(lp115
(S'turn'
S''
S''
tp116
a(S'verify'
p117
S'front'
S' gravel hallway'
tp118
a(g117
S'front'
S' easel'
tp119
aa(lp120
(S'travel'
S''
S''
tp121
a(S'verify'
S'front'
S' wall'
tp122
a(S'turn'
S'right'
S''
tp123
aa(lp124
(S'turn'
S'right'
S''
tp125
aa(lp126
(S'turn'
S'right'
S''
tp127
aa(lp128
(S'verify'
S'side'
S' grass hallway'
tp129
a(S'turn'
S'right'
S''
tp130
aa(lp131
(S'travel'
S''
S''
tp132
a(S'verify'
S'side'
S' brick hallway'
tp133
a(S'turn'
S'left'
S''
tp134
aa(lp135
(S'verify'
S'at'
S' hatrack'
tp136
aa(lp137
(S'turn'
S'left'
S''
tp138
aa(lp139
(S'turn'
S'right'
S''
tp140
a(S'travel'
S''
S''
tp141
a(S'turn'
S''
S''
tp142
a(S'travel'
S''
S''
tp143
a(S'turn'
S''
S''
tp144
a(S'verify'
S'front'
S' wood hallway'
tp145
aa(lp146
(S'travel'
S'steps'
S' 2'
tp147
a(S'verify'
S'side'
S' flower hallway'
tp148
aa(lp149
(S'travel'
S'steps'
S' 2'
tp150
aa(lp151
(S'travel'
S'steps'
S' 1'
tp152
aa(lp153
(S'travel'
S'steps'
S' 5'
tp154
aa(lp155
(S'verify'
S'at'
S' hatrack'
tp156
aa(lp157
(S'travel'
S'steps'
S' 1'
tp158
a(S'verify'
S'side'
S' concrete hallway'
tp159
aa(lp160
(S'turn'
S'left'
S''
tp161
a(S'verify'
S'front'
S' hatrack'
tp162
a(S'travel'
S''
S''
tp163
a(S'verify'
p164
S'back'
S' hatrack'
tp165
a(g164
S'front'
S' wall'
tp166
a(g164
S'back'
S' yellow hallway'
p167
tp168
aa(lp169
(S'turn'
S'left'
S''
tp170
a(S'verify'
p171
S'front'
S' brick hallway'
tp172
a(g171
S'front'
S' lamp'
tp173
aa(lp174
(S'verify'
S'at'
S' easel'
tp175
aa(lp176
(S'travel'
S'steps'
S' 2'
tp177
aa(lp178
(S'travel'
S'steps'
S' 1'
tp179
a(S'verify'
S'side'
S' blue hallway'
tp180
aa(lp181
(S'turn'
S'right'
S''
tp182
a(S'travel'
S''
S''
tp183
a(S'verify'
p184
S'front'
S' wall'
tp185
a(g184
S'right'
S' wall'
tp186
a(g184
S'left'
S' wall'
tp187
aa(lp188
(S'turn'
S''
S''
tp189
a(S'verify'
p190
S'back'
S' wall'
tp191
a(g190
S'right'
S' wall'
tp192
a(g190
S'left'
S' wall'
tp193
aa(lp194
(S'travel'
S'steps'
S' 6'
tp195
aa(lp196
(S'turn'
S''
S''
tp197
a(S'verify'
S'front'
S' yellow hallway'
tp198
aa(lp199
(S'turn'
S'left'
S''
tp200
a(S'verify'
S'front'
S' yellow hallway'
tp201
aa(lp202
(S'turn'
S'right'
S''
tp203
a(S'travel'
S''
S''
tp204
a(S'verify'
S'at'
S' easel'
tp205
aa(lp206
(S'turn'
S'left'
S''
tp207
aa(lp208
(S'verify'
S'left'
S' hatrack'
tp209
aa(lp210
(S'travel'
S''
S''
tp211
a(S'verify'
p212
S'front'
S' wall'
tp213
a(g212
S'left'
S' wall'
tp214
a(S'turn'
S'right'
S''
tp215
a(S'verify'
S'front'
S' easel'
tp216
aa(lp217
(S'travel'
S''
S''
tp218
a(S'turn'
S''
S''
tp219
a(S'travel'
S''
S''
tp220
a(S'turn'
S''
S''
tp221
aa(lp222
(S'turn'
S'right'
S''
tp223
aa(lp224
(S'turn'
S'left'
S''
tp225
aa(lp226
(S'travel'
S''
S''
tp227
a(S'verify'
S'at'
S' easel'
tp228
a(S'turn'
S'right'
S''
tp229
a(S'travel'
S''
S''
tp230
a(S'verify'
S'front'
S' wall'
tp231
aa(lp232
(S'turn'
S'left'
S''
tp233
aa(lp234
(S'turn'
S''
S''
tp235
a(S'verify'
p236
S'back'
S' wall'
tp237
a(g236
S'at'
S' 3-intersection'
tp238
aa(lp239
(S'turn'
S'left'
S''
tp240
a(S'verify'
S'front'
S' easel'
tp241
aa(lp242
(S'travel'
S''
S''
tp243
a(S'verify'
S'left'
S' easel'
tp244
aa(lp245
(S'travel'
S''
S''
tp246
aa(lp247
(S'travel'
S''
S''
tp248
a(S'verify'
S'front'
S' wall'
tp249
a(S'turn'
S'left'
S''
tp250
aa(lp251
(S'turn'
S'left'
S''
tp252
a(S'travel'
S'steps'
S' 1'
tp253
aa(lp254
(S'travel'
S''
S''
tp255
a(S'verify'
S'left'
S' concrete hallway'
tp256
aa(lp257
(S'travel'
S''
S''
tp258
aa(lp259
(S'turn'
S''
S''
tp260
a(S'verify'
S'front'
S' yellow hallway'
tp261
aa(lp262
(S'verify'
S'right'
S' wall'
tp263
aa(lp264
(S'turn'
S''
S''
tp265
a(S'verify'
S'left'
S' wall'
tp266
aa(lp267
(S'turn'
S''
S''
tp268
a(S'verify'
p269
S'front'
S' blue hallway'
tp270
a(g269
S'front'
S' chair'
tp271
aa(lp272
(S'turn'
S''
S''
tp273
a(S'verify'
S'front'
S' barstool'
tp274
aa(lp275
(S'turn'
S'left'
S''
tp276
aa(lp277
(S'turn'
S''
S''
tp278
a(S'verify'
p279
S'back'
S' wall'
tp280
a(g279
S'right'
S' wall'
tp281
a(g279
S'left'
S' wall'
tp282
aa(lp283
(S'turn'
S'left'
S''
tp284
a(S'travel'
S'steps'
S' 3'
tp285
aa(lp286
(S'turn'
S''
S''
tp287
aa(lp288
(S'turn'
S'left'
S''
tp289
a(S'travel'
S'steps'
S' 2'
tp290
aa(lp291
(S'verify'
S'front'
S' chair'
tp292
aa(lp293
(S'travel'
S''
S''
tp294
a(S'verify'
S'side'
S' wood hallway'
tp295
a(S'turn'
S'left'
S''
tp296
a(S'travel'
S''
S''
tp297
a(S'verify'
S'at'
S' sofa'
tp298
aa(lp299
(S'turn'
S''
S''
tp300
a(S'verify'
S'back'
S' wall'
tp301
a(S'turn'
S'left'
S''
tp302
aa(lp303
(S'travel'
S'steps'
S' 1'
tp304
a(S'turn'
S'right'
S''
tp305
aa(lp306
(S'verify'
S'front'
S' lamp'
tp307
a(S'travel'
S'steps'
S' 3'
tp308
a(S'verify'
p309
S'back'
S' lamp'
tp310
a(g309
S'side'
S' concrete hallway'
tp311
aa(lp312
(S'travel'
S''
S''
tp313
a(S'verify'
S'right'
S' hallway'
tp314
a(S'turn'
S'right'
S''
tp315
a(S'travel'
S''
S''
tp316
a(S'verify'
p317
S'front'
S' wall'
tp318
a(g317
S'left'
S' wall'
tp319
a(g317
S'right'
S' wall'
tp320
aa(lp321
(S'travel'
S''
S''
tp322
a(S'verify'
S'at'
S' lamp'
tp323
a(S'travel'
S'steps'
S' 1'
tp324
aa(lp325
(S'travel'
S'steps'
S' 1'
tp326
a(S'verify'
S'front'
S' wall'
tp327
aa(lp328
(S'travel'
S''
S''
tp329
a(S'verify'
p330
S'at'
S' chair'
tp331
a(g330
S'at'
S' hatrack'
tp332
a(g330
S'front'
S' concrete hallway'
tp333
a(g330
S'back'
S' concrete hallway'
tp334
aa(lp335
(S'verify'
S'front'
S' brick hallway'
tp336
a(S'travel'
S''
S''
tp337
aa(lp338
(S'null'
p339
S''
S''
tp340
aa(lp341
(S'travel'
S'steps'
S' 2'
tp342
a(S'verify'
S'side'
S' blue hallway'
tp343
aa(lp344
(S'travel'
S''
S''
tp345
a(S'verify'
p346
S'at'
S' easel'
tp347
a(g346
S'side'
S' brick hallway'
tp348
a(S'turn'
S'left'
S''
tp349
aa(lp350
(S'verify'
S'side'
S' grass hallway'
tp351
a(S'turn'
S'right'
S''
tp352
a(S'travel'
S''
S''
tp353
a(S'verify'
S'front'
S' wall'
tp354
aa(lp355
(S'verify'
p356
S'front'
S' easel'
tp357
a(g356
S'left'
S' chair'
tp358
aa(lp359
(S'turn'
S'left'
S''
tp360
aa(lp361
(S'turn'
S'right'
S''
tp362
aa(lp363
(S'verify'
S'front'
S' chair'
tp364
a(S'travel'
S'steps'
S' 2'
tp365
a(S'verify'
S'back'
S' chair'
tp366
aa(lp367
(S'travel'
S''
S''
tp368
a(S'verify'
S'at'
S' barstool'
tp369
aa(lp370
(S'turn'
S''
S''
tp371
a(S'verify'
S'front'
S' easel'
tp372
aa(lp373
(S'turn'
S'left'
S''
tp374
aa(lp375
(S'turn'
S''
S''
tp376
a(S'verify'
S'front'
S' flower hallway'
tp377
a(S'travel'
S''
S''
tp378
a(S'verify'
S'side'
S' brick hallway'
tp379
aa(lp380
(S'turn'
S'left'
S''
tp381
aa(lp382
(S'turn'
S''
S''
tp383
a(S'verify'
S'front'
S' flower hallway'
tp384
a(S'travel'
S''
S''
tp385
a(S'verify'
S'side'
S' brick hallway'
tp386
aa(lp387
(S'verify'
S'front'
S' flower hallway'
p388
tp389
aa(lp390
(S'turn'
S''
S''
tp391
a(S'verify'
S'front'
S' hatrack'
tp392
aa(lp393
(S'travel'
S''
S''
tp394
a(S'verify'
S'front'
S' blue hallway'
tp395
aa(lp396
(S'travel'
S'steps'
S' 1'
tp397
a(S'verify'
S'side'
S' wood hallway'
tp398
aa(lp399
(S'turn'
S''
S''
tp400
a(S'verify'
S'front'
S' chair'
tp401
a(S'travel'
S''
S''
tp402
aa(lp403
(S'turn'
S''
S''
tp404
a(S'verify'
S'back'
S' wall'
tp405
a(S'turn'
S'left'
S''
tp406
aa(lp407
(S'turn'
S'right'
S''
tp408
aa(lp409
(S'turn'
S''
S''
tp410
a(S'verify'
p411
S'front'
S' butterfly wall'
tp412
a(g411
S'front'
S' blue hallway'
tp413
a(S'travel'
S''
S''
tp414
aa(lp415
(S'turn'
S'right'
S''
tp416
a(S'verify'
S'front'
S' blue hallway'
tp417
a(S'travel'
S'steps'
S' 2'
tp418
aa(lp419
(S'verify'
S'front'
S' chair'
tp420
a(S'travel'
S'steps'
S' 2'
tp421
a(S'verify'
p422
S'back'
S' chair'
tp423
a(g422
S'at'
S' barstool'
tp424
aa(lp425
(S'turn'
S'left'
S''
tp426
aa(lp427
(S'travel'
S'steps'
S' 1'
tp428
aa(lp429
(S'turn'
S''
S''
tp430
a(S'verify'
p431
S'back'
S' wall'
tp432
a(g431
S'at'
S' 3-intersection'
tp433
aa(lp434
(S'verify'
p435
S'left'
S' butterfly wall'
tp436
a(g435
S'right'
S' tower wall'
tp437
aa(lp438
(S'turn'
S''
S''
tp439
a(S'verify'
S'front'
S' hatrack'
tp440
aa(lp441
(S'travel'
S'steps'
S' 1'
tp442
aa(lp443
(S'verify'
S'left'
S' hatrack'
p444
tp445
aa(lp446
(S'travel'
S'steps'
S' 2'
tp447
a(S'verify'
S'side'
S' concrete hallway'
tp448
aa(lp449
(S'travel'
S''
S''
tp450
a(S'verify'
S'side'
S' blue hallway'
tp451
aa(lp452
(S'turn'
S''
S''
tp453
a(S'verify'
S'back'
S' wall'
tp454
aa(lp455
(S'verify'
p456
S'front'
S' flower hallway'
tp457
a(g456
S'front'
S' lamp'
tp458
a(S'travel'
S''
S''
tp459
a(S'verify'
S'at'
S' lamp'
tp460
a(S'travel'
S'steps'
S' 2'
tp461
aa(lp462
(S'turn'
S''
S''
tp463
a(S'verify'
p464
S'left'
S' wall'
tp465
a(g464
S'right'
S' flower hallway'
tp466
a(g464
S'front'
S' blue hallway'
tp467
aa(lp468
(S'travel'
S'steps'
S' 2'
tp469
a(S'verify'
S'side'
S' flower hallway'
tp470
aa(lp471
(S'travel'
S''
S''
tp472
a(S'verify'
S'side'
S' blue hallway'
tp473
a(S'turn'
S'left'
S''
tp474
a(S'verify'
S'front'
S' blue hallway'
tp475
aa(lp476
(S'verify'
p477
S'front'
S' wood hallway'
tp478
a(g477
S'back'
S' wood hallway'
tp479
aa(lp480
(S'travel'
S'steps'
S' 3'
tp481
aa(lp482
(S'turn'
S'right'
S''
tp483
aa(lp484
(S'travel'
S'steps'
S' 1'
tp485
aa(lp486
(S'travel'
S'steps'
S' 1'
tp487
aa(lp488
(S'travel'
S''
S''
tp489
a(S'verify'
p490
S'side'
S' yellow hallway'
tp491
a(g490
S'at'
S' 3-intersection'
tp492
aa(lp493
(S'travel'
S''
S''
tp494
a(S'turn'
S'left'
S''
tp495
a(S'verify'
S'front'
S' flower hallway'
tp496
aa(lp497
(S'travel'
S''
S''
tp498
a(S'verify'
S'at'
S' easel'
tp499
aa(lp500
(S'travel'
S''
S''
tp501
a(S'verify'
S'front'
S' wall'
tp502
aa(lp503
(S'verify'
p504
S'front'
S' hatrack'
tp505
a(g504
S'left'
S' concrete hallway'
tp506
aa(lp507
(S'travel'
S''
S''
tp508
a(S'verify'
S'front'
S' wall'
tp509
a(S'turn'
S'right'
S''
tp510
aa(lp511
(S'turn'
S''
S''
tp512
a(S'verify'
p513
S'front'
S' brick hallway'
tp514
a(g513
S'back'
S' sofa'
tp515
aa(lp516
(S'turn'
S'right'
S''
tp517
aa(lp518
(S'verify'
S'front'
S' blue hallway'
tp519
a(S'travel'
S''
S''
tp520
a(S'verify'
S'side'
S' flower hallway'
tp521
aa(lp522
(S'turn'
S''
S''
tp523
a(S'verify'
p524
S'front'
S' blue hallway'
tp525
a(g524
S'back'
S' sofa'
tp526
aa(lp527
(S'travel'
S''
S''
tp528
a(S'verify'
S'at'
S' barstool'
tp529
aa(lp530
(S'turn'
S'left'
S''
tp531
a(S'verify'
S'front'
S' blue hallway'
tp532
aa(lp533
(S'travel'
S''
S''
tp534
a(S'verify'
S'front'
S' wall'
tp535
aa(lp536
(S'turn'
S''
S''
tp537
a(S'verify'
S'front'
S' brick hallway'
tp538
aa(lp539
(S'turn'
S'left'
S''
tp540
aa(lp541
(S'travel'
S''
S''
tp542
a(S'verify'
S'at'
S' chair'
tp543
a(S'turn'
S'right'
S''
tp544
aa(lp545
(S'turn'
S'left'
S''
tp546
aa(lp547
(S'turn'
S'left'
S''
tp548
aa(lp549
(S'travel'
S''
S''
tp550
aa(lp551
(S'travel'
S''
S''
tp552
a(S'verify'
S'front'
S' wall'
tp553
a(S'turn'
S'right'
S''
tp554
aa(lp555
(S'travel'
S'steps'
S' 1'
tp556
aa(lp557
(S'travel'
S'steps'
S' 1'
tp558
a(S'verify'
S'side'
S' blue hallway'
tp559
aa(lp560
(S'turn'
S'left'
S''
tp561
a(S'travel'
S'steps'
S' 1'
tp562
aa(lp563
(S'turn'
S'right'
S''
tp564
aa(lp565
(S'verify'
S'at'
S' easel'
tp566
a(S'turn'
S'left'
S''
tp567
a(S'travel'
S''
S''
tp568
a(S'verify'
p569
S'left'
S' wall'
tp570
a(g569
S'front'
S' wall'
tp571
aa(lp572
(S'turn'
S'left'
S''
tp573
aa(lp574
(S'verify'
p575
S'back'
S' hatrack'
tp576
a(g575
S'back'
S' brick hallway'
tp577
aa(lp578
(S'turn'
S''
S''
tp579
a(S'turn'
S'left'
S''
tp580
aa(lp581
(S'travel'
S''
S''
tp582
a(S'verify'
S'at'
S' easel'
tp583
aa(lp584
(S'travel'
S'steps'
S' 1'
tp585
aa(lp586
(S'turn'
S'left'
S''
tp587
aa(lp588
(S'travel'
S''
S''
tp589
aa(lp590
(S'turn'
S''
S''
tp591
a(S'verify'
S'back'
S' wall'
tp592
a(S'turn'
S'left'
S''
tp593
aa(lp594
(S'travel'
S'steps'
S' 2'
tp595
a(S'verify'
S'side'
S' yellow hallway'
tp596
aa(lp597
(S'turn'
S'right'
S''
tp598
aa(lp599
(S'travel'
S''
S''
tp600
aa(lp601
(S'verify'
S'at'
S' sofa'
tp602
aa(lp603
(S'verify'
p604
S'front'
S' yellow hallway'
tp605
a(g604
S'front'
S' fish wall'
tp606
a(S'travel'
S''
S''
tp607
a(S'verify'
p608
S'front'
S' wall'
tp609
a(g608
S'left'
S' wall'
tp610
a(g608
S'right'
S' wall'
tp611
aa(lp612
(S'turn'
S''
S''
tp613
a(S'verify'
p614
S'back'
S' easel'
p615
tp616
a(g614
S'front'
S' gravel hallway'
tp617
a(S'travel'
S'steps'
S' 1'
tp618
aa(lp619
(S'turn'
S'right'
S''
tp620
a(S'verify'
S'front'
S' blue hallway'
tp621
aa(lp622
(S'verify'
S'left'
S' sofa'
tp623
aa(lp624
(S'turn'
S'left'
S''
tp625
a(S'travel'
S''
S''
tp626
a(S'verify'
S'at'
S' sofa'
tp627
aa(lp628
(S'travel'
S'steps'
S' 1'
tp629
aa(lp630
(S'turn'
S'right'
S''
tp631
aa(lp632
(S'turn'
S'left'
S''
tp633
a(S'verify'
S'front'
S' blue hallway'
tp634
a(S'travel'
S''
S''
tp635
a(S'verify'
S'at'
S' hatrack'
tp636
a(S'turn'
S'left'
S''
tp637
aa(lp638
(S'turn'
S''
S''
tp639
a(S'verify'
p640
S'back'
S' wall'
tp641
a(g640
S'at'
S' 3-intersection'
tp642
aa(lp643
(S'verify'
p644
S'front'
S' brick hallway'
tp645
a(g644
S'front'
S' butterfly wall'
tp646
a(S'travel'
S''
S''
tp647
aa(lp648
(S'turn'
S'right'
S''
tp649
a(S'verify'
S'front'
S' flower hallway'
tp650
a(S'travel'
S''
S''
tp651
a(S'verify'
S'at'
S' easel'
tp652
aa(lp653
(S'turn'
S''
S''
tp654
a(S'verify'
S'front'
S' flower hallway'
tp655
a(S'travel'
S''
S''
tp656
a(S'verify'
S'side'
S' brick hallway'
tp657
aa(lp658
(S'verify'
S'front'
S' grass hallway'
tp659
a(S'travel'
S''
S''
tp660
a(S'verify'
p661
S'front'
S' wall'
tp662
a(g661
S'right'
S' yellow hallway'
tp663
aa(lp664
(S'travel'
S''
S''
tp665
a(S'verify'
S'at'
S' hatrack'
tp666
aa(lp667
(S'verify'
p668
S'front'
S' lamp'
tp669
a(g668
S'right'
S' concrete hallway'
tp670
aa(lp671
(S'turn'
S''
S''
tp672
a(S'verify'
p673
S'back'
S' wall'
tp674
a(g673
S'at'
S' 3-intersection'
tp675
aa(lp676
(S'turn'
S''
S''
tp677
a(S'verify'
S'front'
S' yellow hallway'
tp678
a(S'travel'
S''
S''
tp679
a(S'verify'
S'side'
S' wood hallway'
tp680
aa(lp681
(S'verify'
S'front'
S' blue hallway'
tp682
a(S'travel'
S'steps'
S' 2'
tp683
aa(lp684
(S'turn'
S'left'
S''
tp685
aa(lp686
(S'verify'
S'front'
S' fish wall'
tp687
a(S'turn'
S'left'
S''
tp688
a(S'travel'
S''
S''
tp689
a(S'verify'
S'front'
S' wall'
tp690
aa(lp691
(S'travel'
S'steps'
S' 3'
tp692
a(S'verify'
S'side'
S' yellow hallway'
tp693
a(S'turn'
S'left'
S''
tp694
a(S'travel'
S'steps'
S' 1'
tp695
aa(lp696
(S'travel'
S'steps'
S' 2'
tp697
a(S'verify'
S'front'
S' wall'
tp698
aa(lp699
(S'turn'
S'left'
S''
tp700
a(S'verify'
S'front'
S' lamp'
tp701
a(S'travel'
S''
S''
tp702
a(S'verify'
S'front'
S' wall'
tp703
aa(lp704
(S'turn'
S'left'
S''
tp705
a(S'travel'
S'steps'
S' 4'
tp706
aa(lp707
(S'verify'
p708
S'left'
S' concrete hallway'
tp709
a(g708
S'left'
S' sofa'
p710
tp711
aa(lp712
(S'verify'
S'at'
S' sofa'
tp713
aa(lp714
(S'travel'
S''
S''
tp715
a(S'verify'
S'side'
S' blue hallway'
tp716
aa(lp717
(S'travel'
S'steps'
S' 1'
tp718
aa(lp719
(S'turn'
S''
S''
tp720
a(S'verify'
S'back'
S' wall'
tp721
aa(lp722
(S'turn'
S'right'
S''
tp723
a(S'verify'
S'front'
S' blue hallway'
tp724
a(S'travel'
S'steps'
S' 4'
tp725
aa(lp726
(S'turn'
S''
S''
tp727
a(S'verify'
p728
S'back'
S' wall'
tp729
a(g728
S'at'
S' 3-intersection'
tp730
aa(lp731
(g339
S''
S''
tp732
aa(lp733
(S'travel'
S'steps'
S' 1'
tp734
aa(lp735
(S'travel'
S''
S''
tp736
a(S'verify'
S'at'
S' easel'
tp737
aa(lp738
(S'travel'
S''
S''
tp739
a(S'verify'
p740
S'front'
S' yellow hallway'
tp741
a(g740
S'side'
S' grass hallway'
tp742
aa(lp743
(S'travel'
S''
S''
tp744
a(S'verify'
p745
S'side'
S' concrete hallway'
tp746
a(g745
S'at'
S' 4-intersection'
tp747
aa(lp748
(S'turn'
S'left'
S''
tp749
a(S'verify'
S'front'
S' concrete hallway'
tp750
aa(lp751
(S'travel'
S''
S''
tp752
a(S'verify'
S'right'
S' brick hallway'
tp753
aa(lp754
(S'turn'
S''
S''
tp755
a(S'verify'
p756
S'back'
S' wall'
tp757
a(g756
S'at'
S' 3-intersection'
tp758
aa(lp759
(S'travel'
S'steps'
S' 1'
tp760
aa(lp761
(S'travel'
S''
S''
tp762
aa(lp763
(S'turn'
S''
S''
tp764
a(S'verify'
S'front'
S' brick hallway'
tp765
a(S'travel'
S''
S''
tp766
a(S'verify'
S'side'
S' wood hallway'
tp767
aa(lp768
(S'travel'
S'steps'
S' 1'
tp769
a(S'verify'
S'at'
S' lamp'
tp770
aa(lp771
(S'turn'
S'left'
S''
tp772
aa(lp773
(S'verify'
S'at'
S' sofa'
tp774
aa(lp775
(S'turn'
S'right'
S''
tp776
aa(lp777
(S'turn'
S'left'
S''
tp778
a(S'verify'
S'front'
S' yellow hallway'
tp779
a(S'travel'
S'steps'
S' 2'
tp780
a(S'verify'
S'front'
S' wall'
tp781
aa(lp782
(S'travel'
S'steps'
S' 1'
tp783
aa(lp784
(S'turn'
S'left'
S''
tp785
aa(lp786
(S'turn'
S'right'
S''
tp787
aa(lp788
(S'turn'
S'right'
S''
tp789
a(S'verify'
S'front'
S' gravel hallway'
tp790
a(S'travel'
S'steps'
S' 2'
tp791
aa(lp792
(S'travel'
S'steps'
S' 3'
p793
tp794
a(S'verify'
S'front'
S' wall'
tp795
aa(lp796
(S'turn'
S''
S''
tp797
a(S'verify'
S'front'
S' yellow hallway'
tp798
a(S'travel'
S''
S''
tp799
a(S'verify'
p800
S'side'
S' gravel hallway'
tp801
a(g800
S'at'
S' easel'
tp802
aa(lp803
(S'turn'
S'left'
S''
tp804
a(S'travel'
S'steps'
S' 3'
tp805
aa(lp806
(S'turn'
S'left'
S''
tp807
aa(lp808
(S'travel'
S''
S''
tp809
a(S'verify'
S'right'
S' hallway'
p810
tp811
a(S'turn'
S'right'
S''
tp812
aa(lp813
(S'travel'
S'steps'
S' 1'
tp814
a(S'verify'
S'side'
S' wood hallway'
tp815
aa(lp816
(S'turn'
S''
S''
tp817
a(S'verify'
S'front'
S' lamp'
tp818
a(S'travel'
S'steps'
S' 1'
tp819
aa(lp820
(S'turn'
S'right'
S''
tp821
aa(lp822
(S'turn'
S'right'
S''
tp823
aa(lp824
(S'travel'
S'steps'
S' 1'
tp825
a(S'verify'
p826
S'front'
S' wall'
tp827
a(g826
S'right'
S' wall'
tp828
a(g826
S'left'
S' wall'
tp829
aa(lp830
(S'travel'
S''
S''
tp831
a(S'verify'
S'at'
S' sofa'
tp832
aa(lp833
(S'verify'
S'front'
S' sofa'
tp834
a(S'travel'
S'steps'
S' 4'
tp835
a(S'verify'
p836
S'back'
S' sofa'
tp837
a(g836
S'at'
S' hatrack'
tp838
aa(lp839
(S'turn'
S''
S''
tp840
a(S'verify'
S'front'
S' easel'
tp841
aa(lp842
(S'verify'
S'front'
S' sofa'
tp843
a(S'travel'
S'steps'
S' 2'
tp844
a(S'verify'
S'back'
S' sofa'
tp845
aa(lp846
(g339
S''
S''
tp847
aa(lp848
(S'travel'
S'steps'
S' 1'
tp849
aa(lp850
(S'verify'
S'front'
S' hatrack'
tp851
a(S'travel'
S'steps'
S' 3'
tp852
a(S'verify'
p853
S'back'
S' hatrack'
tp854
a(g853
S'front'
S' grass hallway'
tp855
a(g853
S'side'
S' yellow hallway'
tp856
aa(lp857
(S'verify'
S'front'
S' yellow hallway'
tp858
aa(lp859
(S'verify'
S'front'
S' blue hallway'
tp860
a(S'travel'
S'steps'
S' 2'
tp861
a(S'verify'
S'side'
S' flower hallway'
tp862
aa(lp863
(S'travel'
S'steps'
S' 2'
tp864
aa(lp865
(S'verify'
p866
S'front'
S' wall'
tp867
a(g866
S'right'
S' wall'
tp868
a(S'turn'
S'left'
S''
tp869
a(S'travel'
S''
S''
tp870
a(S'verify'
p871
S'front'
S' wall'
tp872
a(g871
S'left'
S' wall'
tp873
a(g871
S'at'
S' lamp'
tp874
a(S'turn'
S'right'
S''
tp875
aa(lp876
(S'travel'
S''
S''
tp877
a(S'verify'
S'front'
S' wall'
tp878
aa(lp879
(S'travel'
S'steps'
S' 2'
tp880
a(S'verify'
S'side'
S' concrete hallway'
tp881
aa(lp882
(S'travel'
S''
S''
tp883
a(S'verify'
p884
S'at'
S' 4-intersection'
p885
tp886
a(g884
S'front'
S' brick hallway'
tp887
a(g884
S'side'
S' flower hallway'
tp888
a(g884
S'at'
S' easel'
tp889
aa(lp890
(S'verify'
S'left'
S' gravel hallway'
tp891
aa(lp892
(S'travel'
S''
S''
tp893
a(S'verify'
S'front'
S' wall'
tp894
a(S'turn'
S'right'
S''
tp895
aa(lp896
(S'turn'
S'left'
S''
tp897
a(S'verify'
S'front'
S' brick hallway'
tp898
aa(lp899
(S'turn'
S'left'
S''
tp900
a(S'verify'
S'front'
S' brick hallway'
tp901
a(S'travel'
S''
S''
tp902
a(S'verify'
S'front'
S' butterfly wall'
tp903
aa(lp904
(S'travel'
S'steps'
S' 1'
tp905
aa(lp906
(S'turn'
S'left'
S''
tp907
a(S'travel'
S''
S''
tp908
a(S'verify'
S'front'
S' butterfly wall'
tp909
aa(lp910
(S'travel'
S''
S''
tp911
a(S'verify'
S'front'
S' lamp'
tp912
aa(lp913
(S'turn'
S''
S''
tp914
a(S'verify'
S'front'
S' barstool'
tp915
aa(lp916
(S'turn'
S'right'
S''
tp917
aa(lp918
(S'turn'
S'left'
S''
tp919
aa(lp920
(S'turn'
S'left'
S''
tp921
aa(lp922
(S'verify'
S'side'
S' brick hallway'
tp923
aa(lp924
(S'travel'
S''
S''
tp925
aa(lp926
(S'turn'
S''
S''
tp927
a(S'verify'
S'right'
S' wall'
tp928
aa(lp929
(S'turn'
S''
S''
tp930
a(S'verify'
S'front'
S' flower hallway'
tp931
aa(lp932
(S'turn'
S'right'
S''
tp933
aa(lp934
(S'turn'
S''
S''
tp935
a(S'verify'
S'left'
S' wall'
tp936
aa(lp937
(S'turn'
S''
S''
tp938
a(S'verify'
p939
S'front'
S' wood hallway'
tp940
a(g939
S'right'
S' chair'
tp941
aa(lp942
(S'verify'
p943
S'front'
S' yellow hallway'
tp944
a(g943
S'side'
S' gravel hallway'
tp945
a(S'turn'
S'right'
S''
tp946
aa(lp947
(S'travel'
S''
S''
tp948
a(S'verify'
S'at'
S' easel'
tp949
a(S'turn'
S'right'
S''
tp950
a(S'travel'
S''
S''
tp951
a(S'verify'
S'front'
S' wall'
tp952
aa(lp953
(S'turn'
S'left'
S''
tp954
aa(lp955
(S'turn'
S'left'
S''
tp956
aa(lp957
(S'turn'
S''
S''
tp958
a(S'verify'
S'back'
S' easel'
tp959
a(S'travel'
S'steps'
S' 1'
tp960
aa(lp961
(S'travel'
S''
S''
tp962
a(S'verify'
S'at'
S' lamp'
tp963
a(S'travel'
S'steps'
S' 2'
tp964
aa(lp965
(g339
S''
S''
tp966
aa(lp967
(S'verify'
S'front'
S' yellow hallway'
tp968
aa(lp969
(g339
S''
S''
tp970
aa(lp971
(S'travel'
S'steps'
S' 1'
tp972
aa(lp973
(S'turn'
p974
S'left'
p975
S''
tp976
a(S'verify'
p977
S'front'
p978
S' brick hallway'
p979
tp980
a(S'travel'
p981
S'steps'
p982
S' 1'
p983
tp984
aa(lp985
(S'turn'
S'left'
S''
tp986
aa(lp987
(S'turn'
S'left'
S''
tp988
a(S'travel'
S'steps'
S' 2'
tp989
aa(lp990
(S'travel'
S'steps'
S' 4'
tp991
aa(lp992
(S'verify'
S'front'
S' brick hallway'
tp993
a(S'travel'
S''
S''
tp994
a(S'verify'
S'side'
S' gravel hallway'
tp995
aa(lp996
(S'verify'
S'front'
S' easel'
tp997
a(S'travel'
S'steps'
S' 1'
tp998
a(S'turn'
S'right'
S''
tp999
aa(lp1000
(S'turn'
S''
S''
tp1001
a(S'verify'
p1002
S'left'
S' wall'
tp1003
a(g1002
S'back'
S' wall'
tp1004
aa(lp1005
(S'travel'
S'steps'
S' 2'
tp1006
a(S'verify'
S'side'
S' yellow hallway'
tp1007
aa(lp1008
(S'turn'
S'left'
S''
tp1009
a(S'travel'
S'steps'
S' 4'
tp1010
aa(lp1011
(S'turn'
S'right'
S''
tp1012
a(S'verify'
S'front'
S' wood hallway'
tp1013
aa(lp1014
(S'travel'
S''
S''
tp1015
a(S'verify'
S'front'
S' wall'
tp1016
aa(lp1017
(S'travel'
S'steps'
S' 1'
tp1018
a(S'verify'
S'side'
S' wood hallway'
tp1019
aa(lp1020
(S'verify'
S'front'
S' blue hallway'
tp1021
a(S'travel'
S''
S''
tp1022
a(S'verify'
S'front'
S' wall'
tp1023
aa(lp1024
(S'verify'
S'front'
S' hatrack'
tp1025
aa(lp1026
(S'verify'
S'at'
S' easel'
tp1027
aa(lp1028
(S'travel'
S'steps'
S' 5'
tp1029
aa(lp1030
(S'turn'
S''
S''
tp1031
a(S'verify'
S'front'
S' lamp'
tp1032
aa(lp1033
(S'travel'
S''
S''
tp1034
a(S'verify'
S'at'
S' sofa'
tp1035
a(S'turn'
S'right'
S''
tp1036
aa(lp1037
(S'travel'
S''
S''
tp1038
a(S'verify'
p1039
S'front'
S' wood hallway'
tp1040
a(g1039
S'back'
S' wood hallway'
tp1041
aa(lp1042
(S'verify'
p1043
S'right'
S' lamp'
p1044
tp1045
a(g1043
S'back'
S' hatrack'
tp1046
aa(lp1047
(S'travel'
S'steps'
S' 2'
tp1048
a(S'verify'
S'at'
S' chair'
tp1049
aa(lp1050
(S'turn'
S'right'
S''
tp1051
aa(lp1052
(S'verify'
S'front'
S' flower hallway'
tp1053
a(S'travel'
S''
S''
tp1054
a(S'verify'
S'side'
S' blue hallway'
tp1055
aa(lp1056
(S'turn'
S''
S''
tp1057
a(S'verify'
S'front'
S' brick hallway'
tp1058
a(S'travel'
S''
S''
tp1059
a(S'verify'
S'side'
S' wood hallway'
p1060
tp1061
aa(lp1062
(S'travel'
S''
S''
tp1063
a(S'verify'
S'side'
S' blue hallway'
tp1064
aa(lp1065
(S'turn'
S''
S''
tp1066
a(S'verify'
S'front'
S' brick hallway'
tp1067
a(S'travel'
S''
S''
tp1068
a(S'verify'
S'side'
S' gravel hallway'
tp1069
aa(lp1070
(S'travel'
S''
S''
tp1071
a(S'verify'
S'at'
S' hatrack'
tp1072
aa(lp1073
(S'travel'
S'steps'
S' 1'
tp1074
aa(lp1075
(S'travel'
S'steps'
S' 1'
tp1076
a(S'verify'
p1077
S'front'
S' wall'
tp1078
a(g1077
S'right'
S' wall'
tp1079
aa(lp1080
(S'travel'
S'steps'
S' 1'
tp1081
aa(lp1082
(S'verify'
S'front'
S' blue hallway'
tp1083
a(S'travel'
S''
S''
tp1084
a(S'verify'
p1085
S'side'
S' grass hallway'
tp1086
a(g1085
S'front'
S' wall'
tp1087
aa(lp1088
(S'turn'
S'left'
S''
tp1089
aa(lp1090
(S'travel'
S''
S''
tp1091
a(S'verify'
S'at'
S' chair'
tp1092
a(S'turn'
S'left'
S''
tp1093
a(S'verify'
S'front'
S' barstool'
p1094
tp1095
aa(lp1096
(S'turn'
S'left'
S''
tp1097
aa(lp1098
(S'verify'
p1099
S'front'
S' chair'
tp1100
a(g1099
S'front'
S' hatrack'
tp1101
a(S'travel'
S''
S''
tp1102
a(S'verify'
p1103
S'back'
S' chair'
tp1104
a(g1103
S'back'
S' hatrack'
tp1105
aa(lp1106
(S'verify'
S'front'
S' easel'
tp1107
a(S'travel'
S'steps'
S' 2'
tp1108
a(S'verify'
p1109
S'back'
S' easel'
tp1110
a(g1109
S'side'
S' brick hallway'
tp1111
aa(lp1112
(S'turn'
S'right'
S''
tp1113
aa(lp1114
(S'travel'
S''
S''
tp1115
a(S'verify'
S'front'
S' butterfly wall'
tp1116
aa(lp1117
(S'travel'
S''
S''
tp1118
a(S'verify'
S'right'
S' hallway'
tp1119
aa(lp1120
(S'verify'
S'front'
S' gravel hallway'
tp1121
a(S'travel'
S''
S''
tp1122
a(S'verify'
S'side'
S' yellow hallway'
tp1123
aa(lp1124
(S'travel'
S''
S''
tp1125
a(S'verify'
S'left'
S' hallway'
tp1126
a(S'turn'
S'left'
S''
tp1127
aa(lp1128
(S'travel'
S'steps'
S' 4'
tp1129
aa(lp1130
(S'travel'
S'steps'
S' 1'
tp1131
a(S'turn'
S'left'
S''
tp1132
a(S'verify'
S'front'
S' blue hallway'
tp1133
aa(lp1134
(S'turn'
S'left'
S''
tp1135
aa(lp1136
(S'travel'
S''
S''
tp1137
a(S'verify'
S'left'
S' hallway'
tp1138
aa(lp1139
(S'travel'
S'steps'
S' 1'
tp1140
aa(lp1141
(S'travel'
S'steps'
S' 1'
tp1142
aa(lp1143
(S'turn'
S'left'
S''
tp1144
aa(lp1145
(S'verify'
S'front'
S' lamp'
tp1146
a(S'travel'
S''
S''
tp1147
aa(lp1148
(S'travel'
S'steps'
S' 1'
tp1149
a(S'verify'
S'side'
S' blue hallway'
tp1150
aa(lp1151
(S'turn'
S''
S''
tp1152
a(S'verify'
p1153
S'back'
S' wall'
tp1154
a(g1153
S'front'
S' flower hallway'
tp1155
a(S'travel'
S'steps'
S' 1'
tp1156
aa(lp1157
(S'turn'
S'right'
S''
tp1158
a(S'verify'
p1159
S'front'
S' blue hallway'
tp1160
a(g1159
S'front'
S' hatrack'
tp1161
a(S'travel'
S''
S''
tp1162
aa(lp1163
(S'travel'
S''
S''
tp1164
a(S'verify'
S'front'
S' flower hallway'
tp1165
aa(lp1166
(S'turn'
S'left'
S''
tp1167
aa(lp1168
(S'turn'
S'right'
S''
tp1169
a(S'verify'
S'front'
S' brick hallway'
tp1170
a(S'travel'
S''
S''
tp1171
a(S'verify'
S'at'
S' lamp'
tp1172
a(S'travel'
S'steps'
S' 2'
tp1173
aa(lp1174
(S'verify'
p1175
S'right'
S' tower wall'
tp1176
a(g1175
S'left'
S' butterfly wall'
tp1177
aa(lp1178
(S'travel'
S''
S''
tp1179
a(S'verify'
S'at'
S' chair'
tp1180
aa(lp1181
(S'turn'
S''
S''
tp1182
a(S'verify'
S'back'
S' wall'
tp1183
a(S'turn'
S'right'
S''
tp1184
a(S'travel'
S''
S''
tp1185
a(S'verify'
p1186
S'front'
S' wall'
tp1187
a(g1186
S'left'
S' wall'
tp1188
aa(lp1189
(S'verify'
S'at'
S' 3-intersection'
tp1190
aa(lp1191
(S'turn'
S''
S''
tp1192
a(S'verify'
S'front'
S' chair'
tp1193
a(S'travel'
S''
S''
tp1194
a(S'verify'
p1195
S'back'
S' chair'
tp1196
a(g1195
S'at'
S' barstool'
tp1197
aa(lp1198
(S'turn'
S'left'
S''
tp1199
aa(lp1200
(S'turn'
S''
S''
tp1201
a(S'verify'
S'front'
S' easel'
tp1202
aa(lp1203
(S'turn'
S'left'
S''
tp1204
aa(lp1205
(S'travel'
S''
S''
tp1206
a(S'verify'
p1207
S'front'
S' hallway'
tp1208
a(g1207
S'back'
S' hallway'
tp1209
a(g1207
S'left'
S' hallway'
tp1210
aa(lp1211
(S'turn'
S'right'
S''
tp1212
aa(lp1213
(S'turn'
S'left'
S''
tp1214
aa(lp1215
(S'verify'
S'left'
S' sofa'
tp1216
aa(lp1217
(S'travel'
S''
S''
tp1218
a(S'verify'
p1219
S'front'
S' concrete hallway'
tp1220
a(g1219
S'side'
S' gravel hallway'
tp1221
aa(lp1222
(S'turn'
S''
S''
tp1223
a(S'verify'
S'back'
S' wall'
tp1224
a(S'travel'
S'steps'
S' 1'
tp1225
aa(lp1226
(S'turn'
S'left'
S''
tp1227
aa(lp1228
(S'travel'
S''
S''
tp1229
a(S'verify'
S'front'
S' wall'
tp1230
a(S'turn'
S'right'
S''
tp1231
aa(lp1232
(S'travel'
S''
S''
tp1233
a(S'verify'
S'right'
S' hallway'
tp1234
a(S'turn'
S'right'
S''
tp1235
aa(lp1236
(S'turn'
S''
S''
tp1237
aa(lp1238
(S'turn'
S'left'
S''
tp1239
aa(lp1240
(S'turn'
S'left'
S''
tp1241
aa(lp1242
(S'travel'
S''
S''
tp1243
a(S'verify'
p1244
S'front'
S' wall'
tp1245
a(g1244
S'right'
S' wall'
tp1246
a(g1244
S'left'
S' concrete hallway'
tp1247
a(g1244
S'back'
S' concrete hallway'
tp1248
aa(lp1249
(S'verify'
S'front'
S' easel'
tp1250
a(S'travel'
S''
S''
tp1251
a(S'verify'
p1252
S'back'
S' easel'
tp1253
a(g1252
S'front'
S' wall'
tp1254
a(g1252
S'left'
S' wall'
tp1255
a(S'turn'
S'right'
S''
tp1256
a(S'verify'
S'front'
S' blue hallway'
tp1257
aa(lp1258
(S'turn'
S'left'
S''
tp1259
aa(lp1260
(S'travel'
S'steps'
S' 1'
tp1261
aa(lp1262
(S'verify'
S'left'
S' tower wall'
tp1263
aa(lp1264
(S'travel'
S'steps'
S' 1'
tp1265
a(S'verify'
p1266
S'front'
S' concrete hallway'
tp1267
a(g1266
S'side'
S' blue hallway'
tp1268
aa(lp1269
(S'verify'
S'front'
S' easel'
tp1270
aa(lp1271
(S'turn'
S'left'
S''
tp1272
aa(lp1273
(S'turn'
S''
S''
tp1274
a(S'verify'
p1275
S'left'
S' blue hallway'
tp1276
a(g1275
S'right'
S' blue hallway'
tp1277
a(g1275
S'front'
S' hallway'
tp1278
a(g1275
S'back'
S' wall'
tp1279
aa(lp1280
(S'travel'
S''
S''
tp1281
a(S'verify'
S'at'
S' lamp'
tp1282
a(S'turn'
S'left'
S''
tp1283
a(S'travel'
S''
S''
tp1284
a(S'verify'
p1285
S'front'
S' wall'
tp1286
a(g1285
S'left'
S' wall'
tp1287
a(S'turn'
S'right'
S''
tp1288
a(S'verify'
S'front'
S' wood hallway'
tp1289
aa(lp1290
(S'turn'
S'left'
S''
tp1291
aa(lp1292
(S'travel'
S''
S''
tp1293
a(S'verify'
S'front'
S' butterfly wall'
tp1294
aa(lp1295
(S'turn'
S''
S''
tp1296
a(S'verify'
S'front'
S' hatrack'
tp1297
a(S'travel'
S''
S''
tp1298
a(S'verify'
S'at'
S' hatrack'
tp1299
aa(lp1300
(S'travel'
S''
S''
tp1301
a(S'verify'
p1302
S'front'
S' wall'
tp1303
a(g1302
S'left'
S' wall'
tp1304
aa(lp1305
(S'verify'
p1306
S'at'
S' chair'
tp1307
a(g1306
S'front'
S' chair'
tp1308
a(S'travel'
S''
S''
tp1309
a(S'verify'
S'at'
S' chair'
tp1310
a(S'turn'
S''
S''
tp1311
a(S'verify'
S'front'
S' brick hallway'
tp1312
aa(lp1313
(S'turn'
S'left'
S''
tp1314
aa(lp1315
(S'turn'
S''
S''
tp1316
a(S'verify'
S'left'
S' wall'
tp1317
aa(lp1318
(S'turn'
S''
S''
tp1319
a(S'verify'
S'front'
S' gravel hallway'
tp1320
a(S'travel'
S''
S''
tp1321
a(S'verify'
S'side'
S' brick hallway'
tp1322
aa(lp1323
(S'verify'
S'front'
S' easel'
tp1324
aa(lp1325
(S'turn'
S'left'
S''
tp1326
aa(lp1327
(S'turn'
S''
S''
tp1328
a(S'verify'
p1329
S'back'
S' wall'
tp1330
a(g1329
S'at'
S' 3-intersection'
tp1331
aa(lp1332
(S'travel'
S''
S''
tp1333
a(S'verify'
p1334
S'front'
S' wall'
tp1335
a(g1334
S'left'
S' wall'
tp1336
a(S'turn'
S'right'
S''
tp1337
a(S'verify'
S'front'
S' easel'
tp1338
aa(lp1339
(S'travel'
S''
S''
tp1340
a(S'verify'
p1341
S'front'
S' wall'
tp1342
a(g1341
S'left'
S' wall'
tp1343
aa(lp1344
(S'turn'
S'right'
S''
tp1345
aa(lp1346
(S'travel'
S''
S''
tp1347
a(S'verify'
S'side'
S' flower hallway'
tp1348
a(S'turn'
S'left'
S''
tp1349
aa(lp1350
(S'turn'
S''
S''
tp1351
a(S'verify'
S'front'
S' sofa'
tp1352
aa(lp1353
(S'turn'
S''
S''
tp1354
a(S'verify'
p1355
S'left'
S' gravel hallway'
tp1356
a(g1355
S'left'
S' easel'
tp1357
a(g1355
S'front'
S' yellow hallway'
tp1358
aa(lp1359
(S'turn'
S'right'
S''
tp1360
a(S'verify'
S'front'
S' wood hallway'
tp1361
aa(lp1362
(g339
S''
S''
tp1363
aa(lp1364
(S'verify'
p1365
S'front'
S' sofa'
tp1366
a(g1365
S'right'
S' chair'
tp1367
aa(lp1368
(S'turn'
S''
S''
tp1369
a(S'verify'
S'front'
S' grass hallway'
tp1370
a(S'travel'
S'steps'
S' 2'
tp1371
a(S'verify'
S'at'
S' hatrack'
tp1372
aa(lp1373
(S'turn'
S'left'
S''
tp1374
a(S'verify'
S'front'
S' easel'
tp1375
aa(lp1376
(S'travel'
S'steps'
S' 2'
tp1377
aa(lp1378
(S'verify'
S'left'
S' grass hallway'
tp1379
aa(lp1380
(S'travel'
S''
S''
tp1381
a(S'verify'
S'side'
S' concrete hallway'
tp1382
aa(lp1383
(S'travel'
S'steps'
S' 1'
tp1384
aa(lp1385
(S'turn'
S'right'
S''
tp1386
a(S'travel'
S'steps'
S' 4'
tp1387
aa(lp1388
(S'travel'
S''
S''
tp1389
a(S'verify'
S'side'
S' gravel hallway'
tp1390
aa(lp1391
(S'travel'
S'steps'
S' 1'
tp1392
a(S'verify'
S'side'
S' grass hallway'
tp1393
aa(lp1394
(S'travel'
S''
S''
tp1395
a(S'verify'
p1396
S'front'
S' butterfly wall'
tp1397
a(g1396
S'back'
S' butterfly wall'
p1398
tp1399
aa(lp1400
(S'turn'
S''
S''
tp1401
a(S'verify'
S'front'
S' flower hallway'
tp1402
aa(lp1403
(S'verify'
S'at'
S' easel'
tp1404
aa(lp1405
(S'travel'
S'steps'
S' 4'
tp1406
aa(lp1407
(S'turn'
S'left'
S''
tp1408
a(S'travel'
S''
S''
tp1409
a(S'verify'
S'at'
S' easel'
tp1410
aa(lp1411
(S'travel'
S'steps'
S' 1'
tp1412
a(S'verify'
S'side'
S' brick hallway'
tp1413
aa(lp1414
(S'travel'
S'steps'
S' 1'
tp1415
aa(lp1416
(S'travel'
S''
S''
tp1417
a(S'verify'
S'side'
S' concrete hallway'
tp1418
aa(lp1419
(S'verify'
S'front'
S' wood hallway'
tp1420
aa(lp1421
(S'turn'
S''
S''
tp1422
a(S'verify'
S'front'
S' sofa'
p1423
tp1424
a(S'travel'
S''
S''
tp1425
a(S'verify'
S'at'
S' sofa'
tp1426
aa(lp1427
(S'travel'
S'steps'
S' 1'
tp1428
a(S'verify'
S'side'
S' blue hallway'
tp1429
aa(lp1430
(S'turn'
S'left'
S''
tp1431
a(S'verify'
S'front'
S' brick hallway'
tp1432
aa(lp1433
(S'turn'
S''
S''
tp1434
a(S'verify'
p1435
S'left'
S' wall'
tp1436
a(g1435
S'right'
S' flower hallway'
tp1437
aa(lp1438
(S'turn'
S''
S''
tp1439
a(S'verify'
S'front'
S' gravel hallway'
tp1440
a(S'travel'
S''
S''
tp1441
a(S'verify'
S'side'
S' blue hallway'
tp1442
aa(lp1443
(S'travel'
S'steps'
S' 2'
tp1444
aa(lp1445
(S'turn'
S'right'
S''
tp1446
a(S'travel'
S''
S''
tp1447
a(S'verify'
p1448
S'right'
S' wall'
tp1449
a(g1448
S'left'
S' wall'
tp1450
a(g1448
S'front'
S' wall'
tp1451
aa(lp1452
(S'turn'
S''
S''
tp1453
a(S'verify'
S'front'
S' grass hallway'
tp1454
aa(lp1455
(S'travel'
S'steps'
S' 1'
tp1456
aa(lp1457
(S'verify'
p1458
S'front'
S' wall'
tp1459
a(g1458
S'left'
S' brick hallway'
tp1460
a(g1458
S'right'
S' brick hallway'
tp1461
aa(lp1462
(S'turn'
S'right'
S''
tp1463
aa(lp1464
(S'travel'
S'steps'
S' 1'
tp1465
a(S'verify'
S'side'
S' blue hallway'
tp1466
aa(lp1467
(S'travel'
S''
S''
tp1468
a(S'verify'
S'front'
S' wall'
tp1469
a(S'turn'
S'left'
S''
tp1470
aa(lp1471
(S'turn'
S''
S''
tp1472
a(S'verify'
p1473
S'front'
S' brick hallway'
tp1474
a(g1473
S'front'
S' lamp'
tp1475
a(S'travel'
S''
S''
tp1476
a(S'verify'
S'side'
S' gravel hallway'
tp1477
aa(lp1478
(S'travel'
S'steps'
S' 1'
tp1479
aa(lp1480
(S'turn'
S'right'
S''
tp1481
aa(lp1482
(S'travel'
S'steps'
S' 1'
tp1483
a(S'verify'
S'at'
S' chair'
tp1484
aa(lp1485
(S'turn'
S''
S''
tp1486
a(S'verify'
p1487
S'right'
S' wall'
tp1488
a(g1487
S'back'
S' wall'
tp1489
aa(lp1490
(S'turn'
S'left'
S''
tp1491
aa(lp1492
(S'turn'
S''
S''
tp1493
a(S'verify'
S'front'
S' easel'
tp1494
aa(lp1495
(S'verify'
S'side'
S' yellow hallway'
tp1496
aa(lp1497
(S'verify'
p1498
S'front'
S' chair'
tp1499
a(g1498
S'front'
S' hatrack'
tp1500
aa(lp1501
(S'turn'
S'left'
S''
tp1502
aa(lp1503
(S'travel'
S''
S''
tp1504
a(S'verify'
S'front'
S' fish wall'
tp1505
aa(lp1506
(S'travel'
S'steps'
S' 2'
tp1507
a(S'verify'
S'side'
S' yellow hallway'
tp1508
aa(lp1509
(S'turn'
S'right'
S''
tp1510
aa(lp1511
(S'turn'
S''
S''
tp1512
a(S'verify'
p1513
S'left'
S' wall'
tp1514
a(g1513
S'back'
S' wall'
tp1515
aa(lp1516
(S'turn'
S'right'
S''
tp1517
a(S'verify'
S'front'
S' flower hallway'
tp1518
aa(lp1519
(S'turn'
S'left'
S''
tp1520
aa(lp1521
(S'turn'
S'right'
S''
tp1522
a(S'verify'
S'front'
S' flower hallway'
tp1523
aa(lp1524
(S'turn'
S'right'
S''
tp1525
a(S'verify'
S'front'
S' gravel hallway'
tp1526
a(S'travel'
S''
S''
tp1527
a(S'verify'
p1528
S'front'
S' gravel hallway'
tp1529
a(g1528
S'side'
S' yellow hallway'
tp1530
aa(lp1531
(S'travel'
S'steps'
S' 1'
tp1532
aa(lp1533
(S'turn'
S'right'
S''
tp1534
aa(lp1535
(S'verify'
S'front'
S' grass hallway'
tp1536
a(S'travel'
S''
S''
tp1537
a(S'verify'
S'front'
S' wall'
tp1538
aa(lp1539
(S'travel'
S'steps'
S' 1'
tp1540
a(S'turn'
S'left'
S''
tp1541
aa(lp1542
(S'turn'
S''
S''
tp1543
a(S'verify'
p1544
S'front'
S' gravel hallway'
tp1545
a(g1544
S'front'
S' easel'
tp1546
aa(lp1547
(S'turn'
S'left'
S''
tp1548
a(S'verify'
S'front'
S' yellow hallway'
tp1549
aa(lp1550
(S'travel'
S'steps'
S' 1'
tp1551
a(S'verify'
S'side'
S' brick hallway'
tp1552
aa(lp1553
(S'turn'
S''
S''
tp1554
a(S'verify'
S'front'
S' lamp'
tp1555
a(S'travel'
S''
S''
tp1556
a(S'verify'
S'at'
S' lamp'
tp1557
aa(lp1558
(S'verify'
S'at'
S' easel'
tp1559
aa(lp1560
(S'turn'
S'left'
S''
tp1561
aa(lp1562
(S'turn'
S'left'
S''
tp1563
aa(lp1564
(S'turn'
S''
S''
tp1565
a(S'verify'
S'front'
S' flower hallway'
tp1566
a(S'travel'
S''
S''
tp1567
a(S'verify'
S'side'
S' brick hallway'
tp1568
aa(lp1569
(S'travel'
S'steps'
S' 1'
tp1570
a(S'turn'
S'right'
S''
tp1571
aa(lp1572
(S'travel'
S'steps'
S' 2'
tp1573
a(S'turn'
S'right'
S''
tp1574
aa(lp1575
(S'travel'
S'steps'
S' 2'
tp1576
aa(lp1577
(S'turn'
S'right'
S''
tp1578
aa(lp1579
(S'turn'
S'left'
S''
tp1580
aa(lp1581
(S'turn'
S''
S''
tp1582
a(S'verify'
S'front'
S' flower hallway'
tp1583
a(S'travel'
S''
S''
tp1584
a(S'verify'
S'side'
S' brick hallway'
tp1585
aa(lp1586
(S'turn'
S''
S''
tp1587
a(S'verify'
p1588
S'front'
S' brick hallway'
tp1589
a(g1588
S'front'
S' butterfly wall'
tp1590
aa(lp1591
(S'verify'
S'front'
S' flower hallway'
tp1592
a(S'travel'
S''
S''
tp1593
a(S'verify'
S'at'
S' hatrack'
p1594
tp1595
aa(lp1596
(S'turn'
S'left'
S''
tp1597
a(S'travel'
S''
S''
tp1598
a(S'verify'
p1599
S'front'
S' wall'
tp1600
a(g1599
S'left'
S' wall'
tp1601
a(g1599
S'right'
S' wall'
tp1602
aa(lp1603
(S'travel'
S''
S''
tp1604
a(S'verify'
S'at'
S' lamp'
tp1605
a(S'travel'
S'steps'
S' 1'
tp1606
aa(lp1607
(S'turn'
S'right'
S''
tp1608
aa(lp1609
(S'turn'
S''
S''
tp1610
a(S'verify'
p1611
S'front'
S' lamp'
tp1612
a(g1611
S'front'
S' brick hallway'
tp1613
a(S'travel'
S''
S''
tp1614
a(S'turn'
S'right'
S''
tp1615
a(S'verify'
S'front'
S' wood hallway'
tp1616
aa(lp1617
(S'turn'
S'left'
S''
tp1618
aa(lp1619
(S'travel'
S''
S''
tp1620
a(S'verify'
p1621
S'front'
S' wall'
tp1622
a(g1621
S'left'
S' wall'
tp1623
aa(lp1624
(S'turn'
S'left'
S''
tp1625
aa(lp1626
(S'verify'
S'at'
S' sofa'
tp1627
aa(lp1628
(S'turn'
S'left'
S''
tp1629
aa(lp1630
(S'travel'
S''
S''
tp1631
a(S'verify'
S'side'
S' hallway'
tp1632
a(S'turn'
S'right'
S''
tp1633
aa(lp1634
(S'travel'
S''
S''
tp1635
a(S'verify'
S'left'
S' hallway'
tp1636
a(S'turn'
S'left'
S''
tp1637
aa(lp1638
(S'turn'
S'right'
S''
tp1639
aa(lp1640
(S'travel'
S'steps'
S' 1'
tp1641
aa(lp1642
(S'turn'
S''
S''
tp1643
a(S'verify'
S'right'
S' wall'
tp1644
aa(lp1645
(S'turn'
S''
S''
tp1646
a(S'verify'
S'front'
S' gravel hallway'
tp1647
aa(lp1648
(g339
S''
S''
tp1649
aa(lp1650
(S'travel'
S'steps'
S' 1'
tp1651
a(S'turn'
S'right'
S''
tp1652
a(S'travel'
S''
S''
tp1653
a(S'verify'
S'front'
S' wall'
tp1654
aa(lp1655
(S'turn'
S'left'
S''
tp1656
aa(lp1657
(S'turn'
S''
S''
tp1658
a(S'verify'
S'front'
S' yellow hallway'
tp1659
aa(lp1660
(S'turn'
S'right'
S''
tp1661
aa(lp1662
(S'turn'
S'right'
S''
tp1663
a(S'verify'
S'front'
S' flower hallway'
tp1664
a(S'travel'
S''
S''
tp1665
a(S'verify'
S'left'
S' yellow hallway'
p1666
tp1667
aa(lp1668
(S'travel'
S'steps'
S' 1'
tp1669
aa(lp1670
(S'turn'
S''
S''
tp1671
a(S'verify'
S'left'
S' easel'
tp1672
aa(lp1673
(S'verify'
p1674
S'left'
S' flower hallway'
tp1675
a(g1674
S'right'
S' flower hallway'
tp1676
aa(lp1677
(S'turn'
S'right'
S''
tp1678
aa(lp1679
(S'turn'
S'right'
S''
tp1680
aa(lp1681
(S'travel'
S'steps'
S' 2'
tp1682
aa(lp1683
(S'verify'
S'front'
S' brick hallway'
tp1684
a(S'travel'
S''
S''
tp1685
a(S'verify'
S'front'
S' wall'
tp1686
a(S'turn'
S'right'
S''
tp1687
aa(lp1688
(S'turn'
S'left'
S''
tp1689
aa(lp1690
(S'travel'
S''
S''
tp1691
a(S'verify'
p1692
S'front'
S' flower hallway'
tp1693
a(g1692
S'at'
S' easel'
tp1694
aa(lp1695
(S'verify'
S'front'
S' lamp'
tp1696
a(S'travel'
S'steps'
S' 3'
tp1697
a(S'verify'
S'back'
S' lamp'
tp1698
aa(lp1699
(S'turn'
S''
S''
tp1700
a(S'verify'
S'front'
S' lamp'
tp1701
aa(lp1702
(S'travel'
S''
S''
tp1703
aa(lp1704
(S'turn'
S'left'
S''
tp1705
aa(lp1706
(S'travel'
S'steps'
S' 1'
tp1707
a(S'verify'
S'side'
S' flower hallway'
tp1708
aa(lp1709
(S'travel'
S''
S''
tp1710
a(S'verify'
S'front'
S' wall'
tp1711
aa(lp1712
(S'verify'
S'at'
S' easel'
tp1713
aa(lp1714
(S'turn'
S'left'
S''
tp1715
aa(lp1716
(S'verify'
S'left'
S' concrete hallway'
tp1717
aa(lp1718
(S'travel'
S'steps'
S' 1'
tp1719
a(S'turn'
S'left'
S''
tp1720
a(S'verify'
S'front'
S' blue hallway'
tp1721
aa(lp1722
(S'travel'
S'steps'
S' 1'
tp1723
aa(lp1724
(S'travel'
S''
S''
tp1725
a(S'verify'
S'left'
S' flower hallway'
tp1726
a(S'travel'
S''
S''
tp1727
aa(lp1728
(S'travel'
S'steps'
S' 1'
tp1729
aa(lp1730
(S'turn'
S'left'
S''
tp1731
aa(lp1732
(S'travel'
S''
S''
tp1733
a(S'turn'
S''
S''
tp1734
a(S'travel'
S''
S''
tp1735
a(S'turn'
S''
S''
tp1736
a(S'travel'
S''
S''
tp1737
a(S'turn'
S''
S''
tp1738
aa(lp1739
(S'travel'
S'steps'
S' 1'
tp1740
a(S'verify'
S'side'
S' gravel hallway'
tp1741
aa(lp1742
(S'turn'
S'right'
S''
tp1743
a(S'travel'
S'steps'
S' 3'
tp1744
aa(lp1745
(S'turn'
S''
S''
tp1746
aa(lp1747
(S'turn'
S''
S''
tp1748
a(S'verify'
S'front'
S' brick hallway'
tp1749
aa(lp1750
(S'travel'
S'steps'
S' 3'
tp1751
aa(lp1752
(g339
S''
S''
tp1753
aa(lp1754
(S'travel'
S''
S''
tp1755
a(S'verify'
S'at'
S' hatrack'
tp1756
a(S'turn'
S'left'
S''
tp1757
a(S'verify'
S'front'
S' grass hallway'
tp1758
aa(lp1759
(S'travel'
S'steps'
S' 1'
tp1760
aa(lp1761
(S'travel'
S'steps'
S' 1'
tp1762
aa(lp1763
(S'turn'
S'right'
S''
tp1764
aa(lp1765
(S'turn'
S'right'
S''
tp1766
aa(lp1767
(S'turn'
S'left'
S''
tp1768
aa(lp1769
(S'turn'
S''
S''
tp1770
a(S'verify'
S'front'
S' yellow hallway'
tp1771
a(S'travel'
S''
S''
tp1772
a(S'verify'
S'front'
S' wall'
tp1773
aa(lp1774
(S'turn'
S'left'
S''
tp1775
aa(lp1776
(S'verify'
p1777
S'back'
S' butterfly wall'
tp1778
a(g1777
S'left'
S' butterfly wall'
tp1779
aa(lp1780
(S'travel'
S'steps'
S' 1'
tp1781
a(S'verify'
S'at'
S' lamp'
tp1782
aa(lp1783
(S'turn'
S'left'
S''
tp1784
a(S'verify'
S'front'
S' brick hallway'
tp1785
aa(lp1786
(S'turn'
S'right'
S''
tp1787
a(S'travel'
S''
S''
tp1788
a(S'verify'
p1789
S'left'
S' wall'
tp1790
a(g1789
S'front'
S' wall'
tp1791
aa(lp1792
(S'turn'
S'left'
S''
tp1793
aa(lp1794
(S'verify'
S'at'
S' hatrack'
tp1795
a(S'turn'
S'left'
S''
tp1796
a(S'verify'
S'front'
S' yellow hallway'
tp1797
a(S'travel'
S''
S''
tp1798
a(S'verify'
S'front'
S' wall'
tp1799
aa(lp1800
(S'turn'
S''
S''
tp1801
a(S'verify'
S'front'
S' lamp'
tp1802
aa(lp1803
(S'travel'
S''
S''
tp1804
a(S'verify'
S'right'
S' hallway'
tp1805
a(S'turn'
S'right'
S''
tp1806
aa(lp1807
(S'turn'
S''
S''
tp1808
a(S'verify'
S'front'
S' chair'
tp1809
a(S'travel'
S''
S''
tp1810
a(S'verify'
S'at'
S' chair'
tp1811
aa(lp1812
(S'turn'
S''
S''
tp1813
a(S'verify'
S'front'
S' chair'
tp1814
aa(lp1815
(S'turn'
S''
S''
tp1816
aa(lp1817
(S'verify'
S'at'
S' sofa'
tp1818
aa(lp1819
(S'travel'
S''
S''
tp1820
a(S'verify'
S'right'
S' hallway'
tp1821
a(S'turn'
S'right'
S''
tp1822
a(S'verify'
S'front'
S' gravel hallway'
tp1823
aa(lp1824
(S'turn'
S''
S''
tp1825
a(S'verify'
p1826
S'front'
S' yellow hallway'
tp1827
a(g1826
S'front'
S' hatrack'
tp1828
aa(lp1829
(S'verify'
p1830
S'right'
S' chair'
tp1831
a(g1830
S'front'
S' sofa'
tp1832
aa(lp1833
(S'turn'
S''
S''
tp1834
a(S'travel'
S''
S''
tp1835
a(S'verify'
p1836
S'front'
S' wall'
tp1837
a(g1836
S'right'
S' wall'
tp1838
a(g1836
S'left'
S' wall'
tp1839
aa(lp1840
(S'turn'
S'right'
S''
tp1841
aa(lp1842
(S'travel'
S'steps'
S' 1'
tp1843
aa(lp1844
(S'turn'
S''
S''
tp1845
a(S'verify'
p1846
S'front'
S' wood hallway'
tp1847
a(g1846
S'front'
S' easel'
tp1848
aa(lp1849
(S'verify'
p1850
S'left'
p1851
S' concrete hallway'
p1852
tp1853
a(g1850
S'left'
S' chair'
p1854
tp1855
aa(lp1856
(S'turn'
S'right'
S''
tp1857
a(S'travel'
S'steps'
S' 1'
tp1858
aa(lp1859
(S'travel'
S'steps'
S' 1'
tp1860
aa(lp1861
(S'travel'
S'steps'
S' 1'
tp1862
aa(lp1863
(S'turn'
S''
S''
tp1864
a(S'verify'
p1865
S'front'
S' gravel hallway'
tp1866
a(g1865
S'front'
S' easel'
tp1867
aa(lp1868
(S'travel'
S'steps'
S' 1'
tp1869
aa(lp1870
(S'turn'
S''
S''
tp1871
a(S'verify'
p1872
S'right'
S' wall'
tp1873
a(g1872
S'back'
S' wall'
tp1874
aa(lp1875
(g339
S''
S''
tp1876
aa(lp1877
(S'travel'
S'steps'
S' 1'
tp1878
aa(lp1879
(S'verify'
p1880
S'front'
S' chair'
tp1881
a(g1880
S'front'
S' wood hallway'
tp1882
aa(lp1883
(S'turn'
S''
S''
tp1884
a(S'verify'
p1885
S'back'
S' wall'
tp1886
a(g1885
S'at'
S' 3-intersection'
tp1887
aa(lp1888
(S'verify'
S'front'
S' barstool'
tp1889
a(S'travel'
S''
S''
tp1890
a(S'verify'
p1891
S'back'
S' barstool'
tp1892
a(g1891
S'front'
S' sofa'
tp1893
aa(lp1894
(S'turn'
S''
S''
tp1895
a(S'verify'
p1896
S'back'
S' wall'
tp1897
a(g1896
S'at'
S' 3-intersection'
tp1898
aa(lp1899
(S'turn'
S'left'
S''
tp1900
a(S'travel'
S''
S''
tp1901
a(S'verify'
S'at'
S' lamp'
tp1902
a(S'travel'
S'steps'
S' 1'
tp1903
aa(lp1904
(S'turn'
S''
S''
tp1905
a(S'verify'
S'front'
S' grass hallway'
tp1906
a(S'travel'
S''
S''
tp1907
a(S'verify'
S'side'
S' yellow hallway'
tp1908
aa(lp1909
(S'verify'
p1910
S'front'
S' wood hallway'
tp1911
a(g1910
S'side'
S' butterfly wall'
tp1912
aa(lp1913
(S'travel'
S'steps'
S' 1'
tp1914
aa(lp1915
(S'turn'
S''
S''
tp1916
a(S'verify'
S'back'
S' lamp'
tp1917
a(S'travel'
S''
S''
tp1918
a(S'verify'
p1919
S'side'
S' wood hallway'
tp1920
a(g1919
S'back'
S' brick hallway'
tp1921
a(g1919
S'front'
S' brick hallway'
tp1922
aa(lp1923
(S'travel'
S'steps'
S' 1'
tp1924
aa(lp1925
(S'verify'
S'back'
S' fish wall'
p1926
tp1927
aa(lp1928
(S'verify'
S'front'
S' butterfly wall'
tp1929
aa(lp1930
(S'travel'
S''
S''
tp1931
a(S'verify'
p1932
S'front'
S' blue hallway'
tp1933
a(g1932
S'back'
S' blue hallway'
tp1934
aa(lp1935
(S'travel'
S''
S''
tp1936
a(S'verify'
S'at'
S' hatrack'
tp1937
a(S'turn'
S'left'
S''
tp1938
a(S'verify'
S'front'
S' concrete hallway'
tp1939
aa(lp1940
(S'turn'
S''
S''
tp1941
a(S'verify'
S'front'
S' easel'
tp1942
aa(lp1943
(S'travel'
S''
S''
tp1944
a(S'verify'
S'at'
S' easel'
tp1945
aa(lp1946
(S'turn'
S''
S''
tp1947
a(S'verify'
S'back'
S' wall'
tp1948
a(S'turn'
S'left'
S''
tp1949
aa(lp1950
(S'verify'
S'front'
S' gravel hallway'
tp1951
a(S'travel'
S''
S''
tp1952
a(S'verify'
S'front'
S' wall'
tp1953
aa(lp1954
(S'travel'
S''
S''
tp1955
a(S'verify'
p1956
S'front'
S' wall'
tp1957
a(g1956
S'left'
S' blue hallway'
tp1958
a(g1956
S'right'
S' blue hallway'
tp1959
aa(lp1960
(S'travel'
S''
S''
tp1961
a(S'verify'
S'front'
S' wall'
tp1962
aa(lp1963
(S'turn'
S''
S''
tp1964
a(S'verify'
p1965
S'front'
S' gravel hallway'
tp1966
a(g1965
S'back'
S' easel'
tp1967
aa(lp1968
(S'travel'
S''
S''
tp1969
a(S'verify'
p1970
S'front'
S' yellow hallway'
tp1971
a(g1970
S'side'
S' gravel hallway'
tp1972
aa(lp1973
(S'turn'
S'right'
S''
tp1974
aa(lp1975
(S'turn'
S''
S''
tp1976
a(S'verify'
p1977
S'front'
S' wood hallway'
tp1978
a(g1977
S'front'
S' easel'
tp1979
a(S'travel'
S''
S''
tp1980
a(S'verify'
S'at'
S' easel'
tp1981
a(S'turn'
S'left'
S''
tp1982
aa(lp1983
(S'verify'
S'left'
S' chair'
tp1984
aa(lp1985
(S'travel'
S''
S''
tp1986
a(S'verify'
S'at'
S' easel'
tp1987
a(S'turn'
S'left'
S''
tp1988
aa(lp1989
(S'travel'
S'steps'
S' 2'
tp1990
aa(lp1991
(S'travel'
S''
S''
tp1992
a(S'verify'
S'at'
S' hatrack'
tp1993
a(S'turn'
S'right'
S''
tp1994
aa(lp1995
(S'travel'
S'steps'
S' 1'
tp1996
aa(lp1997
(S'travel'
S'steps'
S' 1'
tp1998
a(S'turn'
S'left'
S''
tp1999
aa(lp2000
(S'travel'
S'steps'
S' 3'
tp2001
aa(lp2002
(S'turn'
S'right'
S''
tp2003
a(S'verify'
S'front'
S' wood hallway'
tp2004
aa(lp2005
(S'travel'
S''
S''
tp2006
a(S'verify'
S'side'
S' brick hallway'
tp2007
a(S'turn'
S'right'
S''
tp2008
aa(lp2009
(S'verify'
S'back'
S' sofa'
tp2010
aa(lp2011
(S'travel'
S''
S''
tp2012
a(S'verify'
S'side'
S' flower hallway'
tp2013
aa(lp2014
(S'travel'
S'steps'
S' 1'
tp2015
aa(lp2016
(S'verify'
p2017
S'front'
S' brick hallway'
tp2018
a(g2017
S'left'
S' concrete hallway'
tp2019
aa(lp2020
(S'travel'
S'steps'
S' 1'
tp2021
aa(lp2022
(S'travel'
S'steps'
S' 2'
tp2023
aa(lp2024
(S'travel'
S'steps'
S' 1'
tp2025
a(S'verify'
S'side'
S' blue hallway'
tp2026
aa(lp2027
(S'turn'
S''
S''
tp2028
a(S'verify'
S'front'
S' gravel hallway'
tp2029
a(S'travel'
S''
S''
tp2030
a(S'verify'
S'front'
S' wall'
tp2031
aa(lp2032
(S'turn'
S'left'
S''
tp2033
aa(lp2034
(S'travel'
S'steps'
S' 1'
tp2035
aa(lp2036
(S'travel'
S''
S''
tp2037
aa(lp2038
(S'travel'
S'steps'
S' 1'
tp2039
aa(lp2040
(S'travel'
S'steps'
S' 3'
tp2041
aa(lp2042
(S'verify'
S'at'
S' hatrack'
tp2043
a(S'turn'
S'left'
S''
tp2044
a(S'travel'
S''
S''
tp2045
aa(lp2046
(S'turn'
S''
S''
tp2047
a(S'verify'
S'front'
S' brick hallway'
tp2048
aa(lp2049
(S'verify'
S'front'
S' wood hallway'
tp2050
aa(lp2051
(S'turn'
S'left'
S''
tp2052
a(S'verify'
S'front'
S' blue hallway'
tp2053
aa(lp2054
(S'turn'
S''
S''
tp2055
a(S'verify'
p2056
S'right'
S' wall'
tp2057
a(g2056
S'left'
S' wall'
tp2058
a(g2056
S'back'
S' wall'
tp2059
aa(lp2060
(S'turn'
S'left'
S''
tp2061
a(S'verify'
S'front'
S' gravel hallway'
tp2062
aa(lp2063
(S'travel'
S'steps'
S' 1'
tp2064
a(S'verify'
S'at'
S' lamp'
tp2065
aa(lp2066
(S'verify'
S'front'
S' blue hallway'
tp2067
a(S'travel'
S''
S''
tp2068
a(S'verify'
S'left'
S' flower hallway'
tp2069
a(S'travel'
S''
S''
tp2070
aa(lp2071
(S'verify'
S'right'
S' easel'
tp2072
aa(lp2073
(S'travel'
S'steps'
S' 1'
tp2074
aa(lp2075
(S'travel'
S'steps'
S' 2'
tp2076
a(S'verify'
S'front'
S' wall'
tp2077
aa(lp2078
(S'travel'
S'steps'
S' 1'
tp2079
aa(lp2080
(S'verify'
p2081
S'front'
S' lamp'
tp2082
a(g2081
S'front'
S' hatrack'
tp2083
a(S'travel'
S''
S''
tp2084
a(S'verify'
p2085
S'back'
S' lamp'
tp2086
a(g2085
S'back'
S' hatrack'
tp2087
aa(lp2088
(g339
S''
S''
tp2089
aa(lp2090
(S'turn'
S'right'
S''
tp2091
aa(lp2092
(S'turn'
S'right'
S''
tp2093
a(S'verify'
S'front'
S' grass hallway'
tp2094
a(S'travel'
S''
S''
tp2095
a(S'verify'
S'front'
S' wall'
tp2096
aa(lp2097
(S'travel'
S''
S''
tp2098
a(S'verify'
p2099
S'front'
S' wall'
tp2100
a(g2099
S'back'
S' fish wall'
tp2101
aa(lp2102
(S'travel'
S''
S''
tp2103
a(S'verify'
S'at'
S' barstool'
tp2104
aa(lp2105
(S'travel'
S'steps'
S' 6'
tp2106
aa(lp2107
(S'turn'
S'left'
S''
tp2108
aa(lp2109
(S'travel'
S'steps'
S' 1'
tp2110
aa(lp2111
(S'turn'
S''
S''
tp2112
a(S'verify'
S'back'
S' wall'
tp2113
a(S'turn'
S'left'
S''
tp2114
a(S'travel'
S'steps'
S' 2'
tp2115
a(S'verify'
S'side'
S' gravel hallway'
tp2116
aa(lp2117
(S'turn'
S''
S''
tp2118
a(S'verify'
S'front'
S' flower hallway'
tp2119
a(S'travel'
S''
S''
tp2120
a(S'verify'
S'side'
S' brick hallway'
tp2121
aa(lp2122
(S'travel'
S''
S''
tp2123
a(S'verify'
S'at'
S' barstool'
tp2124
aa(lp2125
(S'travel'
S''
S''
tp2126
a(S'verify'
S'at'
S' chair'
tp2127
aa(lp2128
(S'verify'
S'front'
S' yellow hallway'
tp2129
a(S'travel'
S'steps'
S' 3'
tp2130
a(S'verify'
S'side'
S' concrete hallway'
tp2131
aa(lp2132
(S'travel'
S'steps'
S' 1'
tp2133
aa(lp2134
(S'turn'
S'right'
S''
tp2135
a(S'verify'
S'front'
S' flower hallway'
tp2136
aa(lp2137
(S'travel'
S''
S''
tp2138
a(S'verify'
S'front'
S' wall'
tp2139
a(S'turn'
S'right'
S''
tp2140
aa(lp2141
(S'travel'
S''
S''
tp2142
a(S'verify'
S'side'
S' gravel hallway'
tp2143
aa(lp2144
(S'turn'
S'left'
S''
tp2145
aa(lp2146
(S'turn'
S'right'
S''
tp2147
aa(lp2148
(S'verify'
S'front'
S' chair'
tp2149
a(S'travel'
S'steps'
S' 2'
tp2150
a(S'verify'
p2151
S'back'
S' chair'
tp2152
a(g2151
S'at'
S' barstool'
tp2153
aa(lp2154
(g339
S''
S''
tp2155
aa(lp2156
(S'travel'
S''
S''
tp2157
a(S'verify'
p2158
S'side'
S' concrete hallway'
tp2159
a(g2158
S'at'
S' lamp'
tp2160
a(S'travel'
S''
S''
tp2161
aa(lp2162
(S'turn'
S'right'
S''
tp2163
a(S'travel'
S'steps'
S' 1'
tp2164
aa(lp2165
(S'turn'
S''
S''
tp2166
a(S'verify'
S'front'
S' hatrack'
tp2167
aa(lp2168
(S'travel'
S'steps'
S' 1'
tp2169
a(S'verify'
S'side'
S' concrete hallway'
tp2170
aa(lp2171
(S'travel'
S'steps'
S' 2'
tp2172
a(S'verify'
S'right'
S' gravel hallway'
tp2173
aa(lp2174
(S'turn'
S''
S''
tp2175
a(S'verify'
S'front'
S' grass hallway'
tp2176
aa(lp2177
(S'verify'
S'right'
S' concrete hallway'
tp2178
aa(lp2179
(S'travel'
S''
S''
tp2180
a(S'verify'
S'at'
S' sofa'
tp2181
aa(lp2182
(S'verify'
S'front'
S' chair'
tp2183
a(S'travel'
S''
S''
tp2184
a(S'verify'
p2185
S'at'
S' barstool'
tp2186
a(g2185
S'back'
S' chair'
tp2187
aa(lp2188
(S'turn'
S''
S''
tp2189
a(S'verify'
S'back'
S' wall'
tp2190
a(S'turn'
S'left'
S''
tp2191
aa(lp2192
(S'travel'
S''
S''
tp2193
a(S'verify'
p2194
S'front'
S' blue hallway'
tp2195
a(g2194
S'side'
S' flower hallway'
tp2196
aa(lp2197
(S'turn'
S''
S''
tp2198
a(S'verify'
S'front'
S' sofa'
tp2199
a(S'travel'
S''
S''
tp2200
a(S'verify'
S'at'
S' sofa'
tp2201
aa(lp2202
(S'turn'
S''
S''
tp2203
a(S'verify'
S'front'
S' easel'
tp2204
aa(lp2205
(S'travel'
S''
S''
tp2206
a(S'verify'
p2207
S'front'
S' concrete hallway'
tp2208
a(g2207
S'side'
S' concrete hallway'
tp2209
a(g2207
S'front'
S' butterfly wall'
tp2210
a(g2207
S'side'
S' butterfly wall'
p2211
tp2212
aa(lp2213
(S'travel'
S'steps'
S' 1'
tp2214
aa(lp2215
(S'travel'
S'steps'
S' 2'
tp2216
a(S'verify'
S'at'
S' sofa'
tp2217
aa(lp2218
(S'travel'
S'steps'
S' 1'
tp2219
a(S'verify'
S'side'
S' brick hallway'
tp2220
aa(lp2221
(S'turn'
S'right'
S''
tp2222
a(S'verify'
S'front'
S' brick hallway'
tp2223
a(S'travel'
S''
S''
tp2224
a(S'verify'
S'side'
S' flower hallway'
tp2225
aa(lp2226
(S'travel'
S''
S''
tp2227
a(S'verify'
S'at'
S' easel'
tp2228
a(S'turn'
S'left'
S''
tp2229
aa(lp2230
(S'turn'
S'left'
S''
tp2231
aa(lp2232
(S'travel'
S'steps'
S' 1'
tp2233
aa(lp2234
(S'travel'
S''
S''
tp2235
a(S'verify'
S'at'
S' lamp'
tp2236
a(S'travel'
S'steps'
S' 1'
tp2237
aa(lp2238
(S'turn'
S''
S''
tp2239
a(S'verify'
S'right'
S' wall'
tp2240
aa(lp2241
(S'turn'
S''
S''
tp2242
a(S'verify'
S'front'
S' yellow hallway'
tp2243
a(S'travel'
S''
S''
tp2244
a(S'verify'
S'side'
S' wood hallway'
tp2245
aa(lp2246
(S'turn'
S'left'
S''
tp2247
aa(lp2248
(S'travel'
S''
S''
tp2249
a(S'verify'
S'side'
S' gravel hallway'
tp2250
a(S'turn'
S'right'
S''
tp2251
aa(lp2252
(S'turn'
S''
S''
tp2253
a(S'verify'
S'front'
S' yellow hallway'
tp2254
a(S'travel'
S''
S''
tp2255
a(S'verify'
S'side'
S' blue hallway'
tp2256
aa(lp2257
(S'travel'
S'steps'
S' 1'
tp2258
a(S'verify'
S'side'
S' yellow hallway'
tp2259
aa(lp2260
(S'turn'
S'left'
S''
tp2261
aa(lp2262
(S'turn'
S''
S''
tp2263
a(S'verify'
S'front'
S' lamp'
tp2264
aa(lp2265
(S'turn'
S''
S''
tp2266
a(S'verify'
S'front'
S' grass hallway'
tp2267
aa(lp2268
(S'travel'
S''
S''
tp2269
a(S'verify'
S'at'
S' barstool'
tp2270
aa(lp2271
(S'travel'
S''
S''
tp2272
a(S'verify'
S'at'
S' hatrack'
tp2273
a(S'turn'
S'right'
S''
tp2274
a(S'verify'
S'front'
S' blue hallway'
tp2275
aa(lp2276
(S'turn'
S'right'
S''
tp2277
a(S'travel'
S'steps'
S' 1'
tp2278
aa(lp2279
(S'travel'
S'steps'
S' 3'
tp2280
aa(lp2281
(S'turn'
S'left'
S''
tp2282
aa(lp2283
(S'travel'
S''
S''
tp2284
a(S'verify'
S'side'
S' yellow hallway'
tp2285
aa(lp2286
(S'turn'
S''
S''
tp2287
a(S'verify'
S'front'
S' flower hallway'
tp2288
aa(lp2289
(S'turn'
S''
S''
tp2290
a(S'verify'
S'front'
S' grass hallway'
tp2291
a(S'travel'
S''
S''
tp2292
a(S'verify'
S'at'
S' hatrack'
tp2293
aa(lp2294
(S'travel'
S'steps'
S' 3'
tp2295
aa(lp2296
(S'turn'
S'right'
S''
tp2297
aa(lp2298
(S'travel'
S'steps'
S' 3'
tp2299
aa(lp2300
(S'turn'
S'right'
S''
tp2301
a(S'verify'
S'front'
S' flower hallway'
tp2302
aa(lp2303
(S'travel'
S'steps'
S' 2'
tp2304
aa(lp2305
(S'verify'
S'front'
S' gravel hallway'
tp2306
aa(lp2307
(S'travel'
S''
S''
tp2308
a(S'verify'
S'at'
S' barstool'
tp2309
aa(lp2310
(S'verify'
S'front'
S' easel'
tp2311
a(S'travel'
S''
S''
tp2312
a(S'verify'
p2313
S'back'
S' easel'
tp2314
a(g2313
S'front'
S' wall'
tp2315
a(S'turn'
S'left'
S''
tp2316
a(S'verify'
S'front'
S' brick hallway'
tp2317
aa(lp2318
(S'travel'
S''
S''
tp2319
a(S'verify'
S'at'
S' barstool'
tp2320
aa(lp2321
(S'turn'
S'left'
S''
tp2322
aa(lp2323
(S'travel'
S''
S''
tp2324
a(S'verify'
S'front'
S' wall'
tp2325
aa(lp2326
(S'turn'
S'left'
S''
tp2327
aa(lp2328
(S'travel'
S'steps'
S' 2'
tp2329
aa(lp2330
(S'turn'
S'right'
S''
tp2331
aa(lp2332
(S'turn'
S''
S''
tp2333
a(S'verify'
S'front'
S' easel'
tp2334
aa(lp2335
(S'verify'
S'front'
S' gravel hallway'
tp2336
a(S'travel'
S'steps'
S' 2'
tp2337
a(S'verify'
S'side'
S' brick hallway'
tp2338
aa(lp2339
(S'travel'
S''
S''
tp2340
a(S'verify'
S'at'
S' hatrack'
tp2341
a(S'turn'
S'left'
S''
tp2342
aa(lp2343
(S'turn'
S''
S''
tp2344
a(S'verify'
p2345
S'front'
S' blue hallway'
tp2346
a(g2345
S'front'
S' chair'
tp2347
a(S'travel'
S''
S''
tp2348
a(S'verify'
S'front'
S' wall'
tp2349
aa(lp2350
(S'turn'
S''
S''
tp2351
a(S'verify'
S'left'
S' wall'
tp2352
aa(lp2353
(S'travel'
S'steps'
S' 1'
tp2354
aa(lp2355
(S'verify'
S'right'
S' concrete hallway'
tp2356
aa(lp2357
(S'travel'
S''
S''
tp2358
a(S'verify'
p2359
S'front'
S' wall'
tp2360
a(g2359
S'left'
S' wall'
tp2361
a(g2359
S'right'
S' wall'
tp2362
a(g2359
S'back'
S' yellow hallway'
tp2363
a(g2359
S'back'
S' fish wall'
tp2364
aa(lp2365
(S'turn'
S''
S''
tp2366
a(S'verify'
S'right'
S' wall'
tp2367
aa(lp2368
(S'travel'
S''
S''
tp2369
a(S'verify'
p2370
S'front'
S' blue hallway'
tp2371
a(g2370
S'back'
S' blue hallway'
tp2372
aa(lp2373
(S'turn'
S''
S''
tp2374
a(S'verify'
S'front'
S' flower hallway'
tp2375
a(S'travel'
S''
S''
tp2376
a(S'verify'
S'side'
S' brick hallway'
tp2377
aa(lp2378
(S'travel'
S''
S''
tp2379
a(S'verify'
S'side'
S' brick hallway'
tp2380
a(S'turn'
S'left'
S''
tp2381
aa(lp2382
(S'travel'
S''
S''
tp2383
a(S'verify'
S'side'
S' concrete hallway'
tp2384
aa(lp2385
(g339
S''
S''
tp2386
aa(lp2387
(S'travel'
S''
S''
tp2388
a(S'verify'
S'right'
S' concrete hallway'
tp2389
aa(lp2390
(S'travel'
S'steps'
S' 1'
tp2391
aa(lp2392
(S'turn'
S'left'
S''
tp2393
aa(lp2394
(S'travel'
S''
S''
tp2395
aa(lp2396
(S'travel'
S''
S''
tp2397
a(S'verify'
S'front'
S' wall'
tp2398
a(S'turn'
S'left'
S''
tp2399
a(S'verify'
S'front'
S' easel'
tp2400
aa(lp2401
(S'travel'
S'steps'
S' 2'
tp2402
aa(lp2403
(S'turn'
S'left'
S''
tp2404
a(S'verify'
S'front'
S' flower hallway'
tp2405
aa(lp2406
(S'travel'
S''
S''
tp2407
a(S'verify'
S'left'
S' hallway'
tp2408
a(S'turn'
S'left'
S''
tp2409
aa(lp2410
(S'verify'
p2411
S'front'
S' hatrack'
tp2412
a(g2411
S'front'
S' lamp'
tp2413
a(S'travel'
S''
S''
tp2414
a(S'verify'
p2415
S'side'
S' wood hallway'
tp2416
a(g2415
S'back'
S' lamp'
tp2417
a(g2415
S'back'
S' hatrack'
tp2418
aa(lp2419
(S'travel'
S'steps'
S' 2'
tp2420
aa(lp2421
(S'travel'
S''
S''
tp2422
a(S'verify'
p2423
S'front'
S' blue hallway'
tp2424
a(g2423
S'side'
S' flower hallway'
tp2425
aa(lp2426
(S'verify'
S'left'
S' gravel hallway'
tp2427
a(S'turn'
S'left'
S''
tp2428
a(S'travel'
S'steps'
S' 3'
tp2429
a(S'verify'
S'side'
S' blue hallway'
tp2430
aa(lp2431
(S'travel'
S''
S''
tp2432
a(S'verify'
p2433
S'front'
S' wall'
tp2434
a(g2433
S'right'
S' wall'
tp2435
a(g2433
S'back'
S' yellow hallway'
tp2436
a(g2433
S'left'
S' grass hallway'
tp2437
aa(lp2438
(S'travel'
S''
S''
tp2439
a(S'verify'
S'front'
S' wall'
tp2440
a(S'turn'
S'left'
S''
tp2441
aa(lp2442
(S'turn'
S''
S''
tp2443
a(S'verify'
p2444
S'back'
S' wall'
tp2445
a(g2444
S'at'
S' 3-intersection'
p2446
tp2447
aa(lp2448
(S'travel'
S'steps'
S' 1'
tp2449
a(S'verify'
S'front'
S' wall'
tp2450
aa(lp2451
(S'travel'
S'steps'
S' 1'
tp2452
aa(lp2453
(S'verify'
S'front'
S' brick hallway'
tp2454
aa(lp2455
(S'travel'
S'steps'
S' 1'
tp2456
aa(lp2457
(S'verify'
S'front'
S' wood hallway'
p2458
tp2459
a(S'travel'
S''
S''
tp2460
a(S'verify'
S'at'
S' chair'
p2461
tp2462
aa(lp2463
(S'turn'
S'right'
S''
tp2464
aa(lp2465
(S'turn'
S'right'
S''
tp2466
a(S'verify'
S'front'
S' blue hallway'
tp2467
aa(lp2468
(S'turn'
S''
S''
tp2469
a(S'verify'
S'front'
S' chair'
tp2470
aa(lp2471
(S'turn'
S'right'
S''
tp2472
aa(lp2473
(S'verify'
S'front'
S' blue hallway'
tp2474
aa(lp2475
(S'turn'
S''
S''
tp2476
a(S'verify'
S'front'
S' yellow hallway'
tp2477
aa(lp2478
(S'travel'
S''
S''
tp2479
aa(lp2480
(S'travel'
S''
S''
tp2481
a(S'verify'
p2482
S'front'
S' wall'
tp2483
a(g2482
S'left'
S' wall'
tp2484
a(g2482
S'right'
S' wall'
tp2485
a(g2482
S'back'
S' yellow hallway'
tp2486
a(g2482
S'back'
S' fish wall'
tp2487
aa(lp2488
(S'travel'
S'steps'
S' 1'
tp2489
aa(lp2490
(S'travel'
S'steps'
S' 1'
tp2491
a(S'verify'
p2492
S'front'
S' wall'
tp2493
a(g2492
S'right'
S' wall'
tp2494
aa(lp2495
(S'travel'
S'steps'
S' 1'
tp2496
aa(lp2497
(S'turn'
S'right'
S''
tp2498
aa(lp2499
(S'turn'
S''
S''
tp2500
a(S'verify'
p2501
S'front'
S' blue hallway'
tp2502
a(g2501
S'back'
S' sofa'
tp2503
a(g2501
S'back'
S' hatrack'
tp2504
aa(lp2505
(S'turn'
S'right'
S''
tp2506
aa(lp2507
(S'travel'
S'steps'
S' 1'
tp2508
aa(lp2509
(S'turn'
S''
S''
tp2510
a(S'verify'
S'front'
S' flower hallway'
tp2511
aa(lp2512
(S'travel'
S'steps'
S' 2'
tp2513
aa(lp2514
(S'verify'
S'right'
S' blue hallway'
tp2515
aa(lp2516
(S'travel'
S''
S''
tp2517
a(S'verify'
S'side'
S' flower hallway'
tp2518
a(S'turn'
S'left'
S''
tp2519
aa(lp2520
(S'verify'
S'front'
S' grass hallway'
tp2521
a(S'travel'
S''
S''
tp2522
a(S'verify'
S'front'
S' wall'
tp2523
aa(lp2524
(S'verify'
p2525
S'right'
S' concrete hallway'
tp2526
a(g2525
S'front'
S' chair'
tp2527
aa(lp2528
(S'travel'
S'steps'
S' 1'
tp2529
aa(lp2530
(S'travel'
S'steps'
S' 1'
tp2531
a(S'verify'
S'side'
S' flower hallway'
tp2532
aa(lp2533
(S'travel'
S'steps'
S' 1'
tp2534
aa(lp2535
(S'travel'
S''
S''
tp2536
a(S'verify'
S'at'
S' chair'
tp2537
a(S'turn'
S'left'
S''
tp2538
a(S'verify'
S'front'
S' blue hallway'
tp2539
a(S'travel'
S''
S''
tp2540
a(S'verify'
S'front'
S' wall'
tp2541
aa(lp2542
(S'turn'
S''
S''
tp2543
a(S'verify'
S'front'
S' wood hallway'
tp2544
aa(lp2545
(S'travel'
S''
S''
tp2546
a(S'turn'
S''
S''
tp2547
a(S'travel'
S''
S''
tp2548
a(S'turn'
S''
S''
tp2549
a(S'travel'
S''
S''
tp2550
a(S'turn'
S''
S''
tp2551
aa(lp2552
(S'turn'
S''
S''
tp2553
a(S'verify'
p2554
S'front'
S' gravel hallway'
tp2555
a(g2554
S'front'
S' easel'
tp2556
a(g2554
S'front'
S' butterfly wall'
tp2557
aa(lp2558
(S'turn'
S'right'
S''
tp2559
aa(lp2560
(S'turn'
S''
S''
tp2561
a(S'verify'
S'front'
S' flower hallway'
tp2562
a(S'travel'
S''
S''
tp2563
a(S'verify'
S'front'
S' wall'
tp2564
aa(lp2565
(S'turn'
S'left'
S''
tp2566
aa(lp2567
(S'travel'
S''
S''
tp2568
aa(lp2569
(S'turn'
S'left'
S''
tp2570
aa(lp2571
(S'travel'
S'steps'
S' 2'
tp2572
aa(lp2573
(S'turn'
S''
S''
tp2574
a(S'verify'
S'front'
S' brick hallway'
tp2575
aa(lp2576
(S'travel'
S'steps'
S' 2'
tp2577
aa(lp2578
(S'travel'
S''
S''
tp2579
a(S'verify'
S'left'
S' easel'
tp2580
aa(lp2581
(S'travel'
S''
S''
tp2582
a(S'verify'
S'right'
S' flower hallway'
tp2583
aa(lp2584
(S'travel'
S'steps'
S' 1'
tp2585
a(S'verify'
S'front'
S' wall'
tp2586
aa(lp2587
(S'verify'
S'left'
S' sofa'
tp2588
aa(lp2589
(S'verify'
S'front'
S' blue hallway'
tp2590
a(S'travel'
S'steps'
S' 2'
tp2591
a(S'verify'
S'side'
S' gravel hallway'
tp2592
aa(lp2593
(S'travel'
S'steps'
S' 2'
tp2594
a(S'verify'
S'at'
S' hatrack'
tp2595
aa(lp2596
(S'verify'
S'side'
S' yellow hallway'
tp2597
aa(lp2598
(S'turn'
S'left'
S''
tp2599
aa(lp2600
(S'travel'
S'steps'
S' 1'
tp2601
aa(lp2602
(S'turn'
S''
S''
tp2603
a(S'verify'
S'front'
S' hatrack'
tp2604
aa(lp2605
(S'verify'
S'at'
S' hatrack'
tp2606
aa(lp2607
(S'turn'
S'right'
S''
tp2608
aa(lp2609
(S'travel'
S''
S''
tp2610
a(S'verify'
S'side'
S' blue hallway'
tp2611
aa(lp2612
(S'verify'
S'front'
S' brick hallway'
tp2613
aa(lp2614
(S'travel'
S''
S''
tp2615
a(S'verify'
S'side'
S' blue hallway'
tp2616
a(S'turn'
S'right'
S''
tp2617
aa(lp2618
(S'travel'
S''
S''
tp2619
a(S'verify'
p2620
S'front'
S' hallway'
tp2621
a(g2620
S'back'
S' hallway'
p2622
tp2623
a(g2620
S'at'
S' barstool'
tp2624
aa(lp2625
(S'turn'
S'left'
S''
tp2626
aa(lp2627
(S'verify'
S'front'
S' easel'
tp2628
aa(lp2629
(S'turn'
S'left'
S''
tp2630
aa(lp2631
(S'travel'
S'steps'
S' 1'
tp2632
aa(lp2633
(S'turn'
S''
S''
tp2634
a(S'verify'
S'front'
S' yellow hallway'
tp2635
aa(lp2636
(S'turn'
S'left'
S''
tp2637
aa(lp2638
(S'turn'
S'right'
S''
tp2639
aa(lp2640
(S'verify'
S'right'
S' butterfly wall'
tp2641
aa(lp2642
(S'travel'
S'steps'
S' 1'
tp2643
aa(lp2644
(S'turn'
S'right'
S''
tp2645
aa(lp2646
(S'travel'
S''
S''
tp2647
a(S'verify'
S'at'
S' lamp'
tp2648
a(S'travel'
S'steps'
S' 2'
tp2649
a(S'verify'
S'side'
S' concrete hallway'
tp2650
a(S'turn'
S'right'
S''
tp2651
aa(lp2652
(S'travel'
S''
S''
tp2653
a(S'verify'
S'at'
S' lamp'
tp2654
a(S'turn'
S'right'
S''
tp2655
aa(lp2656
(S'verify'
S'front'
S' easel'
tp2657
aa(lp2658
(S'turn'
S'right'
S''
tp2659
aa(lp2660
(g339
S''
S''
tp2661
aa(lp2662
(S'turn'
S'left'
S''
tp2663
aa(lp2664
(S'travel'
S'steps'
S' 2'
tp2665
aa(lp2666
(S'travel'
S''
S''
tp2667
a(S'verify'
S'at'
S' easel'
tp2668
a(S'turn'
S'right'
S''
tp2669
aa(lp2670
(S'travel'
S''
S''
tp2671
a(S'verify'
S'side'
S' flower hallway'
tp2672
a(S'turn'
S'left'
S''
tp2673
aa(lp2674
(S'travel'
S'steps'
S' 1'
tp2675
a(S'verify'
S'side'
S' brick hallway'
tp2676
aa(lp2677
(S'travel'
S''
S''
tp2678
a(S'verify'
p2679
S'front'
S' wall'
tp2680
a(g2679
S'right'
S' wall'
tp2681
a(g2679
S'back'
S' concrete hallway'
tp2682
a(g2679
S'left'
S' concrete hallway'
tp2683
a(g2679
S'back'
S' butterfly wall'
tp2684
a(g2679
S'left'
S' butterfly wall'
tp2685
aa(lp2686
(S'turn'
S'left'
S''
tp2687
aa(lp2688
(S'travel'
S'steps'
S' 3'
tp2689
a(S'verify'
S'side'
S' flower hallway'
tp2690
aa(lp2691
(S'turn'
S''
S''
tp2692
a(S'verify'
S'right'
S' wall'
tp2693
aa(lp2694
(S'travel'
S'steps'
S' 5'
tp2695
aa(lp2696
(S'verify'
p2697
S'left'
S' barstool'
p2698
tp2699
a(g2697
S'side'
S' concrete hallway'
tp2700
aa(lp2701
(S'turn'
S''
S''
tp2702
a(S'verify'
S'front'
S' yellow hallway'
tp2703
aa(lp2704
(S'verify'
S'front'
S' gravel hallway'
tp2705
a(S'travel'
S''
S''
tp2706
a(S'verify'
S'front'
S' wall'
tp2707
aa(lp2708
(S'turn'
S''
S''
tp2709
a(S'verify'
S'left'
S' wall'
tp2710
aa(lp2711
(S'travel'
S''
S''
tp2712
a(S'verify'
S'side'
S' wood hallway'
tp2713
aa(lp2714
(S'turn'
S''
S''
tp2715
a(S'verify'
p2716
S'back'
S' wall'
tp2717
a(g2716
S'right'
S' wall'
tp2718
aa(lp2719
(S'turn'
S''
S''
tp2720
a(S'verify'
S'back'
S' wall'
tp2721
a(S'travel'
S''
S''
tp2722
a(S'verify'
S'at'
S' hatrack'
tp2723
aa(lp2724
(S'travel'
S'steps'
S' 5'
tp2725
aa(lp2726
(S'turn'
S'left'
S''
tp2727
aa(lp2728
(S'travel'
S''
S''
tp2729
a(S'verify'
S'at'
S' easel'
tp2730
a(S'turn'
S'right'
S''
tp2731
a(S'verify'
S'front'
S' wood hallway'
tp2732
a(S'travel'
S'steps'
S' 1'
tp2733
aa(lp2734
(S'turn'
S'right'
S''
tp2735
aa(lp2736
(S'turn'
S'left'
S''
tp2737
aa(lp2738
(S'travel'
S''
S''
tp2739
a(S'turn'
S'right'
S''
tp2740
aa(lp2741
(S'turn'
S''
S''
tp2742
a(S'verify'
S'right'
S' wall'
tp2743
aa(lp2744
(S'travel'
S''
S''
tp2745
a(S'verify'
S'front'
S' wall'
tp2746
aa(lp2747
(S'verify'
S'front'
S' brick hallway'
tp2748
a(S'travel'
S''
S''
tp2749
a(S'verify'
S'side'
S' hallway'
tp2750
aa(lp2751
(S'turn'
S''
S''
tp2752
a(S'verify'
S'front'
S' easel'
tp2753
aa(lp2754
(S'verify'
S'front'
S' wood hallway'
tp2755
a(S'travel'
S''
S''
tp2756
a(S'verify'
S'at'
S' chair'
tp2757
aa(lp2758
(S'travel'
S'steps'
S' 6'
tp2759
a(S'verify'
S'side'
S' gravel hallway'
tp2760
aa(lp2761
(S'travel'
S'steps'
S' 2'
tp2762
a(S'verify'
S'side'
S' wood hallway'
tp2763
aa(lp2764
(S'turn'
S''
S''
tp2765
a(S'verify'
S'back'
S' wall'
tp2766
a(S'travel'
S''
S''
tp2767
a(S'verify'
S'at'
S' chair'
tp2768
a(S'turn'
S'left'
S''
tp2769
aa(lp2770
(S'travel'
S'steps'
S' 3'
tp2771
a(S'verify'
S'side'
S' flower hallway'
tp2772
aa(lp2773
(S'travel'
S'steps'
S' 1'
tp2774
a(S'verify'
S'side'
S' blue hallway'
tp2775
aa(lp2776
(S'turn'
S''
S''
tp2777
a(S'verify'
p2778
S'front'
S' gravel hallway'
tp2779
a(g2778
S'back'
S' easel'
tp2780
aa(lp2781
(S'travel'
S''
S''
tp2782
a(S'verify'
p2783
S'front'
S' wall'
tp2784
a(g2783
S'side'
S' blue hallway'
tp2785
aa(lp2786
(S'travel'
S'steps'
S' 1'
tp2787
aa(lp2788
(S'travel'
S''
S''
tp2789
aa(lp2790
(S'travel'
S''
S''
tp2791
a(S'verify'
p2792
S'front'
S' blue hallway'
tp2793
a(g2792
S'back'
S' blue hallway'
tp2794
aa(lp2795
(S'travel'
S''
S''
tp2796
a(S'verify'
S'right'
S' wall'
tp2797
aa(lp2798
(S'travel'
S''
S''
tp2799
a(S'verify'
S'front'
S' blue hallway'
tp2800
aa(lp2801
(S'turn'
S'left'
S''
tp2802
aa(lp2803
(g339
S''
S''
tp2804
aa(lp2805
(S'travel'
S'steps'
S' 1'
tp2806
aa(lp2807
(S'verify'
S'front'
S' hatrack'
tp2808
aa(lp2809
(S'turn'
S'left'
S''
tp2810
a(S'verify'
S'front'
S' wood hallway'
tp2811
aa(lp2812
(S'turn'
S''
S''
tp2813
a(S'verify'
p2814
S'front'
S' brick hallway'
tp2815
a(g2814
S'front'
S' lamp'
tp2816
a(S'travel'
S''
S''
tp2817
a(S'verify'
S'at'
S' hatrack'
tp2818
a(S'travel'
S'steps'
S' 1'
tp2819
a(S'verify'
S'back'
S' lamp'
tp2820
aa(lp2821
(S'turn'
S'right'
S''
tp2822
aa(lp2823
(S'travel'
S''
S''
tp2824
a(S'verify'
S'front'
S' wall'
tp2825
aa(lp2826
(S'turn'
S'left'
S''
tp2827
aa(lp2828
(S'travel'
S'steps'
S' 1'
tp2829
aa(lp2830
(S'travel'
S''
S''
tp2831
a(S'verify'
S'at'
S' lamp'
tp2832
a(S'travel'
S'steps'
S' 1'
tp2833
aa(lp2834
(S'turn'
S'left'
S''
tp2835
aa(lp2836
(S'travel'
S''
S''
tp2837
a(S'verify'
S'front'
S' wall'
tp2838
a(S'turn'
S'left'
S''
tp2839
aa(lp2840
(S'travel'
S''
S''
tp2841
a(S'verify'
S'at'
S' chair'
tp2842
a(S'travel'
S'steps'
S' 1'
tp2843
aa(lp2844
(S'turn'
S'left'
S''
tp2845
a(S'verify'
S'front'
S' wood hallway'
tp2846
aa(lp2847
(S'travel'
S'steps'
S' 2'
tp2848
aa(lp2849
(S'verify'
S'front'
S' flower hallway'
tp2850
a(S'travel'
S''
S''
tp2851
a(S'verify'
S'side'
S' hallway'
tp2852
a(S'turn'
S'right'
S''
tp2853
a(S'travel'
S''
S''
tp2854
a(S'verify'
S'front'
S' wall'
tp2855
aa(lp2856
(S'verify'
S'front'
S' chair'
tp2857
a(S'travel'
S'steps'
S' 2'
tp2858
a(S'verify'
p2859
S'back'
S' chair'
tp2860
a(g2859
S'side'
S' flower hallway'
tp2861
aa(lp2862
(S'verify'
p2863
S'front'
S' hatrack'
tp2864
a(g2863
S'front'
S' lamp'
tp2865
a(S'travel'
S''
S''
tp2866
a(S'verify'
p2867
S'back'
S' hatrack'
tp2868
a(g2867
S'back'
S' lamp'
tp2869
aa(lp2870
(S'travel'
S'steps'
S' 1'
tp2871
aa(lp2872
(S'turn'
S'left'
S''
tp2873
a(S'verify'
S'front'
S' brick hallway'
tp2874
a(S'travel'
S''
S''
tp2875
a(S'verify'
p2876
S'side'
S' flower hallway'
tp2877
a(g2876
S'at'
S' easel'
tp2878
aa(lp2879
(S'turn'
S''
S''
tp2880
a(S'verify'
S'front'
S' chair'
tp2881
a(S'travel'
S''
S''
tp2882
a(S'verify'
S'at'
S' chair'
tp2883
aa(lp2884
(S'turn'
S'right'
S''
tp2885
aa(lp2886
(S'turn'
S''
S''
tp2887
a(S'verify'
p2888
S'front'
S' brick hallway'
tp2889
a(g2888
S'back'
S' sofa'
tp2890
a(S'travel'
S''
S''
tp2891
a(S'verify'
p2892
S'front'
S' wall'
tp2893
a(g2892
S'left'
S' wall'
tp2894
a(S'turn'
S'right'
S''
tp2895
a(S'verify'
S'front'
S' easel'
tp2896
aa(lp2897
(S'turn'
S'right'
S''
tp2898
aa(lp2899
(S'travel'
S'steps'
S' 1'
tp2900
aa(lp2901
(S'turn'
S''
S''
tp2902
a(S'verify'
S'front'
S' flower hallway'
tp2903
a(S'travel'
S'steps'
S' 1'
tp2904
aa(lp2905
(S'travel'
S'steps'
S' 1'
tp2906
aa(lp2907
(S'verify'
p2908
S'front'
S' flower hallway'
tp2909
a(g2908
S'side'
S' brick hallway'
tp2910
aa(lp2911
(S'turn'
S'left'
S''
tp2912
a(S'travel'
S''
S''
tp2913
a(S'verify'
S'at'
S' easel'
tp2914
aa(lp2915
(S'verify'
S'at'
S' easel'
tp2916
aa(lp2917
(S'travel'
S''
S''
tp2918
a(S'turn'
S''
S''
tp2919
a(S'travel'
S''
S''
tp2920
a(S'turn'
S''
S''
tp2921
a(S'travel'
S''
S''
tp2922
a(S'verify'
p2923
S'front'
S' wall'
tp2924
a(g2923
S'left'
S' wall'
tp2925
a(g2923
S'right'
S' wall'
tp2926
aa(lp2927
(S'turn'
S'right'
S''
tp2928
a(S'travel'
S''
S''
tp2929
a(S'verify'
S'at'
S' hatrack'
tp2930
aa(lp2931
(S'travel'
S'steps'
S' 2'
tp2932
aa(lp2933
(S'travel'
S'steps'
S' 1'
tp2934
a(S'verify'
S'side'
S' concrete hallway'
tp2935
aa(lp2936
(S'travel'
S'steps'
S' 2'
tp2937
a(S'verify'
S'side'
S' concrete hallway'
tp2938
aa(lp2939
(S'verify'
S'front'
S' chair'
tp2940
a(S'travel'
S''
S''
tp2941
a(S'verify'
p2942
S'back'
S' chair'
tp2943
a(g2942
S'at'
S' hatrack'
tp2944
aa(lp2945
(S'turn'
S'left'
S''
tp2946
aa(lp2947
(S'verify'
S'front'
S' gravel hallway'
tp2948
aa(lp2949
(S'turn'
S''
S''
tp2950
a(S'travel'
S'steps'
S' 1'
tp2951
aa(lp2952
(S'travel'
S'steps'
S' 3'
tp2953
aa(lp2954
(S'travel'
S'steps'
S' 1'
tp2955
aa(lp2956
(S'turn'
S'left'
S''
tp2957
aa(lp2958
(S'verify'
S'front'
S' easel'
tp2959
aa(lp2960
(S'travel'
S'steps'
S' 1'
tp2961
a(S'verify'
S'side'
S' flower hallway'
tp2962
aa(lp2963
(S'travel'
S''
S''
tp2964
a(S'verify'
S'side'
S' flower hallway'
tp2965
aa(lp2966
(S'verify'
S'front'
S' yellow hallway'
tp2967
a(S'travel'
S'steps'
S' 3'
tp2968
a(S'verify'
S'front'
S' wall'
tp2969
aa(lp2970
(S'verify'
p2971
S'front'
S' gravel hallway'
tp2972
a(g2971
S'back'
S' gravel hallway'
tp2973
aa(lp2974
(S'travel'
S''
S''
tp2975
aa(lp2976
(S'travel'
S''
S''
tp2977
aa(lp2978
(S'travel'
S''
S''
tp2979
a(S'verify'
S'side'
S' yellow hallway'
tp2980
aa(lp2981
(S'travel'
S''
S''
tp2982
a(S'verify'
S'side'
S' blue hallway'
tp2983
a(S'turn'
S'right'
S''
tp2984
a(S'verify'
S'front'
S' blue hallway'
tp2985
a(S'travel'
S''
S''
tp2986
a(S'verify'
S'front'
S' wall'
tp2987
aa(lp2988
(S'travel'
S'steps'
S' 1'
tp2989
aa(lp2990
(S'travel'
S'steps'
S' 2'
tp2991
aa(lp2992
(S'turn'
S'left'
S''
tp2993
aa(lp2994
(S'verify'
S'front'
S' barstool'
tp2995
a(S'travel'
S''
S''
tp2996
a(S'verify'
p2997
S'back'
S' barstool'
tp2998
a(g2997
S'right'
S' concrete hallway'
tp2999
aa(lp3000
(S'travel'
S''
S''
tp3001
a(S'verify'
p3002
S'front'
S' wall'
tp3003
a(g3002
S'right'
S' wall'
tp3004
aa(lp3005
(S'travel'
S''
S''
tp3006
a(S'verify'
p3007
S'front'
S' wall'
tp3008
a(g3007
S'left'
S' wall'
tp3009
a(g3007
S'back'
S' yellow hallway'
tp3010
aa(lp3011
(S'turn'
S'right'
S''
tp3012
aa(lp3013
(S'travel'
S'steps'
S' 2'
tp3014
aa(lp3015
(S'travel'
S'steps'
S' 6'
p3016
tp3017
aa(lp3018
(S'turn'
S''
S''
tp3019
a(S'verify'
S'back'
S' wall'
tp3020
aa(lp3021
(S'travel'
S'steps'
S' 1'
tp3022
aa(lp3023
(S'travel'
S''
S''
tp3024
a(S'verify'
S'front'
S' wall'
tp3025
a(S'turn'
S'left'
S''
tp3026
a(S'travel'
S''
S''
tp3027
a(S'verify'
S'front'
S' wall'
tp3028
aa(lp3029
(S'turn'
S'left'
S''
tp3030
aa(lp3031
(S'turn'
S'left'
S''
tp3032
aa(lp3033
(S'travel'
S'steps'
S' 3'
tp3034
a(S'verify'
S'front'
S' wall'
tp3035
aa(lp3036
(S'turn'
S''
S''
tp3037
a(S'verify'
S'front'
S' yellow hallway'
tp3038
a(S'travel'
S''
S''
tp3039
a(S'verify'
S'front'
S' wall'
tp3040
aa(lp3041
(S'verify'
S'front'
S' easel'
tp3042
a(S'travel'
S'steps'
S' 1'
tp3043
aa(lp3044
(S'travel'
S'steps'
S' 4'
tp3045
aa(lp3046
(S'travel'
S''
S''
tp3047
a(S'verify'
S'side'
S' yellow hallway'
tp3048
aa(lp3049
(S'turn'
S'right'
S''
tp3050
aa(lp3051
(S'turn'
S'left'
S''
tp3052
aa(lp3053
(S'turn'
S''
S''
tp3054
a(S'verify'
S'front'
S' yellow hallway'
tp3055
aa(lp3056
(S'turn'
S'left'
S''
tp3057
aa(lp3058
(S'travel'
S'steps'
S' 4'
tp3059
a(S'verify'
S'side'
S' flower hallway'
tp3060
aa(lp3061
(S'turn'
S'right'
S''
tp3062
aa(lp3063
(S'turn'
S'left'
S''
tp3064
aa(lp3065
(S'verify'
p3066
S'left'
S' wall'
tp3067
a(g3066
S'front'
S' wall'
tp3068
a(S'turn'
S'right'
S''
tp3069
a(S'verify'
S'front'
S' blue hallway'
tp3070
a(S'travel'
S''
S''
tp3071
a(S'verify'
S'at'
S' hatrack'
tp3072
aa(lp3073
(S'travel'
S'steps'
S' 1'
tp3074
aa(lp3075
(S'travel'
S'steps'
S' 1'
tp3076
aa(lp3077
(S'turn'
S'right'
S''
tp3078
aa(lp3079
(S'travel'
S'steps'
S' 1'
tp3080
aa(lp3081
(S'travel'
S''
S''
tp3082
a(S'verify'
p3083
S'front'
S' brick hallway'
tp3084
a(g3083
S'back'
S' brick hallway'
tp3085
aa(lp3086
(S'verify'
p3087
S'front'
S' butterfly wall'
p3088
tp3089
a(g3087
S'front'
S' blue hallway'
p3090
tp3091
aa(lp3092
(S'verify'
p3093
S'side'
S' blue hallway'
tp3094
a(g3093
S'front'
S' flower hallway'
tp3095
a(S'travel'
S'steps'
S' 1'
tp3096
a(S'turn'
S''
S''
tp3097
a(S'verify'
S'front'
S' concrete hallway'
tp3098
a(S'travel'
S''
S''
tp3099
a(S'verify'
S'front'
S' wall'
tp3100
aa(lp3101
(S'turn'
S''
S''
tp3102
a(S'verify'
p3103
S'back'
S' wall'
tp3104
a(g3103
S'right'
S' wall'
tp3105
a(g3103
S'left'
S' wall'
tp3106
a(S'travel'
S'steps'
S' 1'
tp3107
aa(lp3108
(S'verify'
S'front'
S' blue hallway'
tp3109
a(S'travel'
S''
S''
tp3110
a(S'verify'
S'at'
S' hatrack'
tp3111
aa(lp3112
(S'travel'
S''
S''
tp3113
aa(lp3114
(S'verify'
S'at'
S' hatrack'
tp3115
a(S'turn'
S'right'
S''
tp3116
a(S'verify'
p3117
S'front'
S' blue hallway'
tp3118
a(g3117
S'front'
S' chair'
tp3119
a(S'travel'
S''
S''
tp3120
a(S'verify'
p3121
S'back'
S' chair'
tp3122
a(g3121
S'side'
S' flower hallway'
tp3123
aa(lp3124
(S'travel'
S'steps'
S' 1'
tp3125
aa(lp3126
(S'turn'
S'left'
S''
tp3127
a(S'travel'
S'steps'
S' 1'
tp3128
aa(lp3129
(S'travel'
S'steps'
S' 1'
tp3130
a(S'verify'
S'at'
S' barstool'
tp3131
aa(lp3132
(S'travel'
S''
S''
tp3133
a(S'verify'
p3134
S'front'
S' wall'
tp3135
a(g3134
S'right'
S' wall'
tp3136
a(g3134
S'left'
S' wall'
tp3137
aa(lp3138
(S'turn'
S''
S''
tp3139
a(S'verify'
S'back'
S' wall'
tp3140
aa(lp3141
(S'verify'
p3142
S'front'
S' blue hallway'
tp3143
a(g3142
S'front'
S' chair'
tp3144
a(S'travel'
S''
S''
tp3145
a(S'verify'
S'at'
S' chair'
tp3146
a(S'turn'
S'right'
S''
tp3147
a(S'verify'
S'front'
S' barstool'
tp3148
aa(lp3149
(S'travel'
S''
S''
tp3150
a(S'verify'
p3151
S'front'
S' wall'
tp3152
a(g3151
S'right'
S' wall'
tp3153
aa(lp3154
(S'verify'
S'front'
S' hatrack'
tp3155
aa(lp3156
(S'verify'
p3157
S'side'
S' concrete hallway'
tp3158
a(g3157
S'right'
S' butterfly wall'
tp3159
a(g3157
S'left'
S' tower wall'
tp3160
aa(lp3161
(S'verify'
S'left'
S' grass hallway'
p3162
tp3163
aa(lp3164
(S'travel'
S'steps'
S' 1'
tp3165
a(S'verify'
p3166
S'side'
S' gravel hallway'
tp3167
a(g3166
S'front'
S' yellow hallway'
tp3168
aa(lp3169
(S'travel'
S''
S''
tp3170
a(S'turn'
S''
S''
tp3171
a(S'travel'
S''
S''
tp3172
a(S'turn'
S''
S''
tp3173
a(S'travel'
S''
S''
tp3174
a(S'turn'
S''
S''
tp3175
aa(lp3176
(S'turn'
S'left'
S''
tp3177
aa(lp3178
(S'turn'
S'right'
S''
tp3179
a(S'travel'
S'steps'
S' 1'
tp3180
aa(lp3181
(S'turn'
S'right'
S''
tp3182
a(S'verify'
S'front'
S' hatrack'
tp3183
aa(lp3184
(S'verify'
S'right'
S' blue hallway'
tp3185
aa(lp3186
(S'travel'
S''
S''
tp3187
aa(lp3188
(S'verify'
S'front'
S' fish wall'
tp3189
aa(lp3190
(S'travel'
S'steps'
S' 1'
tp3191
aa(lp3192
(S'travel'
S''
S''
tp3193
aa(lp3194
(S'turn'
S''
S''
tp3195
a(S'verify'
S'front'
S' fish wall'
tp3196
aa(lp3197
(S'travel'
S'steps'
S' 1'
tp3198
aa(lp3199
(S'turn'
S'right'
S''
tp3200
aa(lp3201
(S'turn'
S''
S''
tp3202
a(S'verify'
S'front'
S' easel'
tp3203
aa(lp3204
(S'turn'
S''
S''
tp3205
a(S'verify'
S'front'
S' blue hallway'
tp3206
a(S'travel'
S''
S''
tp3207
a(S'verify'
S'side'
S' grass hallway'
tp3208
aa(lp3209
(S'turn'
S''
S''
tp3210
a(S'verify'
p3211
S'front'
S' wood hallway'
tp3212
a(g3211
S'front'
S' chair'
tp3213
aa(lp3214
(S'turn'
S'right'
S''
tp3215
a(S'verify'
S'front'
S' blue hallway'
tp3216
aa(lp3217
(S'travel'
S'steps'
S' 1'
tp3218
aa(lp3219
(S'turn'
S'left'
S''
tp3220
a(S'verify'
S'front'
S' blue hallway'
tp3221
a(S'travel'
S''
S''
tp3222
a(S'verify'
S'front'
S' wall'
tp3223
aa(lp3224
(S'turn'
S''
S''
tp3225
a(S'verify'
S'left'
S' wall'
tp3226
aa(lp3227
(S'turn'
S'right'
S''
tp3228
aa(lp3229
(S'turn'
S'right'
S''
tp3230
aa(lp3231
(S'travel'
S''
S''
tp3232
a(S'verify'
S'side'
S' brick hallway'
tp3233
a(S'turn'
S'left'
S''
tp3234
aa(lp3235
(S'verify'
p3236
S'front'
S' flower hallway'
tp3237
a(g3236
S'side'
S' brick hallway'
tp3238
aa(lp3239
(S'verify'
p3240
S'left'
S' concrete hallway'
tp3241
a(g3240
S'left'
S' sofa'
tp3242
aa(lp3243
(S'verify'
S'front'
S' wall'
tp3244
a(S'turn'
S'left'
S''
tp3245
aa(lp3246
(S'turn'
S'left'
S''
tp3247
aa(lp3248
(S'turn'
S'left'
S''
tp3249
aa(lp3250
(S'travel'
S'steps'
S' 1'
tp3251
a(S'verify'
S'side'
S' blue hallway'
tp3252
aa(lp3253
(S'turn'
S''
S''
tp3254
a(S'verify'
S'left'
S' wall'
tp3255
aa(lp3256
(S'turn'
S''
S''
tp3257
a(S'verify'
p3258
S'front'
S' gravel hallway'
tp3259
a(g3258
S'front'
S' easel'
tp3260
aa(lp3261
(S'verify'
S'front'
S' blue hallway'
tp3262
a(S'travel'
S'steps'
S' 1'
tp3263
a(S'turn'
S'left'
S''
tp3264
aa(lp3265
(S'turn'
S'left'
S''
tp3266
aa(lp3267
(S'verify'
p3268
S'at'
S' easel'
tp3269
a(g3268
S'left'
S' tower wall'
tp3270
a(g3268
S'right'
S' butterfly wall'
tp3271
aa(lp3272
(S'travel'
S'steps'
S' 1'
tp3273
a(S'verify'
S'side'
S' blue hallway'
tp3274
aa(lp3275
(S'travel'
S''
S''
tp3276
a(S'verify'
S'side'
S' yellow hallway'
tp3277
a(S'turn'
S''
S''
tp3278
a(S'verify'
S'front'
S' yellow hallway'
tp3279
a(S'travel'
S''
S''
tp3280
a(S'verify'
S'front'
S' wall'
tp3281
aa(lp3282
(S'travel'
S''
S''
tp3283
a(S'verify'
S'side'
S' gravel hallway'
tp3284
aa(lp3285
(S'travel'
S''
S''
tp3286
a(S'verify'
S'front'
S' wall'
tp3287
a(S'turn'
S'left'
S''
tp3288
aa(lp3289
(S'verify'
S'left'
S' gravel hallway'
tp3290
aa(lp3291
(S'verify'
S'front'
S' flower hallway'
tp3292
a(S'travel'
S'steps'
S' 2'
tp3293
a(S'verify'
S'side'
S' brick hallway'
tp3294
aa(lp3295
(S'verify'
p3296
S'front'
S' hatrack'
tp3297
a(g3296
S'back'
S' lamp'
tp3298
aa(lp3299
(S'travel'
S'steps'
S' 1'
tp3300
aa(lp3301
(S'turn'
S''
S''
tp3302
a(S'verify'
S'back'
S' wall'
tp3303
a(S'travel'
S''
S''
tp3304
a(S'verify'
S'at'
S' chair'
tp3305
a(S'turn'
S'right'
S''
tp3306
aa(lp3307
(S'turn'
S'right'
S''
tp3308
aa(lp3309
(S'turn'
S'left'
S''
tp3310
a(S'verify'
S'front'
S' brick hallway'
tp3311
a(S'travel'
S'steps'
S' 1'
tp3312
aa(lp3313
(S'turn'
S''
S''
tp3314
a(S'verify'
S'front'
S' gravel hallway'
tp3315
aa(lp3316
(S'turn'
S'right'
S''
tp3317
aa(lp3318
(S'turn'
S''
S''
tp3319
a(S'verify'
S'back'
S' wall'
tp3320
a(S'travel'
S''
S''
tp3321
a(S'verify'
p3322
S'left'
S' brick hallway'
tp3323
a(g3322
S'right'
S' brick hallway'
tp3324
aa(lp3325
(S'travel'
S'steps'
S' 3'
tp3326
aa(lp3327
(S'turn'
S''
S''
tp3328
a(S'verify'
p3329
S'back'
S' wall'
tp3330
a(g3329
S'left'
S' wall'
tp3331
a(g3329
S'right'
S' wall'
tp3332
aa(lp3333
(S'turn'
S'right'
S''
tp3334
aa(lp3335
(S'travel'
S''
S''
tp3336
a(S'verify'
p3337
S'front'
S' wall'
tp3338
a(g3337
S'right'
S' wall'
tp3339
aa(lp3340
(S'travel'
S''
S''
tp3341
a(S'verify'
S'side'
S' wood hallway'
tp3342
aa(lp3343
(S'turn'
S'left'
S''
tp3344
aa(lp3345
(S'turn'
S''
S''
tp3346
a(S'verify'
p3347
S'front'
S' wood hallway'
tp3348
a(g3347
S'front'
S' easel'
tp3349
aa(lp3350
(S'turn'
S'left'
S''
tp3351
aa(lp3352
(S'travel'
S'steps'
S' 1'
tp3353
a(S'verify'
S'side'
S' blue hallway'
tp3354
aa(lp3355
(S'turn'
S''
S''
tp3356
a(S'verify'
S'back'
S' wall'
tp3357
a(S'turn'
S'left'
S''
tp3358
aa(lp3359
(S'verify'
S'back'
S' easel'
tp3360
aa(lp3361
(S'verify'
p3362
S'front'
S' gravel hallway'
tp3363
a(g3362
S'side'
S' yellow hallway'
tp3364
aa(lp3365
(S'travel'
S''
S''
tp3366
a(S'verify'
S'at'
S' chair'
tp3367
a(S'turn'
S'right'
S''
tp3368
aa(lp3369
(S'travel'
S''
S''
tp3370
a(S'verify'
S'front'
S' blue hallway'
tp3371
aa(lp3372
(g339
S''
S''
tp3373
aa(lp3374
(S'turn'
S''
S''
tp3375
a(S'verify'
S'front'
S' brick hallway'
tp3376
aa(lp3377
(S'turn'
S''
S''
tp3378
a(S'verify'
S'front'
S' grass hallway'
tp3379
a(S'travel'
S''
S''
tp3380
a(S'verify'
S'side'
S' yellow hallway'
tp3381
aa(lp3382
(S'travel'
S''
S''
tp3383
a(S'verify'
S'at'
S' hatrack'
tp3384
a(S'turn'
S'left'
S''
tp3385
aa(lp3386
(S'turn'
S'right'
S''
tp3387
aa(lp3388
(S'travel'
S'steps'
S' 5'
tp3389
aa(lp3390
(S'turn'
S''
S''
tp3391
a(S'verify'
p3392
S'back'
S' wall'
tp3393
a(g3392
S'left'
S' wall'
tp3394
a(g3392
S'right'
S' wall'
tp3395
aa(lp3396
(S'travel'
S''
S''
tp3397
a(S'verify'
S'side'
S' wood hallway'
tp3398
aa(lp3399
(S'turn'
S'left'
S''
tp3400
aa(lp3401
(S'travel'
S'steps'
S' 1'
tp3402
aa(lp3403
(S'travel'
S''
S''
tp3404
a(S'verify'
S'at'
S' easel'
tp3405
aa(lp3406
(S'turn'
S'right'
S''
tp3407
aa(lp3408
(S'verify'
S'front'
S' blue hallway'
tp3409
aa(lp3410
(S'verify'
p3411
S'front'
S' flower hallway'
tp3412
a(g3411
S'front'
S' hatrack'
tp3413
a(g3411
S'front'
S' lamp'
tp3414
a(S'travel'
S''
S''
tp3415
a(S'verify'
S'at'
S' lamp'
tp3416
a(S'travel'
S'steps'
S' 1'
tp3417
a(S'verify'
S'back'
S' hatrack'
tp3418
aa(lp3419
(S'turn'
S'left'
S''
tp3420
aa(lp3421
(S'turn'
S'left'
S''
tp3422
a(S'verify'
S'front'
S' gravel hallway'
tp3423
a(S'travel'
S'steps'
S' 1'
tp3424
aa(lp3425
(S'turn'
S''
S''
tp3426
a(S'verify'
p3427
S'back'
S' sofa'
tp3428
a(g3427
S'front'
S' barstool'
tp3429
aa(lp3430
(S'travel'
S''
S''
tp3431
a(S'verify'
S'front'
S' wall'
tp3432
a(S'turn'
S'left'
S''
tp3433
aa(lp3434
(S'travel'
S''
S''
tp3435
a(S'verify'
S'side'
S' flower hallway'
tp3436
a(S'turn'
S'right'
S''
tp3437
aa(lp3438
(S'turn'
S''
S''
tp3439
a(S'verify'
S'front'
S' easel'
tp3440
a(S'travel'
S'steps'
S' 1'
tp3441
aa(lp3442
(S'verify'
p3443
S'front'
S' easel'
tp3444
a(g3443
S'front'
S' gravel hallway'
tp3445
aa(lp3446
(g339
S''
S''
tp3447
aa(lp3448
(S'travel'
S''
S''
tp3449
a(S'verify'
S'front'
S' wall'
tp3450
aa(lp3451
(S'travel'
S'steps'
S' 1'
tp3452
a(S'verify'
S'front'
S' wall'
tp3453
aa(lp3454
(S'turn'
S'left'
S''
tp3455
aa(lp3456
(S'travel'
S'steps'
S' 1'
tp3457
a(S'turn'
S'left'
S''
tp3458
a(S'verify'
S'front'
S' flower hallway'
tp3459
aa(lp3460
(S'travel'
S'steps'
S' 1'
tp3461
aa(lp3462
(S'travel'
S'steps'
S' 2'
tp3463
aa(lp3464
(S'turn'
S'right'
S''
tp3465
aa(lp3466
(S'verify'
S'front'
S' gravel hallway'
tp3467
a(S'travel'
S'steps'
S' 1'
tp3468
a(S'verify'
S'side'
S' concrete hallway'
tp3469
aa(lp3470
(S'turn'
S''
S''
tp3471
a(S'verify'
S'front'
S' barstool'
tp3472
aa(lp3473
(S'verify'
S'front'
S' flower hallway'
tp3474
a(S'travel'
S'steps'
S' 2'
tp3475
a(S'verify'
S'side'
S' brick hallway'
tp3476
aa(lp3477
(S'turn'
S''
S''
tp3478
a(S'verify'
S'front'
S' lamp'
tp3479
aa(lp3480
(S'travel'
S''
S''
tp3481
a(S'verify'
S'side'
S' brick hallway'
tp3482
a(S'turn'
S'right'
S''
tp3483
aa(lp3484
(S'verify'
p3485
S'front'
S' hatrack'
tp3486
a(g3485
S'front'
S' lamp'
tp3487
a(S'travel'
S'steps'
S' 5'
tp3488
a(S'verify'
p3489
S'back'
S' hatrack'
tp3490
a(g3489
S'back'
S' lamp'
tp3491
a(g3489
S'side'
S' concrete hallway'
tp3492
aa(lp3493
(S'travel'
S'steps'
S' 1'
tp3494
aa(lp3495
(S'travel'
S'steps'
S' 1'
tp3496
a(S'verify'
p3497
S'front'
S' wall'
tp3498
a(g3497
S'right'
S' wall'
tp3499
a(g3497
S'left'
S' wall'
tp3500
aa(lp3501
(S'verify'
S'front'
S' easel'
tp3502
a(S'travel'
S'steps'
S' 2'
tp3503
a(S'verify'
S'back'
S' easel'
tp3504
aa(lp3505
(S'turn'
S'left'
S''
tp3506
aa(lp3507
(S'travel'
S''
S''
tp3508
a(S'verify'
S'front'
S' wall'
tp3509
a(S'turn'
S'left'
S''
tp3510
a(S'verify'
S'front'
S' lamp'
tp3511
aa(lp3512
(S'turn'
S''
S''
tp3513
a(S'verify'
S'front'
S' butterfly wall'
tp3514
aa(lp3515
(S'verify'
S'at'
S' chair'
tp3516
aa(lp3517
(g339
S''
S''
tp3518
aa(lp3519
(g339
S''
S''
tp3520
aa(lp3521
(S'verify'
S'front'
S' chair'
p3522
tp3523
a(S'travel'
S'steps'
S' 2'
p3524
tp3525
a(S'verify'
p3526
S'back'
S' chair'
p3527
tp3528
a(g3526
S'at'
S' barstool'
p3529
tp3530
aa(lp3531
(S'turn'
S'left'
S''
tp3532
aa(lp3533
(S'travel'
S'steps'
S' 1'
tp3534
aa(lp3535
(S'travel'
S''
S''
tp3536
a(S'verify'
S'at'
S' easel'
tp3537
aa(lp3538
(S'travel'
S'steps'
S' 1'
tp3539
aa(lp3540
(S'turn'
S'right'
S''
tp3541
aa(lp3542
(S'travel'
S''
S''
tp3543
a(S'turn'
S''
S''
tp3544
a(S'travel'
S''
S''
tp3545
a(S'turn'
S''
S''
tp3546
a(S'travel'
S''
S''
tp3547
a(S'turn'
S''
S''
tp3548
aa(lp3549
(S'travel'
S''
S''
tp3550
a(S'verify'
S'at'
S' easel'
tp3551
a(S'turn'
S'left'
S''
tp3552
aa(lp3553
(S'travel'
S''
S''
tp3554
a(S'verify'
S'right'
S' flower hallway'
tp3555
a(S'turn'
S'right'
S''
tp3556
aa(lp3557
(S'verify'
S'right'
S' barstool'
p3558
tp3559
aa(lp3560
(S'travel'
S''
S''
tp3561
a(S'verify'
p3562
S'at'
S' easel'
tp3563
a(g3562
S'front'
S' gravel hallway'
tp3564
a(g3562
S'side'
S' yellow hallway'
tp3565
aa(lp3566
(S'turn'
S'right'
S''
tp3567
aa(lp3568
(S'turn'
S'left'
S''
tp3569
aa(lp3570
(S'turn'
S'left'
S''
tp3571
aa(lp3572
(S'travel'
S''
S''
tp3573
a(S'verify'
p3574
S'front'
S' brick hallway'
tp3575
a(g3574
S'side'
S' wood hallway'
tp3576
a(S'turn'
S'left'
S''
tp3577
a(S'verify'
S'front'
S' wood hallway'
tp3578
aa(lp3579
(S'travel'
S'steps'
S' 1'
tp3580
aa(lp3581
(g339
S''
S''
tp3582
aa(lp3583
(S'travel'
S''
S''
tp3584
a(S'verify'
S'side'
S' yellow hallway'
tp3585
aa(lp3586
(S'travel'
S''
S''
tp3587
a(S'verify'
S'side'
S' blue hallway'
tp3588
aa(lp3589
(S'verify'
p3590
S'front'
S' wall'
tp3591
a(g3590
S'right'
S' wall'
tp3592
a(g3590
S'back'
S' yellow hallway'
tp3593
a(g3590
S'left'
S' grass hallway'
tp3594
aa(lp3595
(S'turn'
S''
S''
tp3596
a(S'verify'
S'front'
S' grass hallway'
tp3597
aa(lp3598
(S'turn'
S''
S''
tp3599
a(S'verify'
S'back'
S' sofa'
tp3600
aa(lp3601
(S'turn'
S'right'
S''
tp3602
aa(lp3603
(S'turn'
S''
S''
tp3604
a(S'verify'
S'back'
S' easel'
tp3605
a(S'travel'
S''
S''
tp3606
a(S'verify'
p3607
S'front'
S' wall'
tp3608
a(g3607
S'right'
S' wall'
tp3609
a(S'turn'
S'left'
S''
tp3610
aa(lp3611
(S'travel'
S''
S''
tp3612
a(S'verify'
S'at'
S' barstool'
tp3613
a(S'turn'
S'right'
S''
tp3614
aa(lp3615
(S'turn'
S''
S''
tp3616
a(S'verify'
S'front'
S' hatrack'
tp3617
aa(lp3618
(S'turn'
S'right'
S''
tp3619
a(S'verify'
S'front'
S' brick hallway'
tp3620
aa(lp3621
(S'turn'
S'left'
S''
tp3622
aa(lp3623
(S'turn'
S'right'
S''
tp3624
aa(lp3625
(S'travel'
S''
S''
tp3626
aa(lp3627
(S'travel'
S''
S''
tp3628
a(S'verify'
S'right'
S' hallway'
tp3629
a(S'turn'
S'right'
S''
tp3630
aa(lp3631
(S'verify'
S'front'
S' blue hallway'
tp3632
a(S'travel'
S''
S''
tp3633
a(S'verify'
S'side'
S' flower hallway'
tp3634
aa(lp3635
(S'turn'
S''
S''
tp3636
a(S'verify'
S'back'
S' wall'
tp3637
a(S'turn'
S'left'
S''
tp3638
aa(lp3639
(S'verify'
p3640
S'front'
S' blue hallway'
tp3641
a(g3640
S'front'
S' chair'
tp3642
a(S'travel'
S''
S''
tp3643
a(S'verify'
p3644
S'back'
S' chair'
tp3645
a(g3644
S'front'
S' wall'
tp3646
aa(lp3647
(S'turn'
S''
S''
tp3648
a(S'verify'
p3649
S'back'
S' wall'
tp3650
a(g3649
S'at'
S' 3-intersection'
tp3651
aa(lp3652
(S'verify'
S'front'
S' easel'
tp3653
a(S'travel'
S''
S''
tp3654
a(S'verify'
p3655
S'back'
S' easel'
tp3656
a(g3655
S'front'
S' wall'
tp3657
a(g3655
S'left'
S' wall'
tp3658
a(S'turn'
S'right'
S''
tp3659
a(S'verify'
S'front'
S' blue hallway'
tp3660
aa(lp3661
(S'turn'
S'right'
S''
tp3662
aa(lp3663
(S'verify'
p3664
S'front'
S' brick hallway'
tp3665
a(g3664
S'front'
S' lamp'
tp3666
a(g3664
S'front'
S' easel'
tp3667
a(S'travel'
S'steps'
S' 4'
tp3668
a(S'verify'
p3669
S'side'
S' grass hallway'
tp3670
a(g3669
S'back'
S' easel'
tp3671
a(g3669
S'back'
S' lamp'
tp3672
aa(lp3673
(S'turn'
S'right'
S''
tp3674
aa(lp3675
(S'travel'
S''
S''
tp3676
a(S'verify'
S'right'
S' hallway'
tp3677
a(S'turn'
S'right'
S''
tp3678
aa(lp3679
(S'turn'
S''
S''
tp3680
a(S'verify'
S'front'
S' yellow hallway'
tp3681
a(S'travel'
S''
S''
tp3682
a(S'verify'
S'side'
S' wood hallway'
tp3683
aa(lp3684
(S'verify'
S'front'
S' wall'
tp3685
aa(lp3686
(S'travel'
S'steps'
S' 2'
tp3687
a(S'verify'
S'side'
S' blue hallway'
tp3688
aa(lp3689
(S'turn'
S'right'
S''
tp3690
aa(lp3691
(S'turn'
S'right'
S''
tp3692
aa(lp3693
(S'turn'
S''
S''
tp3694
a(S'verify'
p3695
S'front'
S' gravel hallway'
tp3696
a(g3695
S'back'
S' easel'
tp3697
aa(lp3698
(S'verify'
S'front'
S' chair'
tp3699
a(S'travel'
S''
S''
tp3700
a(S'verify'
p3701
S'back'
S' chair'
tp3702
a(g3701
S'at'
S' barstool'
tp3703
aa(lp3704
(S'travel'
S'steps'
S' 1'
tp3705
aa(lp3706
(S'turn'
S''
S''
tp3707
a(S'verify'
p3708
S'front'
S' yellow hallway'
tp3709
a(g3708
S'left'
S' easel'
tp3710
a(g3708
S'left'
S' gravel hallway'
p3711
tp3712
aa(lp3713
(S'turn'
S''
S''
tp3714
a(S'verify'
p3715
S'back'
S' wall'
tp3716
a(g3715
S'at'
S' 3-intersection'
tp3717
aa(lp3718
(S'turn'
S'left'
S''
tp3719
a(S'verify'
S'front'
S' brick hallway'
tp3720
aa(lp3721
(S'verify'
S'front'
S' yellow hallway'
tp3722
a(S'travel'
S''
S''
tp3723
a(S'verify'
S'front'
S' wall'
tp3724
aa(lp3725
(S'travel'
S''
S''
tp3726
a(S'verify'
S'front'
S' wall'
tp3727
aa(lp3728
(S'turn'
S''
S''
tp3729
a(S'verify'
S'front'
S' flower hallway'
tp3730
a(S'travel'
S''
S''
tp3731
a(S'verify'
S'front'
S' fish wall'
tp3732
aa(lp3733
(g339
S''
S''
tp3734
aa(lp3735
(S'travel'
S''
S''
tp3736
a(S'verify'
p3737
S'front'
S' blue hallway'
tp3738
a(g3737
S'side'
S' flower hallway'
tp3739
aa(lp3740
(S'verify'
S'front'
S' grass hallway'
tp3741
a(S'travel'
S''
S''
tp3742
a(S'verify'
S'front'
S' wall'
tp3743
aa(lp3744
(S'verify'
S'at'
S' chair'
tp3745
aa(lp3746
(S'turn'
S'right'
S''
tp3747
aa(lp3748
(S'travel'
S'steps'
S' 1'
tp3749
aa(lp3750
(S'turn'
S''
S''
tp3751
a(S'turn'
S'left'
S''
tp3752
aa(lp3753
(S'travel'
S''
S''
tp3754
aa(lp3755
(S'travel'
S'steps'
S' 1'
tp3756
aa(lp3757
(S'turn'
S'left'
S''
tp3758
aa(lp3759
(S'turn'
S'left'
S''
tp3760
aa(lp3761
(S'turn'
S''
S''
tp3762
a(S'verify'
S'front'
S' hatrack'
tp3763
aa(lp3764
(S'verify'
S'at'
S' hatrack'
tp3765
aa(lp3766
(S'travel'
S''
S''
tp3767
a(S'verify'
S'front'
S' wall'
tp3768
aa(lp3769
(S'travel'
S''
S''
tp3770
a(S'verify'
p3771
S'front'
S' tower wall'
tp3772
a(g3771
S'right'
S' butterfly wall'
p3773
tp3774
aa(lp3775
(S'verify'
p3776
S'front'
S' chair'
tp3777
a(g3776
S'front'
S' hatrack'
tp3778
aa(lp3779
(S'travel'
S''
S''
tp3780
a(S'verify'
p3781
S'front'
S' gravel hallway'
tp3782
a(g3781
S'side'
S' yellow hallway'
tp3783
a(g3781
S'at'
S' easel'
tp3784
aa(lp3785
(S'travel'
S''
S''
tp3786
a(S'verify'
S'front'
S' wall'
tp3787
aa(lp3788
(S'turn'
S'right'
S''
tp3789
aa(lp3790
(S'turn'
S'right'
S''
tp3791
aa(lp3792
(S'turn'
S''
S''
tp3793
a(S'verify'
p3794
S'back'
S' wall'
tp3795
a(g3794
S'at'
S' 3-intersection'
tp3796
aa(lp3797
(S'turn'
S''
S''
tp3798
a(S'verify'
S'front'
S' hatrack'
tp3799
aa(lp3800
(S'verify'
S'front'
S' flower hallway'
tp3801
a(S'travel'
S''
S''
tp3802
a(S'turn'
S''
S''
tp3803
a(S'travel'
S''
S''
tp3804
a(S'verify'
p3805
S'front'
S' wall'
tp3806
a(g3805
S'left'
S' wall'
tp3807
a(g3805
S'right'
S' wall'
tp3808
aa(lp3809
(S'travel'
S'steps'
S' 1'
tp3810
aa(lp3811
(S'turn'
S'left'
S''
tp3812
aa(lp3813
(g339
S''
S''
tp3814
aa(lp3815
(S'turn'
S'left'
S''
tp3816
aa(lp3817
(S'verify'
S'front'
S' wood hallway'
tp3818
aa(lp3819
(S'turn'
S'left'
S''
tp3820
aa(lp3821
(S'travel'
S'steps'
S' 1'
tp3822
aa(lp3823
(S'travel'
S''
S''
tp3824
a(S'verify'
S'side'
S' flower hallway'
tp3825
a(S'turn'
S'left'
S''
tp3826
aa(lp3827
(S'turn'
S''
S''
tp3828
a(S'travel'
S'steps'
S' 1'
tp3829
aa(lp3830
(S'turn'
S'right'
S''
tp3831
aa(lp3832
(S'travel'
S'steps'
S' 2'
tp3833
a(S'verify'
S'side'
S' gravel hallway'
tp3834
aa(lp3835
(S'turn'
S'left'
S''
tp3836
a(S'travel'
S'steps'
S' 2'
tp3837
aa(lp3838
(S'travel'
S''
S''
tp3839
a(S'verify'
S'front'
S' wall'
tp3840
aa(lp3841
(S'turn'
S'right'
S''
tp3842
aa(lp3843
(S'travel'
S''
S''
tp3844
a(S'verify'
S'at'
S' chair'
tp3845
a(S'turn'
S'left'
S''
tp3846
aa(lp3847
(S'turn'
S'right'
S''
tp3848
aa(lp3849
(S'verify'
S'front'
S' yellow hallway'
tp3850
a(S'travel'
S'steps'
S' 3'
tp3851
a(S'verify'
S'front'
S' wall'
tp3852
aa(lp3853
(S'travel'
S''
S''
tp3854
a(S'verify'
S'at'
S' hatrack'
tp3855
a(S'turn'
S'left'
S''
tp3856
a(S'verify'
S'front'
S' yellow hallway'
tp3857
aa(lp3858
(S'verify'
S'front'
S' easel'
tp3859
a(S'travel'
S'steps'
S' 2'
tp3860
a(S'verify'
S'back'
S' easel'
tp3861
aa(lp3862
(S'verify'
S'at'
S' easel'
tp3863
aa(lp3864
(S'turn'
S''
S''
tp3865
a(S'verify'
S'front'
S' brick hallway'
tp3866
aa(lp3867
(g339
S''
S''
tp3868
aa(lp3869
(S'travel'
S'steps'
S' 1'
tp3870
a(S'turn'
S'left'
S''
tp3871
aa(lp3872
(S'turn'
S'right'
S''
tp3873
aa(lp3874
(S'verify'
S'at'
S' hatrack'
tp3875
aa(lp3876
(S'travel'
S''
S''
tp3877
a(S'verify'
S'side'
S' blue hallway'
tp3878
a(S'turn'
S'right'
S''
tp3879
aa(lp3880
(S'travel'
S''
S''
tp3881
a(S'turn'
S''
S''
tp3882
a(S'travel'
S''
S''
tp3883
a(S'turn'
S''
S''
tp3884
aa(lp3885
(S'turn'
S'right'
S''
tp3886
aa(lp3887
(S'turn'
S''
S''
tp3888
a(S'verify'
S'back'
S' wall'
tp3889
aa(lp3890
(S'verify'
S'at'
S' easel'
tp3891
aa(lp3892
(g339
S''
S''
tp3893
aa(lp3894
(S'verify'
S'front'
S' blue hallway'
tp3895
a(S'travel'
S''
S''
tp3896
a(S'verify'
S'at'
S' chair'
tp3897
a(S'turn'
S'right'
S''
tp3898
aa(lp3899
(S'travel'
S''
S''
tp3900
aa(lp3901
(S'verify'
S'front'
S' easel'
tp3902
a(S'travel'
S''
S''
tp3903
a(S'verify'
S'at'
S' easel'
tp3904
a(S'turn'
S'left'
S''
tp3905
aa(lp3906
(S'turn'
S'left'
S''
tp3907
aa(lp3908
(S'turn'
S'left'
S''
tp3909
aa(lp3910
(S'turn'
S''
S''
tp3911
a(S'verify'
S'back'
S' easel'
tp3912
aa(lp3913
(S'travel'
S''
S''
tp3914
a(S'verify'
p3915
S'front'
S' wall'
tp3916
a(g3915
S'right'
S' wall'
tp3917
a(g3915
S'back'
S' concrete hallway'
tp3918
a(g3915
S'left'
S' concrete hallway'
tp3919
a(g3915
S'back'
S' butterfly wall'
tp3920
a(g3915
S'left'
S' butterfly wall'
tp3921
aa(lp3922
(S'travel'
S'steps'
S' 1'
tp3923
aa(lp3924
(S'turn'
S'left'
S''
tp3925
aa(lp3926
(S'travel'
S'steps'
S' 2'
tp3927
aa(lp3928
(S'turn'
S'right'
S''
tp3929
aa(lp3930
(S'verify'
p3931
S'side'
S' gravel hallway'
tp3932
a(g3931
S'right'
S' easel'
p3933
tp3934
aa(lp3935
(S'verify'
p3936
S'left'
S' wall'
tp3937
a(g3936
S'right'
S' wall'
tp3938
a(g3936
S'front'
S' wall'
tp3939
a(g3936
S'back'
S' yellow hallway'
tp3940
aa(lp3941
(S'travel'
S'steps'
S' 1'
tp3942
aa(lp3943
(S'turn'
S'left'
S''
tp3944
aa(lp3945
(S'travel'
S'steps'
S' 3'
tp3946
a(S'verify'
S'front'
S' wall'
tp3947
aa(lp3948
(S'verify'
S'right'
S' gravel hallway'
tp3949
aa(lp3950
(S'travel'
S'steps'
S' 1'
tp3951
aa(lp3952
(S'travel'
S''
S''
tp3953
a(S'verify'
S'side'
S' blue hallway'
tp3954
aa(lp3955
(S'turn'
S'left'
S''
tp3956
aa(lp3957
(S'turn'
S''
S''
tp3958
a(S'verify'
S'back'
S' wall'
tp3959
aa(lp3960
(S'travel'
S'steps'
S' 2'
tp3961
a(S'verify'
S'side'
S' blue hallway'
tp3962
aa(lp3963
(S'turn'
S'left'
S''
tp3964
aa(lp3965
(S'travel'
S''
S''
tp3966
a(S'verify'
p3967
S'front'
S' wall'
tp3968
a(g3967
S'right'
S' wall'
tp3969
a(S'turn'
S'left'
S''
tp3970
a(S'travel'
S''
S''
tp3971
a(S'verify'
S'front'
S' wall'
tp3972
a(S'turn'
S'left'
S''
tp3973
a(S'verify'
S'front'
S' grass hallway'
tp3974
aa(lp3975
(S'turn'
S''
S''
tp3976
a(S'verify'
p3977
S'back'
S' wall'
tp3978
a(g3977
S'at'
S' 3-intersection'
tp3979
aa(lp3980
(S'travel'
S''
S''
tp3981
a(S'verify'
p3982
S'front'
S' brick hallway'
tp3983
a(g3982
S'back'
S' brick hallway'
p3984
tp3985
aa(lp3986
(S'turn'
S'left'
S''
tp3987
aa(lp3988
(S'turn'
S'right'
S''
tp3989
aa(lp3990
(g339
S''
S''
tp3991
aa(lp3992
(g339
S''
S''
tp3993
aa(lp3994
(S'verify'
S'at'
S' chair'
tp3995
a(S'turn'
S'left'
S''
tp3996
aa(lp3997
(S'travel'
S'steps'
S' 1'
tp3998
aa(lp3999
(S'travel'
S''
S''
tp4000
a(S'verify'
S'front'
S' wall'
tp4001
aa(lp4002
(S'travel'
S''
S''
tp4003
a(S'verify'
S'at'
S' sofa'
tp4004
a(S'turn'
S'left'
S''
tp4005
a(S'travel'
S''
S''
tp4006
a(S'verify'
S'at'
S' sofa'
tp4007
a(S'turn'
S'right'
S''
tp4008
aa(lp4009
(S'travel'
S'steps'
S' 2'
tp4010
a(S'verify'
S'at'
S' easel'
tp4011
aa(lp4012
(S'turn'
S''
S''
tp4013
a(S'verify'
S'front'
S' hatrack'
tp4014
aa(lp4015
(S'turn'
S'right'
S''
tp4016
aa(lp4017
(S'verify'
S'at'
S' hatrack'
tp4018
a(S'turn'
S'left'
S''
tp4019
aa(lp4020
(S'turn'
S''
S''
tp4021
a(S'verify'
S'front'
S' yellow hallway'
tp4022
a(S'travel'
S''
S''
tp4023
a(S'verify'
S'side'
S' flower hallway'
tp4024
aa(lp4025
(S'travel'
S'steps'
S' 4'
tp4026
aa(lp4027
(g339
S''
S''
tp4028
aa(lp4029
(S'travel'
S'steps'
S' 4'
tp4030
a(S'verify'
S'left'
S' concrete hallway'
tp4031
aa(lp4032
(S'verify'
p4033
S'front'
S' hatrack'
p4034
tp4035
a(g4033
S'front'
S' flower hallway'
tp4036
a(S'travel'
S''
S''
tp4037
a(S'verify'
p4038
S'back'
p4039
S' hatrack'
p4040
tp4041
a(g4038
S'front'
S' wall'
p4042
tp4043
aa(lp4044
(S'verify'
p4045
S'left'
S' flower hallway'
p4046
tp4047
a(g4045
S'right'
S' flower hallway'
p4048
tp4049
aa(lp4050
(S'travel'
S'steps'
S' 3'
tp4051
a(S'verify'
S'side'
S' flower hallway'
tp4052
aa(lp4053
(g339
S''
S''
tp4054
aa(lp4055
(S'travel'
S'steps'
S' 2'
tp4056
aa(lp4057
(S'travel'
S'steps'
S' 2'
tp4058
aa(lp4059
(S'travel'
S''
S''
tp4060
a(S'verify'
p4061
S'front'
S' gravel hallway'
tp4062
a(g4061
S'side'
S' yellow hallway'
tp4063
a(S'turn'
S'left'
S''
tp4064
aa(lp4065
(S'turn'
S'left'
S''
tp4066
aa(lp4067
(S'verify'
p4068
S'back'
S' gravel hallway'
tp4069
a(g4068
S'front'
S' gravel hallway'
tp4070
aa(lp4071
(S'verify'
S'at'
S' easel'
tp4072
aa(lp4073
(S'turn'
S'left'
S''
tp4074
aa(lp4075
(S'turn'
S''
S''
tp4076
a(S'verify'
S'front'
S' chair'
tp4077
a(S'travel'
S''
S''
tp4078
a(S'verify'
p4079
S'back'
S' chair'
tp4080
a(g4079
S'side'
S' yellow hallway'
tp4081
aa(lp4082
(S'travel'
S'steps'
S' 1'
tp4083
aa(lp4084
(S'travel'
S'steps'
S' 2'
tp4085
aa(lp4086
(S'travel'
S'steps'
S' 1'
tp4087
aa(lp4088
(S'turn'
S'right'
S''
tp4089
aa(lp4090
(S'travel'
S''
S''
tp4091
a(S'verify'
S'at'
S' easel'
tp4092
a(S'turn'
S'left'
S''
tp4093
aa(lp4094
(S'turn'
S'left'
S''
tp4095
aa(lp4096
(S'verify'
p4097
S'front'
S' gravel hallway'
tp4098
a(g4097
S'back'
S' easel'
tp4099
aa(lp4100
(S'turn'
S'right'
S''
tp4101
aa(lp4102
(S'travel'
S'steps'
S' 1'
tp4103
aa(lp4104
(g339
S''
S''
tp4105
aa(lp4106
(S'verify'
S'front'
S' flower hallway'
tp4107
a(S'travel'
S''
S''
tp4108
a(S'turn'
S''
S''
tp4109
a(S'verify'
S'front'
S' tower wall'
tp4110
a(S'travel'
S''
S''
tp4111
a(S'verify'
p4112
S'front'
S' wall'
tp4113
a(g4112
S'left'
S' wall'
tp4114
a(g4112
S'right'
S' wall'
tp4115
aa(lp4116
(S'turn'
S'right'
S''
tp4117
a(S'verify'
S'front'
S' brick hallway'
tp4118
aa(lp4119
(S'travel'
S''
S''
tp4120
a(S'verify'
S'side'
S' gravel hallway'
tp4121
aa(lp4122
(S'travel'
S''
S''
tp4123
a(S'verify'
S'at'
S' easel'
tp4124
aa(lp4125
(S'turn'
S'left'
S''
tp4126
aa(lp4127
(S'turn'
S''
S''
tp4128
a(S'verify'
S'front'
S' yellow hallway'
tp4129
aa(lp4130
(S'travel'
S'steps'
S' 6'
tp4131
aa(lp4132
(S'travel'
S'steps'
S' 1'
tp4133
a(S'verify'
S'side'
S' flower hallway'
tp4134
aa(lp4135
(S'travel'
S''
S''
tp4136
a(S'verify'
S'at'
S' chair'
tp4137
a(S'turn'
S'right'
S''
tp4138
aa(lp4139
(S'verify'
S'front'
S' wood hallway'
tp4140
a(S'travel'
S''
S''
tp4141
a(S'turn'
S'left'
S''
tp4142
aa(lp4143
(S'travel'
S'steps'
S' 1'
tp4144
aa(lp4145
(S'verify'
p4146
S'side'
S' concrete hallway'
tp4147
a(g4146
S'right'
S' sofa'
tp4148
aa(lp4149
(S'turn'
S'right'
S''
tp4150
a(S'travel'
S''
S''
tp4151
a(S'verify'
S'front'
S' wall'
tp4152
aa(lp4153
(S'turn'
S'right'
S''
tp4154
a(S'travel'
S''
S''
tp4155
a(S'verify'
S'at'
S' barstool'
tp4156
aa(lp4157
(g339
S''
S''
tp4158
aa(lp4159
(S'turn'
S'right'
S''
tp4160
aa(lp4161
(S'turn'
S''
S''
tp4162
a(S'verify'
S'left'
S' wall'
tp4163
aa(lp4164
(S'turn'
S''
S''
tp4165
a(S'verify'
S'right'
S' wall'
tp4166
aa(lp4167
(S'turn'
S''
S''
tp4168
a(S'verify'
S'back'
S' wall'
tp4169
a(S'turn'
S'right'
S''
tp4170
aa(lp4171
(S'travel'
S'steps'
S' 2'
tp4172
aa(lp4173
(S'travel'
S''
S''
tp4174
a(S'verify'
p4175
S'front'
S' wall'
tp4176
a(g4175
S'back'
S' butterfly wall'
tp4177
aa(lp4178
(S'travel'
S'steps'
S' 1'
tp4179
a(S'turn'
S'right'
S''
tp4180
aa(lp4181
(S'travel'
S''
S''
tp4182
a(S'verify'
S'front'
S' easel'
tp4183
a(S'turn'
S'right'
S''
tp4184
aa(lp4185
(S'travel'
S'steps'
S' 1'
tp4186
aa(lp4187
(S'verify'
p4188
S'right'
S' concrete hallway'
tp4189
a(g4188
S'right'
S' sofa'
tp4190
aa(lp4191
(S'verify'
S'side'
S' flower hallway'
tp4192
a(S'turn'
S'right'
S''
tp4193
aa(lp4194
(S'travel'
S'steps'
S' 2'
tp4195
aa(lp4196
(S'travel'
S''
S''
tp4197
a(S'turn'
S''
S''
tp4198
a(S'travel'
S''
S''
tp4199
a(S'turn'
S''
S''
tp4200
a(S'travel'
S''
S''
tp4201
a(S'turn'
S''
S''
tp4202
aa(lp4203
(S'turn'
S''
S''
tp4204
a(S'verify'
p4205
S'back'
S' wall'
tp4206
a(g4205
S'at'
S' 3-intersection'
tp4207
aa(lp4208
(S'verify'
p4209
S'front'
S' chair'
tp4210
a(g4209
S'front'
S' barstool'
tp4211
a(S'travel'
S'steps'
S' 4'
tp4212
a(S'verify'
p4213
S'side'
S' concrete hallway'
tp4214
a(g4213
S'back'
S' barstool'
tp4215
a(g4213
S'back'
S' chair'
tp4216
aa(lp4217
(S'travel'
S'steps'
S' 2'
tp4218
aa(lp4219
(S'travel'
S'steps'
S' 1'
tp4220
a(S'verify'
S'side'
S' flower hallway'
tp4221
aa(lp4222
(S'turn'
S''
S''
tp4223
a(S'verify'
S'back'
S' wall'
tp4224
aa(lp4225
(S'travel'
S''
S''
tp4226
a(S'verify'
S'side'
S' blue hallway'
tp4227
aa(lp4228
(S'travel'
S''
S''
tp4229
a(S'verify'
S'side'
S' concrete hallway'
tp4230
aa(lp4231
(S'turn'
S'right'
S''
tp4232
aa(lp4233
(S'travel'
S'steps'
S' 2'
tp4234
a(S'verify'
S'side'
S' gravel hallway'
tp4235
aa(lp4236
(S'turn'
S'right'
S''
tp4237
a(S'verify'
S'front'
S' blue hallway'
tp4238
a(S'travel'
S''
S''
tp4239
a(S'verify'
S'front'
S' wall'
tp4240
aa(lp4241
(S'turn'
S'right'
S''
tp4242
a(S'verify'
S'front'
S' wood hallway'
tp4243
aa(lp4244
(S'verify'
S'right'
S' hatrack'
p4245
tp4246
aa(lp4247
(S'travel'
S''
S''
tp4248
a(S'verify'
S'front'
S' flower hallway'
tp4249
aa(lp4250
(S'travel'
S'steps'
S' 1'
tp4251
a(S'verify'
p4252
S'left'
S' wall'
tp4253
a(g4252
S'front'
S' wall'
tp4254
a(S'turn'
S'right'
S''
tp4255
a(S'verify'
p4256
S'front'
S' blue hallway'
tp4257
a(g4256
S'front'
S' chair'
tp4258
aa(lp4259
(S'turn'
S'left'
S''
tp4260
aa(lp4261
(S'travel'
S'steps'
S' 2'
tp4262
a(S'verify'
S'side'
S' flower hallway'
tp4263
aa(lp4264
(S'turn'
S'left'
S''
tp4265
a(S'verify'
p4266
S'front'
S' brick hallway'
tp4267
a(g4266
S'front'
S' lamp'
tp4268
a(S'travel'
S''
S''
tp4269
a(S'verify'
p4270
S'back'
S' lamp'
tp4271
a(g4270
S'side'
S' concrete hallway'
tp4272
aa(lp4273
(S'travel'
S'steps'
S' 2'
tp4274
a(S'verify'
S'side'
S' gravel hallway'
tp4275
aa(lp4276
(S'verify'
S'right'
S' sofa'
tp4277
aa(lp4278
(S'travel'
S'steps'
S' 1'
tp4279
aa(lp4280
(S'verify'
S'front'
S' yellow hallway'
tp4281
a(S'travel'
S'steps'
S' 1'
tp4282
a(S'verify'
S'side'
S' concrete hallway'
tp4283
aa(lp4284
(S'verify'
S'front'
S' grass hallway'
tp4285
aa(lp4286
(S'turn'
S'left'
S''
tp4287
aa(lp4288
(S'turn'
S'left'
S''
tp4289
aa(lp4290
(S'travel'
S''
S''
tp4291
a(S'verify'
S'side'
S' blue hallway'
tp4292
a(S'turn'
S'right'
S''
tp4293
aa(lp4294
(S'travel'
S'steps'
S' 1'
tp4295
aa(lp4296
(S'turn'
S'left'
S''
tp4297
aa(lp4298
(S'travel'
S'steps'
S' 1'
tp4299
aa(lp4300
(S'travel'
S''
S''
tp4301
a(S'verify'
S'side'
S' concrete hallway'
tp4302
aa(lp4303
(S'travel'
S'steps'
S' 4'
tp4304
a(S'verify'
S'front'
S' wall'
tp4305
aa(lp4306
(S'turn'
S''
S''
tp4307
a(S'travel'
S''
S''
tp4308
a(S'verify'
S'at'
S' chair'
tp4309
a(S'travel'
S'steps'
S' 1'
tp4310
aa(lp4311
(S'verify'
S'front'
S' lamp'
tp4312
a(S'travel'
S''
S''
tp4313
a(S'verify'
S'back'
S' lamp'
tp4314
aa(lp4315
(S'turn'
S'left'
S''
tp4316
aa(lp4317
(S'turn'
S'right'
S''
tp4318
aa(lp4319
(S'turn'
S'left'
S''
tp4320
aa(lp4321
(S'turn'
S''
S''
tp4322
a(S'verify'
S'front'
S' flower hallway'
tp4323
aa(lp4324
(S'travel'
S'steps'
S' 1'
tp4325
aa(lp4326
(S'turn'
S''
S''
tp4327
a(S'verify'
S'left'
S' wall'
tp4328
aa(lp4329
(S'turn'
S''
S''
tp4330
a(S'verify'
S'back'
S' wall'
tp4331
aa(lp4332
(S'travel'
S'steps'
S' 1'
tp4333
aa(lp4334
(S'travel'
S''
S''
tp4335
a(S'verify'
S'front'
S' wall'
tp4336
aa(lp4337
(S'travel'
S''
S''
tp4338
a(S'verify'
S'at'
S' sofa'
tp4339
a(S'turn'
S'left'
S''
tp4340
a(S'travel'
S''
S''
tp4341
a(S'verify'
S'at'
S' sofa'
tp4342
aa(lp4343
(S'turn'
S'left'
S''
tp4344
aa(lp4345
(S'travel'
S'steps'
S' 1'
tp4346
aa(lp4347
(S'verify'
S'front'
S' hatrack'
tp4348
a(S'travel'
S'steps'
S' 3'
tp4349
a(S'verify'
p4350
S'back'
S' hatrack'
tp4351
a(g4350
S'side'
S' yellow hallway'
tp4352
aa(lp4353
(S'turn'
S''
S''
tp4354
a(S'verify'
p4355
S'back'
S' wall'
tp4356
a(g4355
S'right'
S' wall'
tp4357
aa(lp4358
(S'travel'
S''
S''
tp4359
a(S'verify'
S'side'
S' flower hallway'
tp4360
aa(lp4361
(S'turn'
S'left'
S''
tp4362
aa(lp4363
(S'travel'
S'steps'
S' 1'
tp4364
a(S'turn'
S'right'
S''
tp4365
aa(lp4366
(S'turn'
S'left'
S''
tp4367
aa(lp4368
(S'travel'
S''
S''
tp4369
a(S'verify'
S'front'
S' flower hallway'
tp4370
aa(lp4371
(S'travel'
S''
S''
tp4372
a(S'verify'
S'side'
S' gravel hallway'
tp4373
a(S'turn'
S'right'
S''
tp4374
a(S'travel'
S''
S''
tp4375
a(S'verify'
S'at'
S' easel'
tp4376
aa(lp4377
(S'travel'
S''
S''
tp4378
a(S'verify'
S'side'
S' flower hallway'
tp4379
aa(lp4380
(S'turn'
S'left'
S''
tp4381
aa(lp4382
(g339
S''
S''
tp4383
aa(lp4384
(S'turn'
S'left'
S''
tp4385
aa(lp4386
(S'travel'
S''
S''
tp4387
aa(lp4388
(S'turn'
S'right'
S''
tp4389
aa(lp4390
(S'turn'
S''
S''
tp4391
a(S'verify'
p4392
S'front'
S' gravel hallway'
tp4393
a(g4392
S'front'
S' easel'
tp4394
aa(lp4395
(S'turn'
S'right'
S''
tp4396
a(S'travel'
S'steps'
S' 1'
tp4397
aa(lp4398
(S'turn'
S''
S''
tp4399
a(S'verify'
S'back'
S' wall'
tp4400
a(S'turn'
S'left'
S''
tp4401
aa(lp4402
(S'turn'
S'left'
S''
tp4403
aa(lp4404
(S'turn'
S'right'
S''
tp4405
aa(lp4406
(S'turn'
S''
S''
tp4407
a(S'verify'
p4408
S'back'
S' wall'
tp4409
a(g4408
S'at'
S' 3-intersection'
tp4410
aa(lp4411
(S'verify'
p4412
S'right'
S' concrete hallway'
tp4413
a(g4412
S'left'
S' wall'
tp4414
aa(lp4415
(S'verify'
S'front'
S' blue hallway'
tp4416
aa(lp4417
(S'turn'
S''
S''
tp4418
a(S'verify'
S'front'
S' yellow hallway'
tp4419
aa(lp4420
(S'verify'
p4421
S'right'
S' butterfly wall'
tp4422
a(g4421
S'left'
S' tower wall'
tp4423
aa(lp4424
(S'travel'
S'steps'
S' 1'
tp4425
aa(lp4426
(S'verify'
S'at'
S' chair'
tp4427
a(S'turn'
S'left'
S''
tp4428
a(S'travel'
S'steps'
S' 1'
tp4429
a(S'turn'
S'right'
S''
tp4430
aa(lp4431
(S'turn'
S'right'
S''
tp4432
a(S'travel'
S''
S''
tp4433
a(S'verify'
S'right'
S' hallway'
tp4434
a(S'turn'
S'right'
S''
tp4435
aa(lp4436
(S'verify'
S'right'
S' concrete hallway'
p4437
tp4438
aa(lp4439
(S'turn'
S'right'
S''
tp4440
a(S'verify'
S'front'
S' flower hallway'
tp4441
a(S'travel'
S'steps'
S' 1'
tp4442
a(S'turn'
S'right'
S''
tp4443
a(S'travel'
S''
S''
tp4444
a(S'verify'
S'front'
S' wall'
tp4445
aa(lp4446
(S'verify'
p4447
S'front'
S' sofa'
tp4448
a(g4447
S'front'
S' hatrack'
tp4449
aa(lp4450
(S'travel'
S'steps'
S' 3'
tp4451
aa(lp4452
(S'verify'
S'front'
S' chair'
tp4453
a(S'turn'
S'right'
S''
tp4454
aa(lp4455
(S'turn'
S'left'
S''
tp4456
aa(lp4457
(S'travel'
S''
S''
tp4458
a(S'verify'
S'side'
S' brick hallway'
tp4459
a(S'turn'
S''
S''
tp4460
aa(lp4461
(S'travel'
S'steps'
S' 1'
tp4462
aa(lp4463
(S'turn'
S'right'
S''
tp4464
aa(lp4465
(S'travel'
S'steps'
S' 1'
tp4466
a(S'verify'
p4467
S'front'
S' gravel hallway'
tp4468
a(g4467
S'side'
S' yellow hallway'
tp4469
aa(lp4470
(S'travel'
S''
S''
tp4471
a(S'verify'
p4472
S'at'
S' easel'
tp4473
a(g4472
S'front'
S' flower hallway'
tp4474
a(g4472
S'back'
S' flower hallway'
p4475
tp4476
aa(lp4477
(S'travel'
S'steps'
S' 1'
tp4478
aa(lp4479
(S'travel'
S'steps'
S' 3'
tp4480
a(S'verify'
S'side'
S' yellow hallway'
tp4481
aa(lp4482
(S'travel'
S''
S''
tp4483
a(S'verify'
S'front'
S' wall'
tp4484
aa(lp4485
(S'turn'
S''
S''
tp4486
a(S'verify'
p4487
S'front'
S' gravel hallway'
tp4488
a(g4487
S'front'
S' easel'
tp4489
aa(lp4490
(S'travel'
S'steps'
S' 1'
tp4491
a(S'verify'
S'side'
S' brick hallway'
tp4492
aa(lp4493
(S'verify'
p4494
S'front'
S' barstool'
tp4495
a(g4494
S'front'
S' chair'
tp4496
a(S'travel'
S''
S''
tp4497
a(S'verify'
p4498
S'back'
S' barstool'
tp4499
a(g4498
S'back'
S' chair'
tp4500
a(g4498
S'side'
S' flower hallway'
tp4501
aa(lp4502
(S'travel'
S''
S''
tp4503
a(S'verify'
S'side'
S' blue hallway'
tp4504
aa(lp4505
(S'verify'
S'front'
S' easel'
tp4506
a(S'travel'
S''
S''
tp4507
a(S'verify'
S'back'
S' easel'
tp4508
aa(lp4509
(S'turn'
S'left'
S''
tp4510
a(S'travel'
S'steps'
S' 1'
tp4511
aa(lp4512
(S'turn'
S'left'
S''
tp4513
a(S'verify'
S'front'
S' yellow hallway'
tp4514
a(S'travel'
S''
S''
tp4515
a(S'verify'
S'front'
S' wall'
tp4516
aa(lp4517
(S'turn'
S'left'
S''
tp4518
a(S'verify'
S'front'
S' wood hallway'
tp4519
aa(lp4520
(S'verify'
S'front'
S' hatrack'
tp4521
aa(lp4522
(S'turn'
S'right'
S''
tp4523
aa(lp4524
(S'turn'
S'left'
S''
tp4525
aa(lp4526
(S'verify'
p4527
S'front'
S' brick hallway'
tp4528
a(g4527
S'front'
S' lamp'
tp4529
a(S'travel'
S''
S''
tp4530
a(S'verify'
p4531
S'back'
S' lamp'
tp4532
a(g4531
S'at'
S' hatrack'
tp4533
aa(lp4534
(S'turn'
S''
S''
tp4535
a(S'verify'
S'front'
S' gravel hallway'
tp4536
a(S'travel'
S''
S''
tp4537
a(S'verify'
S'side'
S' brick hallway'
tp4538
aa(lp4539
(S'verify'
p4540
S'at'
S' easel'
tp4541
a(g4540
S'front'
S' fish wall'
tp4542
a(g4540
S'front'
S' gravel hallway'
tp4543
aa(lp4544
(S'turn'
S''
S''
tp4545
a(S'verify'
S'back'
S' wall'
tp4546
a(S'turn'
S'right'
S''
tp4547
aa(lp4548
(S'turn'
S'right'
S''
tp4549
aa(lp4550
(S'turn'
S'left'
S''
tp4551
aa(lp4552
(S'verify'
S'side'
S' gravel hallway'
tp4553
a(S'turn'
S'right'
S''
tp4554
aa(lp4555
(S'travel'
S''
S''
tp4556
a(S'verify'
S'side'
S' blue hallway'
tp4557
aa(lp4558
(S'turn'
S'left'
S''
tp4559
aa(lp4560
(S'turn'
S''
S''
tp4561
a(S'verify'
p4562
S'front'
S' brick hallway'
tp4563
a(g4562
S'back'
S' sofa'
tp4564
aa(lp4565
(S'verify'
S'front'
S' chair'
tp4566
aa(lp4567
(S'travel'
S''
S''
tp4568
a(S'verify'
S'at'
S' lamp'
tp4569
a(S'travel'
S'steps'
S' 1'
tp4570
a(S'verify'
p4571
S'side'
S' concrete hallway'
tp4572
a(g4571
S'at'
S' 3-intersection'
tp4573
aa(lp4574
(S'verify'
p4575
S'at'
S' chair'
tp4576
a(g4575
S'front'
S' wall'
tp4577
a(S'turn'
S'right'
S''
tp4578
aa(lp4579
(S'turn'
S'left'
S''
tp4580
a(S'travel'
S'steps'
S' 2'
tp4581
aa(lp4582
(S'travel'
S''
S''
tp4583
a(S'verify'
S'at'
S' easel'
tp4584
a(S'turn'
S'right'
S''
tp4585
a(S'verify'
S'front'
S' wood hallway'
tp4586
aa(lp4587
(S'turn'
S''
S''
tp4588
a(S'verify'
p4589
S'back'
S' wall'
tp4590
a(g4589
S'left'
S' wall'
tp4591
a(g4589
S'right'
S' wall'
tp4592
aa(lp4593
(S'verify'
S'at'
S' hatrack'
tp4594
a(S'turn'
S'right'
S''
tp4595
aa(lp4596
(S'turn'
S''
S''
tp4597
a(S'verify'
S'front'
S' concrete hallway'
tp4598
a(S'travel'
S'steps'
S' 1'
tp4599
a(S'verify'
S'side'
S' blue hallway'
tp4600
aa(lp4601
(S'turn'
S''
S''
tp4602
a(S'verify'
S'left'
S' wall'
tp4603
aa(lp4604
(S'travel'
S'steps'
S' 5'
tp4605
aa(lp4606
(S'travel'
S''
S''
tp4607
a(S'verify'
S'at'
S' chair'
tp4608
a(S'travel'
S'steps'
S' 1'
tp4609
aa(lp4610
(S'turn'
S'left'
S''
tp4611
aa(lp4612
(S'verify'
p4613
S'front'
S' easel'
tp4614
a(g4613
S'left'
S' yellow hallway'
tp4615
a(g4613
S'right'
S' yellow hallway'
tp4616
aa(lp4617
(S'travel'
S''
S''
tp4618
a(S'verify'
S'left'
S' hallway'
tp4619
a(S'turn'
S'left'
S''
tp4620
aa(lp4621
(S'turn'
S''
S''
tp4622
a(S'verify'
S'front'
S' flower hallway'
tp4623
aa(lp4624
(S'turn'
S'right'
S''
tp4625
aa(lp4626
(S'travel'
S''
S''
tp4627
a(S'verify'
S'at'
S' chair'
tp4628
aa(lp4629
(S'turn'
S'right'
S''
tp4630
a(S'verify'
S'front'
S' brick hallway'
tp4631
a(S'travel'
S''
S''
tp4632
a(S'verify'
S'side'
S' gravel hallway'
tp4633
aa(lp4634
(S'turn'
S'left'
S''
tp4635
aa(lp4636
(S'travel'
S''
S''
tp4637
a(S'verify'
S'front'
S' wall'
tp4638
aa(lp4639
(S'verify'
p4640
S'front'
S' brick hallway'
tp4641
a(g4640
S'front'
S' hatrack'
tp4642
a(g4640
S'front'
S' lamp'
tp4643
a(S'travel'
S'steps'
S' 6'
tp4644
a(S'verify'
p4645
S'side'
S' wood hallway'
tp4646
a(g4645
S'back'
S' lamp'
tp4647
a(g4645
S'back'
S' hatrack'
tp4648
aa(lp4649
(S'turn'
S'left'
S''
tp4650
aa(lp4651
(S'travel'
S'steps'
S' 1'
tp4652
aa(lp4653
(S'turn'
S''
S''
tp4654
a(S'verify'
S'back'
S' wall'
tp4655
aa(lp4656
(S'turn'
S''
S''
tp4657
a(S'verify'
p4658
S'back'
S' wall'
tp4659
a(g4658
S'front'
S' yellow hallway'
tp4660
a(S'travel'
S'steps'
S' 1'
tp4661
aa(lp4662
(S'travel'
S'steps'
S' 1'
tp4663
a(S'verify'
p4664
S'front'
S' wall'
tp4665
a(g4664
S'left'
S' wall'
tp4666
a(g4664
S'right'
S' wall'
tp4667
aa(lp4668
(S'travel'
S'steps'
S' 1'
tp4669
a(S'verify'
S'side'
S' flower hallway'
tp4670
aa(lp4671
(S'turn'
S''
S''
tp4672
a(S'verify'
p4673
S'front'
S' yellow hallway'
tp4674
a(g4673
S'back'
S' wall'
tp4675
a(S'travel'
S''
S''
tp4676
a(S'verify'
S'side'
S' blue hallway'
tp4677
aa(lp4678
(g339
S''
S''
tp4679
aa(lp4680
(S'turn'
S'left'
S''
tp4681
a(S'verify'
S'front'
S' brick hallway'
tp4682
aa(lp4683
(S'turn'
S'right'
S''
tp4684
aa(lp4685
(S'travel'
S''
S''
tp4686
a(S'verify'
S'side'
S' brick hallway'
tp4687
a(S'turn'
S'right'
S''
tp4688
aa(lp4689
(S'turn'
S'right'
S''
tp4690
aa(lp4691
(g339
S''
S''
tp4692
aa(lp4693
(S'travel'
S'steps'
S' 4'
tp4694
aa(lp4695
(S'travel'
S''
S''
tp4696
a(S'verify'
S'front'
S' wall'
tp4697
a(S'turn'
S'left'
S''
tp4698
aa(lp4699
(S'turn'
S'left'
S''
tp4700
aa(lp4701
(S'turn'
S'right'
S''
tp4702
aa(lp4703
(S'travel'
S''
S''
tp4704
a(S'verify'
p4705
S'left'
S' wall'
tp4706
a(g4705
S'front'
S' wall'
tp4707
a(S'turn'
S'right'
S''
tp4708
a(S'verify'
S'front'
S' wood hallway'
tp4709
aa(lp4710
(S'travel'
S''
S''
tp4711
a(S'verify'
S'front'
S' wall'
tp4712
aa(lp4713
(S'travel'
S''
S''
tp4714
a(S'verify'
S'side'
S' blue hallway'
tp4715
aa(lp4716
(S'verify'
S'front'
S' chair'
tp4717
a(S'travel'
S''
S''
tp4718
a(S'verify'
p4719
S'back'
S' chair'
tp4720
a(g4719
S'side'
S' flower hallway'
tp4721
aa(lp4722
(S'turn'
S'left'
S''
tp4723
aa(lp4724
(S'verify'
p4725
S'front'
S' lamp'
tp4726
a(g4725
S'front'
S' hatrack'
tp4727
a(S'travel'
S''
S''
tp4728
a(S'verify'
p4729
S'back'
S' hatrack'
tp4730
a(g4729
S'back'
S' lamp'
tp4731
aa(lp4732
(S'turn'
S'left'
S''
tp4733
aa(lp4734
(S'turn'
S'left'
S''
tp4735
aa(lp4736
(S'travel'
S''
S''
tp4737
a(S'verify'
p4738
S'front'
S' wall'
tp4739
a(g4738
S'left'
S' wall'
tp4740
a(g4738
S'right'
S' wall'
tp4741
a(g4738
S'back'
S' yellow hallway'
tp4742
a(g4738
S'back'
S' fish wall'
tp4743
aa(lp4744
(S'turn'
S'left'
S''
tp4745
a(S'verify'
S'front'
S' brick hallway'
tp4746
aa(lp4747
(S'travel'
S'steps'
S' 1'
tp4748
aa(lp4749
(S'turn'
S''
S''
tp4750
a(S'verify'
S'front'
S' gravel hallway'
tp4751
a(S'travel'
S''
S''
tp4752
a(S'verify'
S'side'
S' brick hallway'
tp4753
a(S'turn'
S'left'
S''
tp4754
aa(lp4755
(S'travel'
S'steps'
S' 1'
tp4756
a(S'verify'
S'at'
S' hatrack'
tp4757
aa(lp4758
(S'travel'
S''
S''
tp4759
a(S'verify'
S'at'
S' sofa'
tp4760
aa(lp4761
(S'verify'
S'side'
S' wood hallway'
tp4762
a(S'turn'
S'left'
S''
tp4763
aa(lp4764
(S'verify'
S'left'
S' hallway'
tp4765
aa(lp4766
(S'travel'
S''
S''
tp4767
a(S'verify'
S'front'
S' wall'
tp4768
a(S'turn'
S'left'
S''
tp4769
a(S'verify'
S'front'
S' easel'
tp4770
aa(lp4771
(S'turn'
S'left'
S''
tp4772
a(S'travel'
S''
S''
tp4773
a(S'verify'
S'at'
p4774
S' sofa'
p4775
tp4776
aa(lp4777
(S'verify'
S'right'
S' grass hallway'
tp4778
aa(lp4779
(S'turn'
S'left'
S''
tp4780
a(S'travel'
S'steps'
S' 1'
tp4781
aa(lp4782
(S'travel'
S''
S''
tp4783
a(S'verify'
S'at'
S' lamp'
tp4784
a(S'turn'
S'right'
S''
tp4785
aa(lp4786
(S'turn'
S'right'
S''
tp4787
aa(lp4788
(S'turn'
S'right'
S''
tp4789
aa(lp4790
(S'turn'
S''
S''
tp4791
a(S'verify'
S'back'
S' wall'
tp4792
a(S'turn'
S'left'
S''
tp4793
aa(lp4794
(S'travel'
S''
S''
tp4795
a(S'verify'
S'front'
S' wall'
tp4796
aa(lp4797
(S'travel'
S'steps'
S' 1'
tp4798
aa(lp4799
(S'travel'
S'steps'
S' 1'
tp4800
aa(lp4801
(S'turn'
S'left'
S''
tp4802
a(S'verify'
S'front'
S' gravel hallway'
tp4803
aa(lp4804
(S'travel'
S''
S''
tp4805
a(S'verify'
p4806
S'side'
S' concrete hallway'
tp4807
a(g4806
S'right'
p4808
S' butterfly wall'
p4809
tp4810
aa(lp4811
(S'travel'
S''
S''
tp4812
a(S'verify'
S'side'
S' gravel hallway'
tp4813
aa(lp4814
(g339
S''
S''
tp4815
aa(lp4816
(S'verify'
S'at'
S' hatrack'
tp4817
aa(lp4818
(S'verify'
p4819
S'front'
S' hatrack'
tp4820
a(g4819
S'left'
S' concrete hallway'
tp4821
aa(lp4822
(S'travel'
S''
S''
tp4823
a(S'verify'
S'front'
S' wall'
tp4824
aa(lp4825
(S'turn'
S''
S''
tp4826
a(S'verify'
S'back'
S' wall'
tp4827
a(S'turn'
S'right'
S''
tp4828
aa(lp4829
(S'travel'
S''
S''
tp4830
a(S'verify'
S'left'
S' hallway'
tp4831
a(S'turn'
S'left'
S''
tp4832
aa(lp4833
(S'turn'
S''
S''
tp4834
a(S'verify'
S'front'
S' lamp'
tp4835
aa(lp4836
(S'travel'
S''
S''
tp4837
a(S'verify'
S'left'
S' yellow hallway'
tp4838
aa(lp4839
(S'travel'
S'steps'
S' 1'
tp4840
a(S'turn'
S'left'
S''
tp4841
aa(lp4842
(S'travel'
S'steps'
S' 5'
tp4843
aa(lp4844
(S'travel'
S'steps'
S' 1'
tp4845
a(S'verify'
S'at'
S' barstool'
tp4846
aa(lp4847
(S'verify'
S'front'
S' yellow hallway'
tp4848
aa(lp4849
(S'turn'
S'left'
S''
tp4850
a(S'verify'
S'front'
S' wood hallway'
tp4851
aa(lp4852
(S'travel'
S''
S''
tp4853
a(S'verify'
S'at'
S' hatrack'
tp4854
a(S'turn'
S'right'
S''
tp4855
aa(lp4856
(S'travel'
S'steps'
S' 1'
tp4857
aa(lp4858
(S'verify'
S'side'
S' grass hallway'
tp4859
aa(lp4860
(S'travel'
S'steps'
S' 1'
tp4861
a(S'verify'
S'side'
S' wood hallway'
tp4862
aa(lp4863
(S'travel'
S'steps'
S' 1'
tp4864
a(S'verify'
S'side'
S' concrete hallway'
tp4865
aa(lp4866
(S'travel'
S'steps'
S' 3'
tp4867
aa(lp4868
(S'verify'
S'front'
S' brick hallway'
tp4869
a(S'travel'
S'steps'
S' 5'
tp4870
a(S'verify'
S'side'
S' gravel hallway'
tp4871
aa(lp4872
(S'turn'
S''
S''
tp4873
a(S'verify'
p4874
S'back'
S' wall'
tp4875
a(g4874
S'at'
S' 3-intersection'
tp4876
aa(lp4877
(S'travel'
S'steps'
S' 2'
tp4878
a(S'verify'
S'side'
S' brick hallway'
tp4879
aa(lp4880
(S'travel'
S''
S''
tp4881
a(S'verify'
S'left'
S' hallway'
tp4882
a(S'turn'
S'left'
S''
tp4883
aa(lp4884
(S'turn'
S'left'
S''
tp4885
aa(lp4886
(S'turn'
S'left'
S''
tp4887
a(S'verify'
S'front'
S' yellow hallway'
tp4888
aa(lp4889
(S'turn'
S'right'
S''
tp4890
aa(lp4891
(S'turn'
S''
S''
tp4892
a(S'verify'
p4893
S'front'
S' brick hallway'
tp4894
a(g4893
S'back'
S' chair'
tp4895
a(g4893
S'front'
S' lamp'
tp4896
a(g4893
S'front'
S' easel'
tp4897
aa(lp4898
(S'travel'
S'steps'
S' 2'
tp4899
aa(lp4900
(S'verify'
S'front'
S' chair'
tp4901
a(S'travel'
S'steps'
S' 2'
tp4902
a(S'verify'
p4903
S'back'
S' chair'
tp4904
a(g4903
S'at'
S' barstool'
tp4905
aa(lp4906
(S'turn'
S''
S''
tp4907
a(S'verify'
p4908
S'right'
S' chair'
tp4909
a(g4908
S'front'
S' wood hallway'
tp4910
aa(lp4911
(S'turn'
S'left'
S''
tp4912
aa(lp4913
(S'verify'
S'front'
S' gravel hallway'
p4914
tp4915
a(S'travel'
S''
S''
tp4916
a(S'verify'
S'at'
S' barstool'
tp4917
aa(lp4918
(S'travel'
S''
S''
tp4919
a(S'verify'
p4920
S'front'
S' concrete hallway'
tp4921
a(g4920
S'back'
S' concrete hallway'
p4922
tp4923
a(g4920
S'at'
S' hatrack'
tp4924
aa(lp4925
(S'travel'
S''
S''
tp4926
a(S'verify'
S'side'
S' blue hallway'
tp4927
a(S'turn'
S'left'
S''
tp4928
aa(lp4929
(S'turn'
S''
S''
tp4930
a(S'verify'
p4931
S'left'
S' wall'
tp4932
a(g4931
S'back'
S' wall'
tp4933
aa(lp4934
(S'turn'
S'left'
S''
tp4935
a(S'verify'
S'front'
S' concrete hallway'
tp4936
aa(lp4937
(S'turn'
S'right'
S''
tp4938
aa(lp4939
(S'travel'
S''
S''
tp4940
a(S'verify'
S'at'
S' hatrack'
tp4941
a(S'turn'
S'left'
S''
tp4942
aa(lp4943
(S'turn'
S'left'
S''
tp4944
aa(lp4945
(g339
S''
S''
tp4946
aa(lp4947
(S'travel'
S''
S''
tp4948
a(S'verify'
S'front'
S' wall'
tp4949
aa(lp4950
(S'travel'
S''
S''
tp4951
a(S'verify'
S'side'
S' flower hallway'
tp4952
a(S'turn'
S'left'
S''
tp4953
aa(lp4954
(S'turn'
S'right'
S''
tp4955
a(S'verify'
S'front'
S' blue hallway'
tp4956
aa(lp4957
(S'turn'
S''
S''
tp4958
a(S'verify'
p4959
S'back'
S' wall'
tp4960
a(g4959
S'left'
S' wall'
tp4961
a(g4959
S'right'
S' wall'
tp4962
aa(lp4963
(S'verify'
p4964
S'front'
S' lamp'
tp4965
a(g4964
S'front'
S' hatrack'
tp4966
a(S'travel'
S'steps'
S' 5'
tp4967
a(S'verify'
p4968
S'back'
S' lamp'
tp4969
a(g4968
S'back'
S' hatrack'
tp4970
a(g4968
S'side'
S' gravel hallway'
tp4971
aa(lp4972
(S'turn'
S'right'
S''
tp4973
a(S'travel'
S'steps'
S' 1'
tp4974
aa(lp4975
(S'verify'
S'front'
S' gravel hallway'
tp4976
a(S'travel'
S''
S''
tp4977
a(S'verify'
S'side'
S' brick hallway'
tp4978
aa(lp4979
(S'travel'
S'steps'
S' 1'
tp4980
aa(lp4981
(S'turn'
S'right'
S''
tp4982
aa(lp4983
(S'turn'
S''
S''
tp4984
a(S'verify'
S'front'
S' chair'
tp4985
aa(lp4986
(S'travel'
S'steps'
S' 1'
tp4987
aa(lp4988
(S'verify'
S'left'
S' concrete hallway'
tp4989
aa(lp4990
(S'turn'
S''
S''
tp4991
a(S'verify'
S'front'
S' yellow hallway'
tp4992
aa(lp4993
(S'travel'
S''
S''
tp4994
a(S'verify'
S'side'
S' flower hallway'
tp4995
aa(lp4996
(S'travel'
S'steps'
S' 1'
tp4997
a(S'turn'
S'right'
S''
tp4998
a(S'travel'
S''
S''
tp4999
a(S'verify'
S'front'
S' wall'
tp5000
aa(lp5001
(S'travel'
S'steps'
S' 1'
tp5002
aa(lp5003
(S'turn'
S''
S''
tp5004
a(S'verify'
S'front'
S' lamp'
tp5005
aa(lp5006
(S'turn'
S''
S''
tp5007
a(S'verify'
p5008
S'back'
S' wall'
tp5009
a(g5008
S'right'
S' wall'
tp5010
a(g5008
S'left'
S' wall'
tp5011
aa(lp5012
(S'verify'
S'front'
S' gravel hallway'
tp5013
a(S'travel'
S''
S''
tp5014
a(S'verify'
S'side'
S' yellow hallway'
tp5015
aa(lp5016
(S'turn'
S'left'
S''
tp5017
a(S'verify'
S'front'
S' brick hallway'
tp5018
aa(lp5019
(S'travel'
S''
S''
tp5020
a(S'verify'
S'at'
S' sofa'
tp5021
a(S'travel'
S'steps'
S' 1'
tp5022
a(S'turn'
S'right'
S''
tp5023
aa(lp5024
(S'turn'
S''
S''
tp5025
a(S'verify'
S'front'
S' concrete hallway'
tp5026
aa(lp5027
(S'travel'
S''
S''
tp5028
a(S'verify'
S'side'
S' flower hallway'
tp5029
a(S'turn'
S'right'
S''
tp5030
aa(lp5031
(S'turn'
S''
S''
tp5032
a(S'verify'
p5033
S'back'
S' wall'
tp5034
a(g5033
S'at'
S' 3-intersection'
tp5035
aa(lp5036
(S'travel'
S'steps'
S' 1'
tp5037
aa(lp5038
(S'turn'
S''
S''
tp5039
a(S'verify'
S'front'
S' chair'
tp5040
a(S'travel'
S''
S''
tp5041
a(S'verify'
S'at'
S' chair'
tp5042
aa(lp5043
(S'verify'
p5044
S'right'
S' brick hallway'
p5045
tp5046
a(g5044
S'left'
S' brick hallway'
p5047
tp5048
a(g5044
S'left'
S' lamp'
p5049
tp5050
a(g5044
S'left'
S' easel'
p5051
tp5052
aa(lp5053
(S'turn'
S''
S''
tp5054
a(S'verify'
S'front'
S' lamp'
tp5055
a(S'travel'
S''
S''
tp5056
a(S'verify'
S'at'
S' lamp'
tp5057
aa(lp5058
(S'travel'
S''
S''
tp5059
a(S'verify'
S'side'
S' blue hallway'
tp5060
a(S'turn'
S'right'
S''
tp5061
a(S'verify'
p5062
S'front'
S' blue hallway'
tp5063
a(g5062
S'front'
S' chair'
tp5064
a(g5062
S'front'
S' hatrack'
tp5065
a(S'travel'
S''
S''
tp5066
a(S'verify'
S'back'
S' hatrack'
tp5067
aa(lp5068
(S'verify'
S'at'
S' chair'
tp5069
aa(lp5070
(S'turn'
S'right'
S''
tp5071
a(S'verify'
S'front'
S' brick hallway'
tp5072
aa(lp5073
(S'turn'
S'left'
S''
tp5074
a(S'travel'
S''
S''
tp5075
a(S'verify'
p5076
S'at'
S' 4-intersection'
tp5077
a(g5076
S'front'
S' brick hallway'
tp5078
a(g5076
S'side'
S' flower hallway'
tp5079
a(g5076
S'at'
S' easel'
tp5080
aa(lp5081
(S'turn'
S''
S''
tp5082
a(S'verify'
S'front'
S' flower hallway'
tp5083
a(S'travel'
S'steps'
S' 1'
tp5084
a(S'verify'
S'side'
S' brick hallway'
p5085
tp5086
aa(lp5087
(S'turn'
S'left'
S''
tp5088
aa(lp5089
(S'verify'
S'front'
S' wood hallway'
tp5090
a(S'travel'
S''
S''
tp5091
a(S'verify'
S'side'
S' brick hallway'
tp5092
aa(lp5093
(S'travel'
S''
S''
tp5094
a(S'verify'
S'at'
S' chair'
tp5095
a(S'turn'
S'left'
S''
tp5096
a(S'verify'
S'front'
S' chair'
tp5097
aa(lp5098
(S'verify'
S'at'
S' 3-intersection'
tp5099
aa(lp5100
(S'travel'
S'steps'
S' 1'
tp5101
aa(lp5102
(g339
S''
S''
tp5103
aa(lp5104
(S'turn'
S''
S''
tp5105
a(S'travel'
S''
S''
tp5106
a(S'verify'
S'at'
S' barstool'
tp5107
aa(lp5108
(S'turn'
S'left'
S''
tp5109
aa(lp5110
(S'verify'
p5111
S'front'
S' wall'
tp5112
a(g5111
S'left'
S' wall'
tp5113
a(g5111
S'right'
S' wall'
tp5114
a(g5111
S'back'
S' tower wall'
tp5115
aa(lp5116
(S'verify'
S'side'
S' yellow hallway'
tp5117
a(S'turn'
S'left'
S''
tp5118
a(S'travel'
S''
S''
tp5119
a(S'verify'
S'front'
S' wall'
tp5120
aa(lp5121
(S'verify'
S'front'
S' blue hallway'
tp5122
aa(lp5123
(g339
S''
S''
tp5124
aa(lp5125
(S'travel'
S''
S''
tp5126
a(S'verify'
S'front'
S' wall'
tp5127
a(S'turn'
S'right'
S''
tp5128
aa(lp5129
(S'turn'
S'right'
S''
tp5130
aa(lp5131
(S'travel'
S''
S''
tp5132
a(S'verify'
S'side'
S' concrete hallway'
tp5133
aa(lp5134
(S'travel'
S''
S''
tp5135
a(S'verify'
p5136
S'front'
S' wall'
tp5137
a(g5136
S'left'
S' wall'
tp5138
a(S'turn'
S'right'
S''
tp5139
aa(lp5140
(S'turn'
S''
S''
tp5141
a(S'verify'
S'back'
S' wall'
tp5142
a(S'travel'
S''
S''
tp5143
a(S'verify'
S'at'
S' hatrack'
tp5144
aa(lp5145
(S'turn'
S'right'
S''
tp5146
aa(lp5147
(S'travel'
S''
S''
tp5148
a(S'verify'
p5149
S'at'
S' easel'
tp5150
a(g5149
S'front'
S' wall'
tp5151
aa(lp5152
(S'travel'
S'steps'
S' 1'
tp5153
a(S'turn'
S'right'
S''
tp5154
a(S'verify'
S'front'
S' blue hallway'
tp5155
aa(lp5156
(S'verify'
p5157
S'at'
S' easel'
tp5158
a(g5157
S'side'
S' brick hallway'
tp5159
aa(lp5160
(S'travel'
S'steps'
S' 1'
tp5161
aa(lp5162
(S'turn'
S'left'
S''
tp5163
aa(lp5164
(S'travel'
S''
S''
tp5165
a(S'verify'
S'at'
S' barstool'
tp5166
aa(lp5167
(S'turn'
S''
S''
tp5168
a(S'verify'
p5169
S'right'
S' wall'
tp5170
a(g5169
S'back'
S' wall'
tp5171
aa(lp5172
(S'travel'
S''
S''
tp5173
a(S'verify'
S'at'
S' sofa'
tp5174
aa(lp5175
(S'turn'
S'left'
S''
tp5176
aa(lp5177
(S'turn'
S''
S''
tp5178
a(S'verify'
p5179
S'front'
S' yellow hallway'
tp5180
a(g5179
S'front'
S' chair'
tp5181
aa(lp5182
(S'travel'
S'steps'
S' 2'
tp5183
aa(lp5184
(S'travel'
S''
S''
tp5185
a(S'verify'
S'at'
S' hatrack'
tp5186
a(S'turn'
S'right'
S''
tp5187
a(S'verify'
S'front'
S' blue hallway'
tp5188
aa(lp5189
(S'travel'
S'steps'
S' 1'
tp5190
a(S'verify'
S'at'
S' easel'
tp5191
aa(lp5192
(S'travel'
S'steps'
S' 1'
tp5193
aa(lp5194
(S'travel'
S'steps'
S' 2'
tp5195
aa(lp5196
(S'verify'
S'front'
S' chair'
tp5197
a(S'travel'
S''
S''
tp5198
a(S'verify'
p5199
S'back'
S' chair'
tp5200
a(g5199
S'side'
S' yellow hallway'
tp5201
aa(lp5202
(S'travel'
S'steps'
S' 1'
tp5203
aa(lp5204
(g339
S''
S''
tp5205
aa(lp5206
(S'turn'
S''
S''
tp5207
a(S'verify'
S'back'
S' wall'
tp5208
aa(lp5209
(S'travel'
S'steps'
S' 1'
tp5210
aa(lp5211
(S'verify'
S'front'
S' blue hallway'
tp5212
a(S'travel'
S'steps'
S' 2'
tp5213
aa(lp5214
(S'travel'
S''
S''
tp5215
a(S'verify'
S'front'
S' sofa'
tp5216
aa(lp5217
(S'travel'
S''
S''
tp5218
a(S'verify'
S'side'
S' brick hallway'
tp5219
a(S'turn'
S'left'
S''
tp5220
aa(lp5221
(S'turn'
S'left'
S''
tp5222
aa(lp5223
(S'verify'
S'side'
S' gravel hallway'
tp5224
aa(lp5225
(S'turn'
S''
S''
tp5226
a(S'verify'
p5227
S'back'
S' wall'
tp5228
a(g5227
S'left'
S' wall'
tp5229
a(g5227
S'right'
S' wall'
tp5230
aa(lp5231
(S'travel'
S''
S''
tp5232
aa(lp5233
(S'turn'
S'right'
S''
tp5234
aa(lp5235
(S'travel'
S'steps'
S' 1'
tp5236
aa(lp5237
(S'turn'
S'right'
S''
tp5238
aa(lp5239
(S'travel'
S'steps'
S' 1'
tp5240
aa(lp5241
(S'travel'
S'steps'
S' 1'
tp5242
aa(lp5243
(S'travel'
S''
S''
tp5244
a(S'verify'
p5245
S'front'
S' wall'
tp5246
a(g5245
S'left'
S' wall'
tp5247
a(S'turn'
S'right'
S''
tp5248
aa(lp5249
(S'travel'
S''
S''
tp5250
a(S'verify'
p5251
S'front'
S' wood hallway'
tp5252
a(g5251
S'back'
S' wood hallway'
tp5253
a(g5251
S'front'
S' butterfly wall'
tp5254
a(g5251
S'back'
S' butterfly wall'
tp5255
aa(lp5256
(S'turn'
S'right'
S''
tp5257
aa(lp5258
(S'travel'
S''
S''
tp5259
a(S'verify'
S'side'
S' flower hallway'
p5260
tp5261
a(S'turn'
S'left'
S''
tp5262
a(S'verify'
S'front'
S' flower hallway'
tp5263
aa(lp5264
(S'turn'
S'right'
S''
tp5265
aa(lp5266
(S'turn'
S'right'
S''
tp5267
aa(lp5268
(S'turn'
S''
S''
tp5269
a(S'verify'
p5270
S'back'
S' wall'
tp5271
a(g5270
S'at'
S' 3-intersection'
tp5272
aa(lp5273
(S'travel'
S'steps'
S' 2'
tp5274
aa(lp5275
(S'turn'
S'right'
S''
tp5276
aa(lp5277
(S'turn'
S''
S''
tp5278
a(S'verify'
S'back'
S' wall'
tp5279
a(S'turn'
S'right'
S''
tp5280
aa(lp5281
(S'turn'
S'right'
S''
tp5282
aa(lp5283
(S'verify'
S'front'
S' butterfly wall'
tp5284
aa(lp5285
(S'verify'
S'at'
S' barstool'
tp5286
a(S'turn'
S'left'
S''
tp5287
a(S'verify'
S'front'
S' blue hallway'
tp5288
aa(lp5289
(S'verify'
p5290
S'front'
S' hatrack'
tp5291
a(g5290
S'left'
S' concrete hallway'
tp5292
aa(lp5293
(S'turn'
S'right'
S''
tp5294
aa(lp5295
(S'turn'
S''
S''
tp5296
a(S'verify'
p5297
S'right'
S' wall'
tp5298
a(g5297
S'left'
S' wall'
tp5299
a(g5297
S'back'
S' wall'
tp5300
a(S'travel'
S''
S''
tp5301
aa(lp5302
(S'turn'
S''
S''
tp5303
a(S'verify'
p5304
S'front'
S' blue hallway'
tp5305
a(g5304
S'left'
S' flower hallway'
tp5306
a(g5304
S'right'
S' wall'
tp5307
aa(lp5308
(S'verify'
p5309
S'right'
S' concrete hallway'
tp5310
a(g5309
S'front'
S' barstool'
tp5311
aa(lp5312
(S'travel'
S'steps'
S' 1'
tp5313
aa(lp5314
(S'turn'
S'right'
S''
tp5315
aa(lp5316
(S'verify'
S'side'
S' concrete hallway'
tp5317
aa(lp5318
(S'travel'
S'steps'
S' 2'
tp5319
a(S'verify'
S'side'
S' yellow hallway'
tp5320
aa(lp5321
(S'turn'
S'left'
S''
tp5322
aa(lp5323
(S'turn'
S'left'
S''
tp5324
aa(lp5325
(S'verify'
p5326
S'left'
S' blue hallway'
tp5327
a(g5326
S'right'
S' blue hallway'
tp5328
a(g5326
S'front'
S' wall'
tp5329
aa(lp5330
(S'turn'
S'right'
S''
tp5331
aa(lp5332
(S'travel'
S''
S''
tp5333
a(S'verify'
S'left'
S' hallway'
tp5334
aa(lp5335
(S'turn'
S'right'
S''
tp5336
a(S'verify'
S'front'
S' grass hallway'
tp5337
aa(lp5338
(g339
S''
S''
tp5339
aa(lp5340
(S'travel'
S'steps'
S' 3'
tp5341
a(S'verify'
S'side'
S' flower hallway'
tp5342
aa(lp5343
(S'travel'
S''
S''
tp5344
a(S'verify'
S'right'
S' hallway'
tp5345
a(S'turn'
S'right'
S''
tp5346
aa(lp5347
(S'travel'
S'steps'
S' 2'
tp5348
aa(lp5349
(S'turn'
S''
S''
tp5350
a(S'travel'
S''
S''
tp5351
a(S'verify'
S'front'
S' wall'
tp5352
a(S'turn'
S'left'
S''
tp5353
a(S'travel'
S''
S''
tp5354
a(S'verify'
S'at'
S' sofa'
tp5355
aa(lp5356
(S'travel'
S'steps'
S' 1'
tp5357
a(S'verify'
S'at'
S' lamp'
tp5358
aa(lp5359
(S'verify'
S'front'
S' flower hallway'
tp5360
aa(lp5361
(S'verify'
p5362
S'front'
S' wall'
tp5363
a(g5362
S'left'
S' wall'
tp5364
a(S'turn'
S'right'
S''
tp5365
aa(lp5366
(S'travel'
S''
S''
tp5367
a(S'verify'
S'at'
S' chair'
tp5368
a(S'turn'
S'right'
S''
tp5369
aa(lp5370
(S'travel'
S''
S''
tp5371
a(S'verify'
S'side'
S' wood hallway'
tp5372
aa(lp5373
(g339
S''
S''
tp5374
aa(lp5375
(S'travel'
S'steps'
S' 1'
tp5376
aa(lp5377
(S'turn'
S''
S''
tp5378
a(S'verify'
S'left'
S' wall'
tp5379
aa(lp5380
(S'verify'
S'front'
S' flower hallway'
tp5381
a(S'travel'
S'steps'
S' 2'
tp5382
a(S'verify'
S'side'
S' brick hallway'
tp5383
aa(lp5384
(S'turn'
S''
S''
tp5385
a(S'verify'
p5386
S'front'
S' brick hallway'
tp5387
a(g5386
S'front'
S' lamp'
tp5388
aa(lp5389
(S'travel'
S''
S''
tp5390
a(S'verify'
S'at'
S' easel'
tp5391
a(S'turn'
S'right'
S''
tp5392
a(S'verify'
S'front'
S' wood hallway'
tp5393
a(S'travel'
S'steps'
S' 1'
tp5394
aa(lp5395
(S'travel'
S'steps'
S' 1'
tp5396
aa(lp5397
(S'verify'
S'front'
S' blue hallway'
tp5398
a(S'travel'
S''
S''
tp5399
a(S'verify'
p5400
S'front'
S' chair'
tp5401
a(g5400
S'back'
S' sofa'
tp5402
aa(lp5403
(S'verify'
S'front'
S' chair'
tp5404
a(S'travel'
S''
S''
tp5405
a(S'verify'
p5406
S'at'
S' barstool'
tp5407
a(g5406
S'back'
S' chair'
tp5408
aa(lp5409
(S'travel'
S''
S''
tp5410
a(S'verify'
S'front'
S' wall'
tp5411
aa(lp5412
(S'travel'
S'steps'
S' 2'
tp5413
aa(lp5414
(S'travel'
S'steps'
S' 1'
tp5415
aa(lp5416
(S'turn'
S'right'
S''
tp5417
aa(lp5418
(g339
S''
S''
tp5419
aa(lp5420
(S'travel'
S'steps'
S' 3'
tp5421
a(S'verify'
S'side'
S' wood hallway'
tp5422
aa(lp5423
(S'travel'
S'steps'
S' 1'
tp5424
aa(lp5425
(S'turn'
S'right'
S''
tp5426
a(S'travel'
S'steps'
S' 1'
tp5427
aa(lp5428
(S'turn'
S'right'
S''
tp5429
aa(lp5430
(S'verify'
S'front'
S' hallway'
tp5431
a(S'turn'
S'left'
S''
tp5432
aa(lp5433
(S'travel'
S'steps'
S' 3'
tp5434
aa(lp5435
(S'verify'
S'at'
S' sofa'
tp5436
aa(lp5437
(S'travel'
S''
S''
tp5438
a(S'verify'
S'at'
S' easel'
tp5439
aa(lp5440
(S'verify'
p5441
S'front'
S' blue hallway'
tp5442
a(g5441
S'front'
S' barstool'
tp5443
a(g5441
S'front'
S' sofa'
tp5444
a(S'travel'
S'steps'
S' 5'
tp5445
a(S'verify'
p5446
S'back'
S' barstool'
tp5447
a(g5446
S'back'
S' sofa'
tp5448
a(g5446
S'at'
S' hatrack'
tp5449
aa(lp5450
(S'travel'
S'steps'
S' 1'
tp5451
a(S'verify'
p5452
S'front'
S' butterfly wall'
tp5453
a(g5452
S'back'
S' butterfly wall'
tp5454
aa(lp5455
(S'turn'
S'right'
S''
tp5456
aa(lp5457
(S'turn'
S'right'
S''
tp5458
aa(lp5459
(S'travel'
S''
S''
tp5460
a(S'verify'
p5461
S'at'
S' easel'
tp5462
a(g5461
S'front'
S' gravel hallway'
tp5463
a(g5461
S'back'
S' gravel hallway'
p5464
tp5465
aa(lp5466
(S'travel'
S''
S''
tp5467
a(S'verify'
S'right'
S' hallway'
tp5468
aa(lp5469
(S'travel'
S'steps'
S' 2'
tp5470
aa(lp5471
(S'travel'
S'steps'
S' 1'
tp5472
a(S'verify'
S'side'
S' yellow hallway'
tp5473
aa(lp5474
(S'travel'
S'steps'
S' 2'
tp5475
aa(lp5476
(S'turn'
S''
S''
tp5477
a(S'verify'
S'left'
S' wall'
tp5478
aa(lp5479
(S'turn'
S''
S''
tp5480
a(S'verify'
p5481
S'back'
S' wall'
tp5482
a(g5481
S'at'
S' 3-intersection'
tp5483
aa(lp5484
(S'travel'
S'steps'
S' 3'
tp5485
a(S'verify'
p5486
S'side'
S' flower hallway'
tp5487
a(g5486
S'at'
S' 3-intersection'
tp5488
aa(lp5489
(S'travel'
S''
S''
tp5490
a(S'verify'
p5491
S'front'
S' yellow hallway'
tp5492
a(g5491
S'side'
S' gravel hallway'
tp5493
a(g5491
S'at'
S' easel'
tp5494
aa(lp5495
(S'travel'
S'steps'
S' 1'
tp5496
aa(lp5497
(S'verify'
p5498
S'front'
S' concrete hallway'
tp5499
a(g5498
S'front'
S' chair'
tp5500
a(S'travel'
S'steps'
S' 2'
tp5501
a(S'verify'
S'back'
S' chair'
tp5502
aa(lp5503
(S'travel'
S''
S''
tp5504
a(S'verify'
S'at'
S' chair'
tp5505
a(S'turn'
S'left'
S''
tp5506
a(S'verify'
S'front'
S' blue hallway'
tp5507
aa(lp5508
(S'travel'
S''
S''
tp5509
a(S'verify'
S'at'
S' barstool'
tp5510
aa(lp5511
(S'travel'
S''
S''
tp5512
a(S'verify'
p5513
S'front'
S' brick hallway'
tp5514
a(g5513
S'back'
S' brick hallway'
tp5515
aa(lp5516
(S'verify'
S'right'
S' grass hallway'
p5517
tp5518
aa(lp5519
(S'travel'
S''
S''
tp5520
a(S'verify'
S'at'
S' chair'
tp5521
a(S'turn'
S'right'
S''
tp5522
a(S'verify'
S'front'
S' brick hallway'
tp5523
a(S'travel'
S'steps'
S' 1'
tp5524
aa(lp5525
(S'turn'
S'left'
S''
tp5526
aa(lp5527
(S'travel'
S''
S''
tp5528
a(S'verify'
S'front'
S' wall'
tp5529
aa(lp5530
(S'travel'
S'steps'
S' 1'
tp5531
a(S'turn'
S'right'
S''
tp5532
aa(lp5533
(S'travel'
S''
S''
tp5534
a(S'verify'
p5535
S'front'
S' brick hallway'
tp5536
a(g5535
S'left'
S' blue hallway'
p5537
tp5538
aa(lp5539
(S'turn'
S''
S''
tp5540
a(S'verify'
p5541
S'front'
S' brick hallway'
tp5542
a(g5541
S'front'
S' lamp'
tp5543
aa(lp5544
(S'turn'
S'right'
S''
tp5545
aa(lp5546
(S'verify'
S'front'
S' wall'
tp5547
a(S'turn'
S'right'
S''
tp5548
aa(lp5549
(S'travel'
S''
S''
tp5550
a(S'verify'
p5551
S'front'
S' gravel hallway'
tp5552
a(g5551
S'side'
S' concrete hallway'
tp5553
aa(lp5554
(S'travel'
S''
S''
tp5555
a(S'verify'
p5556
S'front'
S' fish wall'
tp5557
a(g5556
S'front'
S' gravel hallway'
tp5558
a(g5556
S'side'
S' yellow hallway'
tp5559
aa(lp5560
(S'travel'
S'steps'
S' 2'
tp5561
aa(lp5562
(S'travel'
S'steps'
S' 1'
tp5563
a(S'verify'
S'side'
S' flower hallway'
tp5564
aa(lp5565
(g339
S''
S''
tp5566
aa(lp5567
(S'turn'
S'left'
S''
tp5568
aa(lp5569
(S'verify'
p5570
S'front'
S' blue hallway'
tp5571
a(g5570
S'front'
S' chair'
tp5572
a(S'travel'
S''
S''
tp5573
a(S'verify'
S'at'
S' chair'
tp5574
a(S'travel'
S'steps'
S' 1'
tp5575
aa(lp5576
(S'travel'
S''
S''
tp5577
a(S'verify'
S'at'
S' chair'
tp5578
a(S'turn'
S'right'
S''
tp5579
aa(lp5580
(S'travel'
S''
S''
tp5581
a(S'verify'
S'at'
S' easel'
tp5582
aa(lp5583
(S'turn'
S'right'
S''
tp5584
aa(lp5585
(S'travel'
S'steps'
S' 1'
tp5586
aa(lp5587
(S'verify'
S'left'
S' concrete hallway'
tp5588
aa(lp5589
(S'verify'
p5590
S'front'
S' brick hallway'
tp5591
a(g5590
S'front'
S' lamp'
tp5592
a(S'travel'
S''
S''
tp5593
a(S'verify'
S'back'
S' lamp'
tp5594
aa(lp5595
(S'verify'
S'front'
S' gravel hallway'
tp5596
a(S'travel'
S'steps'
S' 3'
tp5597
a(S'verify'
S'front'
S' wall'
tp5598
aa(lp5599
(S'turn'
S'left'
S''
tp5600
a(S'verify'
S'front'
S' blue hallway'
tp5601
aa(lp5602
(S'travel'
S'steps'
S' 1'
tp5603
aa(lp5604
(S'travel'
S''
S''
tp5605
a(S'verify'
S'right'
S' hallway'
tp5606
a(S'turn'
S'right'
S''
tp5607
a(S'travel'
S''
S''
tp5608
a(S'turn'
S''
S''
tp5609
a(S'travel'
S''
S''
tp5610
a(S'turn'
S''
S''
tp5611
a(S'travel'
S''
S''
tp5612
a(S'verify'
p5613
S'front'
S' wall'
tp5614
a(g5613
S'right'
S' wall'
tp5615
a(g5613
S'left'
S' wall'
tp5616
aa(lp5617
(S'turn'
S'left'
S''
tp5618
aa(lp5619
(S'turn'
S'left'
S''
tp5620
aa(lp5621
(S'travel'
S''
S''
tp5622
a(S'verify'
S'front'
S' wall'
tp5623
aa(lp5624
(S'turn'
S''
S''
tp5625
a(S'verify'
S'front'
S' easel'
tp5626
a(S'travel'
S''
S''
tp5627
a(S'verify'
S'at'
S' easel'
tp5628
aa(lp5629
(S'turn'
S''
S''
tp5630
a(S'verify'
S'front'
S' easel'
tp5631
aa(lp5632
(S'travel'
S'steps'
S' 3'
tp5633
aa(lp5634
(S'verify'
S'front'
S' flower hallway'
tp5635
a(S'travel'
S'steps'
S' 2'
tp5636
aa(lp5637
(S'turn'
S''
S''
tp5638
a(S'verify'
S'front'
S' yellow hallway'
tp5639
a(S'travel'
S''
S''
tp5640
a(S'verify'
p5641
S'front'
S' wall'
tp5642
a(g5641
S'side'
S' gravel hallway'
tp5643
aa(lp5644
(S'verify'
S'front'
S' lamp'
tp5645
a(S'travel'
S''
S''
tp5646
a(S'verify'
S'back'
S' lamp'
tp5647
aa(lp5648
(S'verify'
S'right'
S' concrete hallway'
tp5649
aa(lp5650
(S'travel'
S''
S''
tp5651
aa(lp5652
(S'turn'
S''
S''
tp5653
a(S'verify'
S'front'
S' yellow hallway'
p5654
tp5655
a(S'travel'
S''
S''
tp5656
a(S'verify'
S'front'
S' wall'
tp5657
aa(lp5658
(S'verify'
S'front'
S' flower hallway'
tp5659
aa(lp5660
(S'turn'
S'right'
S''
tp5661
aa(lp5662
(S'travel'
S'steps'
S' 1'
tp5663
a(S'verify'
S'side'
S' grass hallway'
tp5664
aa(lp5665
(S'travel'
S'steps'
S' 2'
tp5666
aa(lp5667
(S'verify'
p5668
S'left'
S' chair'
tp5669
a(g5668
S'left'
S' concrete hallway'
tp5670
aa(lp5671
(S'verify'
S'at'
S' easel'
tp5672
aa(lp5673
(S'travel'
S''
S''
tp5674
a(S'verify'
S'side'
S' brick hallway'
tp5675
aa(lp5676
(S'turn'
S'left'
S''
tp5677
aa(lp5678
(S'turn'
S''
S''
tp5679
a(S'verify'
p5680
S'front'
S' blue hallway'
tp5681
a(g5680
S'front'
S' chair'
tp5682
aa(lp5683
(S'turn'
S'right'
S''
tp5684
aa(lp5685
(S'travel'
S''
S''
tp5686
a(S'verify'
p5687
S'front'
S' wall'
tp5688
a(g5687
S'left'
S' wall'
tp5689
aa(lp5690
(S'travel'
S''
S''
tp5691
a(S'verify'
S'at'
S' hatrack'
tp5692
a(S'turn'
S'right'
S''
tp5693
aa(lp5694
(S'turn'
S''
S''
tp5695
a(S'verify'
S'back'
S' wall'
tp5696
a(S'turn'
S'left'
S''
tp5697
aa(lp5698
(S'verify'
p5699
S'at'
S' barstool'
tp5700
a(g5699
S'front'
S' gravel hallway'
tp5701
a(g5699
S'back'
S' gravel hallway'
tp5702
aa(lp5703
(S'travel'
S''
S''
tp5704
a(S'verify'
p5705
S'front'
S' wall'
tp5706
a(g5705
S'left'
S' wall'
tp5707
a(S'turn'
S'right'
S''
tp5708
a(S'verify'
S'front'
S' easel'
tp5709
aa(lp5710
(S'travel'
S'steps'
S' 1'
tp5711
aa(lp5712
(S'travel'
S'steps'
S' 1'
tp5713
a(S'verify'
S'side'
S' brick hallway'
tp5714
aa(lp5715
(S'travel'
S'steps'
S' 2'
tp5716
aa(lp5717
(S'travel'
S''
S''
tp5718
a(S'verify'
S'at'
S' hatrack'
tp5719
a(S'turn'
S'left'
S''
tp5720
aa(lp5721
(S'turn'
S''
S''
tp5722
a(S'verify'
S'front'
S' lamp'
tp5723
a(S'travel'
S''
S''
tp5724
a(S'verify'
S'at'
S' lamp'
tp5725
aa(lp5726
(S'turn'
S'right'
S''
tp5727
aa(lp5728
(S'verify'
S'front'
S' blue hallway'
tp5729
a(S'travel'
S''
S''
tp5730
a(S'verify'
S'side'
S' flower hallway'
tp5731
aa(lp5732
(S'verify'
p5733
S'front'
S' blue hallway'
tp5734
a(g5733
S'front'
S' chair'
tp5735
a(S'travel'
S''
S''
tp5736
a(S'verify'
S'back'
S' chair'
tp5737
aa(lp5738
(S'turn'
S'left'
S''
tp5739
aa(lp5740
(S'verify'
S'front'
S' gravel hallway'
tp5741
a(S'travel'
S''
S''
tp5742
a(S'verify'
S'at'
S' barstool'
tp5743
aa(lp5744
(S'travel'
S''
S''
tp5745
a(S'verify'
p5746
S'front'
S' brick hallway'
tp5747
a(g5746
S'side'
S' flower hallway'
tp5748
a(g5746
S'at'
S' 4-intersection'
tp5749
a(g5746
S'at'
S' easel'
tp5750
aa(lp5751
(S'travel'
S'steps'
S' 2'
tp5752
a(S'verify'
S'front'
S' wall'
tp5753
aa(lp5754
(S'travel'
S'steps'
S' 2'
tp5755
a(S'verify'
S'side'
S' blue hallway'
tp5756
aa(lp5757
(S'verify'
p5758
S'front'
S' wall'
tp5759
a(g5758
S'right'
S' wall'
tp5760
a(S'turn'
S'left'
S''
tp5761
a(S'verify'
S'front'
S' brick hallway'
tp5762
aa(lp5763
(S'verify'
S'front'
S' easel'
tp5764
aa(lp5765
(S'travel'
S''
S''
tp5766
a(S'verify'
S'at'
S' hatrack'
tp5767
a(S'turn'
S'left'
S''
tp5768
aa(lp5769
(S'turn'
S'left'
S''
tp5770
aa(lp5771
(S'travel'
S''
S''
tp5772
a(S'verify'
S'at'
S' sofa'
tp5773
aa(lp5774
(S'verify'
S'at'
S' hatrack'
tp5775
aa(lp5776
(S'turn'
S''
S''
tp5777
a(S'verify'
S'front'
S' gravel hallway'
tp5778
a(S'travel'
S''
S''
tp5779
a(S'verify'
S'side'
S' yellow hallway'
tp5780
aa(lp5781
(S'turn'
S''
S''
tp5782
a(S'verify'
p5783
S'front'
S' wood hallway'
tp5784
a(g5783
S'back'
S' easel'
tp5785
aa(lp5786
(S'turn'
S'left'
S''
tp5787
aa(lp5788
(S'travel'
S''
S''
tp5789
a(S'verify'
p5790
S'front'
S' wall'
tp5791
a(g5790
S'left'
S' wall'
tp5792
a(g5790
S'right'
S' wall'
tp5793
a(g5790
S'back'
S' yellow hallway'
tp5794
a(g5790
S'back'
S' fish wall'
tp5795
aa(lp5796
(S'travel'
S'steps'
S' 1'
tp5797
a(S'verify'
S'side'
S' blue hallway'
tp5798
aa(lp5799
(g339
S''
S''
tp5800
aa(lp5801
(S'travel'
S''
S''
tp5802
a(S'verify'
S'side'
S' gravel hallway'
tp5803
aa(lp5804
(S'turn'
S''
S''
tp5805
a(S'verify'
p5806
S'back'
S' wall'
tp5807
a(g5806
S'at'
S' 3-intersection'
tp5808
aa(lp5809
(S'travel'
S''
S''
tp5810
a(S'verify'
p5811
S'at'
S' easel'
tp5812
a(g5811
S'front'
S' wall'
tp5813
aa(lp5814
(S'travel'
S'steps'
S' 1'
tp5815
aa(lp5816
(S'turn'
S'right'
S''
tp5817
aa(lp5818
(S'verify'
S'front'
S' gravel hallway'
tp5819
a(S'travel'
S''
S''
tp5820
a(S'verify'
S'side'
S' concrete hallway'
tp5821
aa(lp5822
(S'verify'
S'front'
S' barstool'
tp5823
a(S'travel'
S'steps'
S' 3'
tp5824
a(S'verify'
p5825
S'back'
S' barstool'
tp5826
a(g5825
S'side'
S' concrete hallway'
tp5827
aa(lp5828
(S'travel'
S'steps'
S' 1'
tp5829
a(S'verify'
S'side'
S' concrete hallway'
tp5830
aa(lp5831
(S'travel'
S'steps'
S' 2'
tp5832
aa(lp5833
(S'turn'
S'left'
S''
tp5834
a(S'verify'
S'front'
S' yellow hallway'
tp5835
a(S'travel'
S''
S''
tp5836
a(S'verify'
S'front'
S' wall'
tp5837
aa(lp5838
(S'turn'
S'left'
S''
tp5839
aa(lp5840
(S'turn'
S'left'
S''
tp5841
aa(lp5842
(S'travel'
S''
S''
tp5843
a(S'verify'
S'front'
S' hallway'
p5844
tp5845
aa(lp5846
(S'travel'
S'steps'
S' 1'
tp5847
aa(lp5848
(S'turn'
S''
S''
tp5849
a(S'verify'
p5850
S'front'
S' yellow hallway'
tp5851
a(g5850
S'front'
S' hatrack'
tp5852
aa(lp5853
(S'travel'
S''
S''
tp5854
a(S'verify'
S'right'
S' blue hallway'
p5855
tp5856
aa(lp5857
(S'verify'
S'front'
S' blue hallway'
tp5858
a(S'travel'
S''
S''
tp5859
a(S'verify'
S'at'
S' hatrack'
tp5860
aa(lp5861
(S'turn'
S'right'
S''
tp5862
a(S'verify'
S'front'
S' wood hallway'
tp5863
aa(lp5864
(S'turn'
S'right'
S''
tp5865
aa(lp5866
(S'travel'
S'steps'
S' 1'
tp5867
aa(lp5868
(S'travel'
S''
S''
tp5869
a(S'verify'
p5870
S'left'
S' hallway'
tp5871
a(g5870
S'left'
S' fish wall'
tp5872
a(S'turn'
S'left'
S''
tp5873
aa(lp5874
(S'verify'
S'front'
S' chair'
tp5875
a(S'travel'
S''
S''
tp5876
a(S'verify'
p5877
S'back'
S' chair'
tp5878
a(g5877
S'side'
S' flower hallway'
tp5879
aa(lp5880
(S'turn'
S''
S''
tp5881
a(S'verify'
S'front'
S' hatrack'
tp5882
aa(lp5883
(S'turn'
S''
S''
tp5884
a(S'verify'
p5885
S'front'
S' lamp'
tp5886
a(g5885
S'front'
S' easel'
tp5887
aa(lp5888
(S'turn'
S''
S''
tp5889
a(S'verify'
S'left'
S' wall'
tp5890
aa(lp5891
(S'travel'
S'steps'
S' 1'
tp5892
aa(lp5893
(S'travel'
S''
S''
tp5894
a(S'verify'
S'at'
S' easel'
tp5895
a(S'turn'
S'right'
S''
tp5896
a(S'verify'
S'front'
S' wood hallway'
tp5897
a(S'travel'
S'steps'
S' 1'
tp5898
aa(lp5899
(S'travel'
S''
S''
tp5900
a(S'verify'
S'front'
S' fish wall'
tp5901
aa(lp5902
(S'verify'
S'front'
S' tower wall'
tp5903
a(S'travel'
S''
S''
tp5904
a(S'verify'
S'side'
S' flower hallway'
tp5905
a(S'turn'
S'right'
S''
tp5906
aa(lp5907
(S'travel'
S''
S''
tp5908
a(S'verify'
S'side'
S' wood hallway'
tp5909
aa(lp5910
(S'travel'
S'steps'
S' 1'
tp5911
a(S'verify'
S'side'
S' brick hallway'
tp5912
aa(lp5913
(S'travel'
S''
S''
tp5914
aa(lp5915
(S'verify'
S'front'
S' chair'
tp5916
a(S'travel'
S''
S''
tp5917
a(S'verify'
S'at'
S' chair'
tp5918
a(S'travel'
S'steps'
S' 1'
tp5919
aa(lp5920
(S'turn'
S''
S''
tp5921
a(S'verify'
p5922
S'back'
S' wall'
tp5923
a(g5922
S'front'
S' gravel hallway'
tp5924
a(S'travel'
S''
S''
tp5925
a(S'verify'
S'front'
S' wall'
tp5926
aa(lp5927
(S'travel'
S''
S''
tp5928
a(S'verify'
S'at'
S' sofa'
tp5929
aa(lp5930
(S'travel'
S''
S''
tp5931
a(S'verify'
S'left'
S' hallway'
tp5932
a(S'turn'
S'left'
S''
tp5933
aa(lp5934
(S'travel'
S'steps'
S' 3'
tp5935
aa(lp5936
(S'turn'
S'left'
S''
tp5937
aa(lp5938
(S'turn'
S'right'
S''
tp5939
a(S'verify'
p5940
S'front'
S' blue hallway'
tp5941
a(g5940
S'front'
S' hatrack'
tp5942
a(S'travel'
S''
S''
tp5943
aa(lp5944
(S'travel'
S''
S''
tp5945
a(S'verify'
S'at'
S' sofa'
tp5946
aa(lp5947
(S'travel'
S'steps'
S' 2'
tp5948
a(S'verify'
S'side'
S' flower hallway'
tp5949
aa(lp5950
(S'verify'
p5951
S'front'
S' lamp'
tp5952
a(g5951
S'front'
S' easel'
tp5953
aa(lp5954
(S'travel'
S''
S''
tp5955
a(S'verify'
S'side'
S' flower hallway'
tp5956
aa(lp5957
(S'turn'
S'left'
S''
tp5958
aa(lp5959
(S'travel'
S''
S''
tp5960
a(S'verify'
S'side'
S' blue hallway'
tp5961
aa(lp5962
(S'turn'
S'right'
S''
tp5963
aa(lp5964
(S'turn'
S'left'
S''
tp5965
aa(lp5966
(S'travel'
S'steps'
S' 1'
tp5967
a(S'verify'
S'side'
S' flower hallway'
tp5968
aa(lp5969
(S'travel'
S''
S''
tp5970
a(S'verify'
p5971
S'front'
S' flower hallway'
tp5972
a(g5971
S'side'
S' yellow hallway'
tp5973
aa(lp5974
(S'turn'
S''
S''
tp5975
a(S'verify'
S'front'
S' grass hallway'
tp5976
a(S'travel'
S''
S''
tp5977
a(S'verify'
S'front'
S' wall'
tp5978
aa(lp5979
(S'turn'
S'left'
S''
tp5980
aa(lp5981
(S'turn'
S''
S''
tp5982
a(S'verify'
S'front'
S' chair'
tp5983
a(S'travel'
S''
S''
tp5984
a(S'verify'
S'at'
S' chair'
tp5985
aa(lp5986
(S'turn'
S'left'
S''
tp5987
aa(lp5988
(S'travel'
S''
S''
tp5989
a(S'verify'
p5990
S'front'
S' wall'
tp5991
a(g5990
S'right'
S' wall'
tp5992
aa(lp5993
(S'turn'
S'left'
S''
tp5994
aa(lp5995
(S'travel'
S''
S''
tp5996
a(S'verify'
p5997
S'front'
S' gravel hallway'
tp5998
a(g5997
S'side'
S' concrete hallway'
tp5999
aa(lp6000
(S'travel'
S'steps'
S' 1'
tp6001
aa(lp6002
(S'travel'
S'steps'
S' 1'
tp6003
a(S'verify'
S'side'
S' wood hallway'
tp6004
aa(lp6005
(S'turn'
S'right'
S''
tp6006
a(S'verify'
p6007
S'front'
S' brick hallway'
tp6008
a(g6007
S'front'
S' lamp'
tp6009
aa(lp6010
(S'travel'
S''
S''
tp6011
a(S'verify'
S'side'
S' flower hallway'
tp6012
aa(lp6013
(S'turn'
S'left'
S''
tp6014
aa(lp6015
(S'turn'
S''
S''
tp6016
a(S'verify'
S'front'
S' brick hallway'
tp6017
aa(lp6018
(S'travel'
S''
S''
tp6019
a(S'verify'
S'side'
S' brick hallway'
tp6020
a(S'turn'
S'right'
S''
tp6021
a(S'verify'
S'front'
S' lamp'
tp6022
aa(lp6023
(S'verify'
S'front'
S' wood hallway'
tp6024
aa(lp6025
(S'turn'
S'left'
S''
tp6026
a(S'travel'
S'steps'
S' 1'
tp6027
aa(lp6028
(S'verify'
S'left'
S' easel'
tp6029
aa(lp6030
(S'verify'
p6031
S'front'
S' blue hallway'
tp6032
a(g6031
S'front'
S' chair'
tp6033
a(S'travel'
S''
S''
tp6034
a(S'verify'
p6035
S'back'
S' chair'
tp6036
a(g6035
S'front'
S' wall'
tp6037
aa(lp6038
(S'travel'
S'steps'
S' 2'
tp6039
a(S'verify'
S'side'
S' brick hallway'
tp6040
aa(lp6041
(S'turn'
S'left'
S''
tp6042
aa(lp6043
(S'travel'
S''
S''
tp6044
a(S'verify'
p6045
S'front'
S' blue hallway'
tp6046
a(g6045
S'side'
S' flower hallway'
tp6047
aa(lp6048
(S'turn'
S''
S''
tp6049
a(S'verify'
S'front'
S' gravel hallway'
tp6050
aa(lp6051
(S'travel'
S''
S''
tp6052
a(S'verify'
S'at'
S' easel'
tp6053
aa(lp6054
(S'travel'
S'steps'
S' 1'
tp6055
aa(lp6056
(S'travel'
S''
S''
tp6057
a(S'verify'
S'at'
S' easel'
tp6058
a(S'turn'
S'left'
S''
tp6059
aa(lp6060
(S'turn'
S''
S''
tp6061
a(S'verify'
S'front'
S' tower wall'
tp6062
aa(lp6063
(S'travel'
S''
S''
tp6064
a(S'verify'
S'at'
S' barstool'
tp6065
aa(lp6066
(S'travel'
S''
S''
tp6067
a(S'verify'
S'side'
S' flower hallway'
tp6068
aa(lp6069
(S'travel'
S'steps'
S' 1'
tp6070
aa(lp6071
(S'travel'
S''
S''
tp6072
a(S'verify'
S'at'
S' 4-intersection'
tp6073
aa(lp6074
(S'travel'
S'steps'
S' 1'
tp6075
a(S'verify'
S'at'
S' easel'
tp6076
aa(lp6077
(S'travel'
S'steps'
S' 1'
tp6078
aa(lp6079
(S'turn'
S''
S''
tp6080
a(S'verify'
S'front'
S' flower hallway'
tp6081
aa(lp6082
(S'turn'
S'right'
S''
tp6083
aa(lp6084
(S'turn'
S'right'
S''
tp6085
a(S'verify'
S'front'
S' yellow hallway'
tp6086
a(S'travel'
S''
S''
tp6087
a(S'verify'
S'side'
S' gravel hallway'
tp6088
aa(lp6089
(S'turn'
S'right'
S''
tp6090
aa(lp6091
(S'turn'
S'right'
S''
tp6092
aa(lp6093
(S'travel'
S''
S''
tp6094
a(S'verify'
S'at'
S' lamp'
tp6095
a(S'turn'
S'left'
S''
tp6096
aa(lp6097
(S'turn'
S''
S''
tp6098
a(S'verify'
p6099
S'back'
S' wall'
tp6100
a(g6099
S'at'
S' 3-intersection'
tp6101
aa(lp6102
(S'turn'
S''
S''
tp6103
a(S'verify'
S'back'
S' chair'
tp6104
aa(lp6105
(S'travel'
S'steps'
S' 1'
tp6106
a(S'verify'
S'side'
S' blue hallway'
tp6107
aa(lp6108
(S'verify'
p6109
S'front'
S' blue hallway'
tp6110
a(g6109
S'front'
S' sofa'
tp6111
a(S'travel'
S''
S''
tp6112
a(S'verify'
p6113
S'back'
S' sofa'
tp6114
a(g6113
S'at'
S' hatrack'
tp6115
aa(lp6116
(S'turn'
S'left'
S''
tp6117
a(S'verify'
S'front'
S' brick hallway'
tp6118
a(S'travel'
S''
S''
tp6119
a(S'verify'
S'front'
S' butterfly wall'
tp6120
aa(lp6121
(S'travel'
S''
S''
tp6122
a(S'verify'
S'at'
S' lamp'
tp6123
a(S'travel'
S'steps'
S' 1'
tp6124
a(S'verify'
S'front'
S' butterfly wall'
tp6125
aa(lp6126
(S'turn'
S'left'
S''
tp6127
aa(lp6128
(S'travel'
S''
S''
tp6129
a(S'verify'
S'front'
S' wall'
tp6130
aa(lp6131
(S'turn'
S''
S''
tp6132
a(S'verify'
S'back'
S' wall'
tp6133
a(S'turn'
S'right'
S''
tp6134
aa(lp6135
(S'turn'
S''
S''
tp6136
a(S'verify'
S'front'
S' yellow hallway'
tp6137
a(S'travel'
S''
S''
tp6138
a(S'verify'
S'front'
S' wall'
tp6139
aa(lp6140
(S'turn'
S''
S''
tp6141
a(S'verify'
S'front'
S' yellow hallway'
tp6142
a(S'travel'
S''
S''
tp6143
a(S'verify'
S'side'
S' flower hallway'
tp6144
aa(lp6145
(S'verify'
S'left'
S' sofa'
tp6146
aa(lp6147
(S'travel'
S''
S''
tp6148
aa(lp6149
(S'turn'
S''
S''
tp6150
a(S'verify'
S'front'
S' brick hallway'
tp6151
aa(lp6152
(S'turn'
S''
S''
tp6153
a(S'verify'
p6154
S'front'
S' yellow hallway'
tp6155
a(g6154
S'back'
S' wall'
tp6156
aa(lp6157
(S'turn'
S'right'
S''
tp6158
aa(lp6159
(g339
S''
S''
tp6160
aa(lp6161
(S'verify'
S'side'
p6162
S' blue hallway'
p6163
tp6164
aa(lp6165
(S'turn'
S''
S''
tp6166
a(S'travel'
S'steps'
S' 1'
tp6167
aa(lp6168
(S'turn'
S'right'
S''
tp6169
aa(lp6170
(S'travel'
S''
S''
tp6171
a(S'verify'
S'left'
S' flower hallway'
tp6172
a(S'turn'
S'left'
S''
tp6173
aa(lp6174
(S'turn'
S'left'
S''
tp6175
aa(lp6176
(S'travel'
S'steps'
S' 1'
tp6177
a(S'turn'
S'right'
S''
tp6178
a(S'verify'
S'front'
S' blue hallway'
tp6179
aa(lp6180
(S'turn'
S'right'
S''
tp6181
aa(lp6182
(S'travel'
S'steps'
S' 1'
tp6183
aa(lp6184
(S'travel'
S''
S''
tp6185
a(S'verify'
S'side'
S' yellow hallway'
tp6186
aa(lp6187
(S'travel'
S'steps'
S' 2'
tp6188
aa(lp6189
(S'turn'
S'right'
S''
tp6190
a(S'verify'
S'front'
S' gravel hallway'
tp6191
aa(lp6192
(S'travel'
S'steps'
S' 2'
tp6193
aa(lp6194
(S'travel'
S''
S''
tp6195
aa(lp6196
(S'turn'
S'left'
S''
tp6197
aa(lp6198
(S'travel'
S'steps'
S' 1'
tp6199
aa(lp6200
(S'travel'
S''
S''
tp6201
a(S'verify'
p6202
S'left'
S' wall'
tp6203
a(g6202
S'front'
S' wall'
tp6204
a(S'turn'
S'right'
S''
tp6205
aa(lp6206
(S'turn'
S'right'
S''
tp6207
aa(lp6208
(S'verify'
S'left'
S' concrete hallway'
tp6209
aa(lp6210
(S'turn'
S''
S''
tp6211
a(S'verify'
S'front'
S' brick hallway'
tp6212
a(S'travel'
S''
S''
tp6213
a(S'verify'
S'side'
S' blue hallway'
tp6214
aa(lp6215
(S'turn'
S'left'
S''
tp6216
aa(lp6217
(S'travel'
S'steps'
S' 1'
tp6218
aa(lp6219
(S'turn'
S'left'
S''
tp6220
aa(lp6221
(S'turn'
S'right'
S''
tp6222
aa(lp6223
(S'travel'
S'steps'
S' 2'
tp6224
a(S'verify'
S'front'
S' wall'
tp6225
aa(lp6226
(S'travel'
S'steps'
S' 2'
tp6227
aa(lp6228
(S'travel'
S'steps'
S' 1'
tp6229
aa(lp6230
(S'verify'
S'front'
S' blue hallway'
tp6231
a(S'travel'
S''
S''
tp6232
a(S'verify'
S'side'
S' gravel hallway'
tp6233
a(S'turn'
S'right'
S''
tp6234
a(S'verify'
S'front'
S' gravel hallway'
tp6235
aa(lp6236
(S'travel'
S''
S''
tp6237
a(S'verify'
S'at'
S' hatrack'
tp6238
aa(lp6239
(S'turn'
S''
S''
tp6240
a(S'verify'
S'front'
S' lamp'
tp6241
a(S'travel'
S''
S''
tp6242
a(S'verify'
S'at'
S' lamp'
tp6243
aa(lp6244
(S'turn'
S'right'
p6245
S''
tp6246
aa(lp6247
(S'travel'
S''
S''
tp6248
a(S'verify'
p6249
S'front'
S' hallway'
tp6250
a(g6249
S'back'
S' hallway'
tp6251
aa(lp6252
(S'verify'
S'at'
S' hatrack'
tp6253
a(S'turn'
S'right'
S''
tp6254
aa(lp6255
(S'verify'
S'right'
S' easel'
tp6256
aa(lp6257
(S'turn'
S'right'
S''
tp6258
a(S'verify'
S'front'
S' brick hallway'
tp6259
aa(lp6260
(S'turn'
S''
S''
tp6261
a(S'verify'
S'front'
S' concrete hallway'
p6262
tp6263
a(S'travel'
S''
S''
tp6264
a(S'verify'
S'side'
S' blue hallway'
tp6265
aa(lp6266
(S'turn'
S'left'
S''
tp6267
a(S'travel'
S'steps'
S' 1'
tp6268
aa(lp6269
(S'turn'
S''
S''
tp6270
a(S'verify'
S'right'
S' wall'
tp6271
aa(lp6272
(S'verify'
p6273
S'front'
S' wood hallway'
tp6274
a(g6273
S'front'
S' butterfly wall'
tp6275
aa(lp6276
(S'turn'
S''
S''
tp6277
a(S'travel'
S''
S''
tp6278
a(S'verify'
p6279
S'front'
S' flower hallway'
tp6280
a(g6279
S'side'
S' yellow hallway'
tp6281
aa(lp6282
(S'verify'
S'front'
S' blue hallway'
tp6283
a(S'travel'
S''
S''
tp6284
a(S'verify'
S'at'
S' chair'
tp6285
a(S'travel'
S'steps'
S' 1'
tp6286
aa(lp6287
(S'turn'
S'left'
S''
tp6288
a(S'travel'
S''
S''
tp6289
a(S'verify'
p6290
S'right'
S' wall'
tp6291
a(g6290
S'left'
S' wall'
tp6292
a(g6290
S'front'
S' wall'
tp6293
aa(lp6294
(S'travel'
S'steps'
S' 1'
tp6295
a(S'turn'
S'left'
S''
tp6296
aa(lp6297
(S'travel'
S''
S''
tp6298
a(S'verify'
p6299
S'front'
S' wall'
tp6300
a(g6299
S'left'
S' wall'
tp6301
a(S'turn'
S'right'
S''
tp6302
a(S'verify'
S'front'
S' wood hallway'
tp6303
aa(lp6304
(S'travel'
S'steps'
S' 2'
tp6305
aa(lp6306
(S'verify'
S'front'
S' easel'
tp6307
a(S'travel'
S''
S''
tp6308
a(S'verify'
S'back'
S' easel'
tp6309
aa(lp6310
(S'travel'
S''
S''
tp6311
a(S'verify'
p6312
S'front'
S' wall'
tp6313
a(g6312
S'left'
S' wall'
tp6314
aa(lp6315
(S'travel'
S''
S''
tp6316
a(S'verify'
S'left'
S' flower hallway'
tp6317
aa(lp6318
(S'verify'
S'side'
S' gravel hallway'
tp6319
aa(lp6320
(S'travel'
S''
S''
tp6321
a(S'verify'
p6322
S'front'
S' wall'
tp6323
a(g6322
S'side'
S' blue hallway'
tp6324
aa(lp6325
(S'turn'
S'left'
S''
tp6326
aa(lp6327
(S'travel'
S'steps'
S' 2'
tp6328
aa(lp6329
(S'travel'
S''
S''
tp6330
a(S'verify'
p6331
S'front'
S' wall'
tp6332
a(g6331
S'left'
S' wall'
tp6333
a(g6331
S'back'
S' lamp'
tp6334
a(g6331
S'right'
S' concrete hallway'
tp6335
aa(lp6336
(S'travel'
S'steps'
S' 2'
tp6337
a(S'verify'
S'front'
S' wall'
tp6338
aa(lp6339
(S'turn'
S''
S''
tp6340
a(S'verify'
S'left'
S' wall'
tp6341
aa(lp6342
(g339
S''
S''
tp6343
aa(lp6344
(S'travel'
S'steps'
S' 2'
tp6345
a(S'verify'
S'side'
S' blue hallway'
tp6346
aa(lp6347
(S'travel'
S''
S''
tp6348
a(S'verify'
S'front'
S' fish wall'
tp6349
aa(lp6350
(S'verify'
S'front'
S' chair'
tp6351
a(S'travel'
S'steps'
S' 2'
tp6352
a(S'verify'
S'back'
S' chair'
tp6353
aa(lp6354
(S'travel'
S''
S''
tp6355
aa(lp6356
(S'turn'
S'right'
S''
tp6357
a(S'verify'
S'front'
S' concrete hallway'
tp6358
aa(lp6359
(S'travel'
S''
S''
tp6360
a(S'verify'
S'right'
S' hallway'
tp6361
a(S'turn'
S'right'
S''
tp6362
aa(lp6363
(S'travel'
S'steps'
S' 1'
tp6364
a(S'verify'
S'side'
S' blue hallway'
tp6365
aa(lp6366
(S'turn'
S''
S''
tp6367
a(S'verify'
S'front'
S' flower hallway'
tp6368
aa(lp6369
(S'turn'
S'right'
S''
tp6370
aa(lp6371
(S'verify'
S'front'
S' concrete hallway'
tp6372
a(S'travel'
S''
S''
tp6373
a(S'verify'
p6374
S'front'
S' wall'
tp6375
a(g6374
S'left'
S' wall'
tp6376
a(g6374
S'right'
S' wall'
tp6377
aa(lp6378
(S'travel'
S''
S''
tp6379
a(S'verify'
S'left'
S' hallway'
tp6380
aa(lp6381
(S'travel'
S''
S''
tp6382
a(S'verify'
S'side'
S' brick hallway'
tp6383
aa(lp6384
(S'verify'
S'front'
S' gravel hallway'
tp6385
a(S'travel'
S''
S''
tp6386
a(S'verify'
S'at'
S' sofa'
tp6387
aa(lp6388
(S'verify'
S'front'
S' lamp'
tp6389
a(S'travel'
S'steps'
S' 4'
tp6390
a(S'verify'
p6391
S'side'
S' wood hallway'
tp6392
a(g6391
S'back'
S' lamp'
tp6393
aa(lp6394
(S'turn'
S''
S''
tp6395
a(S'verify'
p6396
S'front'
S' gravel hallway'
tp6397
a(g6396
S'back'
S' easel'
tp6398
aa(lp6399
(S'turn'
S'left'
S''
tp6400
aa(lp6401
(S'turn'
S''
S''
tp6402
a(S'verify'
S'front'
S' blue hallway'
tp6403
a(S'travel'
S''
S''
tp6404
a(S'verify'
S'side'
S' grass hallway'
tp6405
aa(lp6406
(S'turn'
S'right'
S''
tp6407
aa(lp6408
(S'turn'
S''
S''
tp6409
a(S'verify'
S'front'
S' wood hallway'
tp6410
aa(lp6411
(S'turn'
S''
S''
tp6412
a(S'verify'
S'back'
S' wall'
p6413
tp6414
a(S'turn'
S'left'
S''
tp6415
aa(lp6416
(S'turn'
S'left'
S''
tp6417
a(S'travel'
S'steps'
S' 1'
tp6418
aa(lp6419
(S'travel'
S'steps'
S' 1'
tp6420
aa(lp6421
(S'travel'
S''
S''
tp6422
a(S'verify'
p6423
S'front'
S' wall'
tp6424
a(g6423
S'left'
S' wall'
tp6425
aa(lp6426
(S'turn'
S'right'
S''
tp6427
a(S'verify'
S'front'
S' brick hallway'
tp6428
a(S'travel'
S''
S''
tp6429
a(S'verify'
S'side'
S' concrete hallway'
tp6430
aa(lp6431
(S'travel'
S''
S''
tp6432
a(S'verify'
S'at'
S' chair'
tp6433
aa(lp6434
(S'turn'
S''
S''
tp6435
a(S'verify'
S'right'
S' wall'
tp6436
aa(lp6437
(g339
S''
S''
tp6438
aa(lp6439
(S'turn'
S'left'
S''
tp6440
aa(lp6441
(S'travel'
S''
S''
tp6442
aa(lp6443
(S'turn'
S'left'
S''
tp6444
aa(lp6445
(g339
S''
S''
tp6446
aa(lp6447
(S'travel'
S''
S''
tp6448
a(S'verify'
p6449
S'front'
S' brick hallway'
tp6450
a(g6449
S'back'
S' brick hallway'
tp6451
aa(lp6452
(S'turn'
S''
S''
tp6453
a(S'verify'
p6454
S'front'
S' grass hallway'
tp6455
a(g6454
S'front'
S' hatrack'
tp6456
a(S'travel'
S'steps'
S' 3'
tp6457
a(S'verify'
p6458
S'back'
S' hatrack'
tp6459
a(g6458
S'side'
S' blue hallway'
tp6460
aa(lp6461
(S'turn'
S''
S''
tp6462
a(S'verify'
p6463
S'front'
S' brick hallway'
tp6464
a(g6463
S'back'
S' lamp'
tp6465
a(S'travel'
S''
S''
tp6466
a(S'verify'
S'side'
S' grass hallway'
tp6467
aa(lp6468
(S'verify'
S'front'
S' gravel hallway'
tp6469
a(S'travel'
S''
S''
tp6470
a(S'verify'
S'side'
S' brick hallway'
tp6471
aa(lp6472
(S'verify'
S'at'
S' chair'
tp6473
aa(lp6474
(S'turn'
S''
S''
tp6475
a(S'verify'
S'front'
S' chair'
tp6476
aa(lp6477
(S'verify'
S'side'
S' blue hallway'
tp6478
a(S'turn'
S'left'
S''
tp6479
aa(lp6480
(S'turn'
S''
S''
tp6481
a(S'verify'
p6482
S'back'
S' wall'
tp6483
a(g6482
S'front'
S' yellow hallway'
tp6484
a(S'travel'
S'steps'
S' 2'
tp6485
a(S'verify'
S'side'
S' gravel hallway'
tp6486
aa(lp6487
(S'travel'
S'steps'
S' 1'
tp6488
a(S'verify'
S'side'
S' blue hallway'
tp6489
aa(lp6490
(S'verify'
p6491
S'front'
S' blue hallway'
tp6492
a(g6491
S'front'
S' sofa'
tp6493
a(g6491
S'front'
S' barstool'
tp6494
a(g6491
S'front'
S' chair'
tp6495
a(S'travel'
S''
S''
tp6496
a(S'verify'
p6497
S'back'
S' sofa'
tp6498
a(g6497
S'back'
S' barstool'
tp6499
a(g6497
S'back'
S' chair'
tp6500
a(g6497
S'side'
S' flower hallway'
tp6501
aa(lp6502
(S'travel'
S''
S''
tp6503
a(S'verify'
S'at'
S' hatrack'
tp6504
a(S'turn'
S'right'
S''
tp6505
a(S'verify'
S'front'
S' blue hallway'
tp6506
aa(lp6507
(S'turn'
S''
S''
tp6508
a(S'verify'
p6509
S'back'
S' wall'
tp6510
a(g6509
S'at'
S' 3-intersection'
tp6511
a(S'turn'
S'left'
S''
tp6512
aa(lp6513
(S'travel'
S''
S''
tp6514
a(S'verify'
S'front'
S' wall'
tp6515
a(S'turn'
S'right'
S''
tp6516
aa(lp6517
(S'travel'
S'steps'
S' 1'
tp6518
aa(lp6519
(S'travel'
S''
S''
tp6520
a(S'verify'
S'side'
S' brick hallway'
tp6521
a(S'turn'
S'right'
S''
tp6522
aa(lp6523
(S'verify'
S'back'
S' tower wall'
tp6524
aa(lp6525
(S'verify'
S'front'
S' brick hallway'
tp6526
a(S'travel'
S''
S''
tp6527
a(S'verify'
S'side'
S' flower hallway'
tp6528
aa(lp6529
(S'turn'
S'left'
S''
tp6530
aa(lp6531
(S'turn'
S'right'
S''
tp6532
aa(lp6533
(S'turn'
S''
S''
tp6534
a(S'verify'
p6535
S'right'
S' wall'
tp6536
a(g6535
S'left'
S' wall'
tp6537
a(g6535
S'back'
S' wall'
tp6538
aa(lp6539
(S'travel'
S'steps'
S' 1'
tp6540
a(S'verify'
S'side'
S' blue hallway'
tp6541
aa(lp6542
(S'travel'
S'steps'
S' 2'
tp6543
aa(lp6544
(S'turn'
S'left'
S''
tp6545
a(S'verify'
S'front'
S' brick hallway'
tp6546
aa(lp6547
(S'travel'
S'steps'
S' 4'
tp6548
aa(lp6549
(S'verify'
S'front'
S' hatrack'
tp6550
a(S'travel'
S'steps'
S' 3'
tp6551
a(S'verify'
p6552
S'back'
S' hatrack'
tp6553
a(g6552
S'side'
S' gravel hallway'
tp6554
aa(lp6555
(S'turn'
S''
S''
tp6556
a(S'verify'
p6557
S'front'
S' sofa'
tp6558
a(g6557
S'front'
S' flower hallway'
tp6559
aa(lp6560
(S'turn'
S''
S''
tp6561
a(S'verify'
p6562
S'back'
S' wall'
tp6563
a(g6562
S'right'
S' wall'
tp6564
a(g6562
S'left'
S' wall'
tp6565
aa(lp6566
(S'turn'
S'right'
S''
tp6567
aa(lp6568
(S'travel'
S''
S''
tp6569
a(S'verify'
S'at'
S' easel'
tp6570
aa(lp6571
(S'travel'
S'steps'
S' 1'
tp6572
a(S'verify'
S'front'
S' wall'
tp6573
aa(lp6574
(S'travel'
S'steps'
S' 1'
tp6575
aa(lp6576
(S'travel'
S''
S''
tp6577
a(S'turn'
S'right'
S''
tp6578
aa(lp6579
(S'travel'
S''
S''
tp6580
a(S'verify'
S'side'
S' blue hallway'
tp6581
aa(lp6582
(S'turn'
S''
S''
tp6583
a(S'verify'
S'front'
S' yellow hallway'
tp6584
aa(lp6585
(S'travel'
S''
S''
tp6586
a(S'verify'
S'front'
S' butterfly wall'
tp6587
aa(lp6588
(S'turn'
S'right'
S''
tp6589
aa(lp6590
(S'travel'
S'steps'
S' 4'
tp6591
a(S'verify'
S'front'
S' wall'
tp6592
aa(lp6593
(S'travel'
S'steps'
S' 1'
tp6594
a(S'verify'
S'side'
S' gravel hallway'
tp6595
aa(lp6596
(S'turn'
S''
S''
tp6597
a(S'verify'
S'left'
S' wall'
tp6598
aa(lp6599
(S'turn'
S''
S''
tp6600
a(S'verify'
S'front'
S' gravel hallway'
tp6601
aa(lp6602
(S'travel'
S''
S''
tp6603
aa(lp6604
(S'verify'
p6605
S'front'
S' sofa'
tp6606
a(g6605
S'front'
S' hatrack'
tp6607
aa(lp6608
(S'travel'
S''
S''
tp6609
a(S'verify'
S'front'
S' wall'
tp6610
a(S'turn'
S'right'
S''
tp6611
aa(lp6612
(S'verify'
S'at'
S' easel'
tp6613
aa(lp6614
(S'turn'
S'right'
S''
tp6615
aa(lp6616
(S'turn'
S'right'
S''
tp6617
aa(lp6618
(S'turn'
S''
S''
tp6619
a(S'verify'
S'front'
S' flower hallway'
tp6620
aa(lp6621
(S'travel'
S'steps'
S' 1'
tp6622
aa(lp6623
(S'travel'
S''
S''
tp6624
a(S'verify'
S'side'
S' blue hallway'
tp6625
aa(lp6626
(S'verify'
p6627
S'front'
S' sofa'
tp6628
a(g6627
S'front'
S' hatrack'
tp6629
a(g6627
S'front'
S' blue hallway'
tp6630
aa(lp6631
(S'verify'
S'front'
S' grass hallway'
tp6632
a(S'travel'
S''
S''
tp6633
a(S'verify'
S'front'
S' wall'
tp6634
a(S'turn'
S'right'
S''
tp6635
aa(lp6636
(S'turn'
S'right'
S''
tp6637
aa(lp6638
(S'turn'
S'right'
S''
tp6639
aa(lp6640
(S'turn'
S''
S''
tp6641
a(S'verify'
S'front'
S' wood hallway'
tp6642
aa(lp6643
(S'travel'
S'steps'
S' 5'
tp6644
aa(lp6645
(S'travel'
S''
S''
tp6646
a(S'verify'
S'side'
S' blue hallway'
tp6647
a(S'turn'
S'left'
S''
tp6648
aa(lp6649
(S'travel'
S''
S''
tp6650
a(S'verify'
S'side'
S' flower hallway'
tp6651
a(S'turn'
S'left'
S''
tp6652
aa(lp6653
(S'verify'
S'at'
S' barstool'
tp6654
aa(lp6655
(S'travel'
S'steps'
S' 1'
tp6656
aa(lp6657
(S'travel'
S''
S''
tp6658
a(S'verify'
S'side'
S' flower hallway'
tp6659
a(S'turn'
S'left'
S''
tp6660
aa(lp6661
(S'travel'
S'steps'
S' 1'
tp6662
aa(lp6663
(S'verify'
S'at'
S' hatrack'
tp6664
aa(lp6665
(S'turn'
S''
S''
tp6666
a(S'verify'
p6667
S'front'
S' blue hallway'
tp6668
a(g6667
S'front'
S' sofa'
tp6669
aa(lp6670
(S'travel'
S''
S''
tp6671
a(S'verify'
S'at'
S' chair'
tp6672
aa(lp6673
(S'travel'
S'steps'
S' 1'
tp6674
a(S'verify'
S'side'
S' flower hallway'
tp6675
aa(lp6676
(S'travel'
S''
S''
tp6677
a(S'verify'
S'at'
S' sofa'
tp6678
aa(lp6679
(S'travel'
S''
S''
tp6680
a(S'verify'
S'at'
S' lamp'
tp6681
a(S'turn'
S'right'
S''
tp6682
a(S'travel'
S''
S''
tp6683
a(S'verify'
S'front'
S' wall'
tp6684
aa(lp6685
(S'travel'
S'steps'
S' 2'
tp6686
aa(lp6687
(S'turn'
S'left'
S''
tp6688
a(S'travel'
S'steps'
S' 1'
tp6689
aa(lp6690
(S'turn'
S'right'
S''
tp6691
aa(lp6692
(S'turn'
S'left'
S''
tp6693
aa(lp6694
(S'verify'
S'front'
S' gravel hallway'
tp6695
a(S'travel'
S''
S''
tp6696
a(S'verify'
S'front'
S' wall'
tp6697
aa(lp6698
(S'turn'
S'right'
S''
tp6699
aa(lp6700
(S'verify'
p6701
S'front'
S' brick hallway'
tp6702
a(g6701
S'front'
S' lamp'
tp6703
a(S'travel'
S''
S''
tp6704
a(S'verify'
p6705
S'back'
S' lamp'
tp6706
a(g6705
S'at'
S' hatrack'
tp6707
aa(lp6708
(S'verify'
p6709
S'front'
S' butterfly wall'
tp6710
a(g6709
S'front'
S' blue hallway'
tp6711
a(S'travel'
S''
S''
tp6712
aa(lp6713
(S'turn'
S'left'
S''
tp6714
aa(lp6715
(S'verify'
p6716
S'front'
S' sofa'
tp6717
a(g6716
S'front'
S' hatrack'
tp6718
aa(lp6719
(S'turn'
S'right'
S''
tp6720
a(S'verify'
S'front'
S' concrete hallway'
tp6721
aa(lp6722
(S'turn'
S'left'
S''
tp6723
a(S'verify'
S'front'
S' blue hallway'
tp6724
aa(lp6725
(S'turn'
S''
S''
tp6726
a(S'verify'
S'front'
S' lamp'
tp6727
aa(lp6728
(S'travel'
S''
S''
tp6729
a(S'verify'
S'at'
S' lamp'
tp6730
a(S'turn'
S'left'
S''
tp6731
aa(lp6732
(S'turn'
S'right'
S''
tp6733
aa(lp6734
(S'turn'
S'right'
S''
tp6735
aa(lp6736
(S'turn'
S'right'
S''
tp6737
aa(lp6738
(S'verify'
p6739
S'front'
S' flower hallway'
tp6740
a(g6739
S'front'
S' easel'
tp6741
aa(lp6742
(S'travel'
S''
S''
tp6743
a(S'turn'
S''
S''
tp6744
a(S'verify'
S'front'
S' wood hallway'
tp6745
aa(lp6746
(S'travel'
S'steps'
S' 3'
tp6747
a(S'verify'
S'side'
S' concrete hallway'
p6748
tp6749
aa(lp6750
(S'turn'
S'right'
S''
tp6751
aa(lp6752
(S'turn'
S''
S''
tp6753
a(S'verify'
S'front'
S' hatrack'
tp6754
aa(lp6755
(S'travel'
S'steps'
S' 2'
tp6756
a(S'verify'
p6757
S'front'
S' yellow hallway'
tp6758
a(g6757
S'side'
S' flower hallway'
tp6759
aa(lp6760
(S'travel'
S''
S''
tp6761
a(S'verify'
S'side'
S' gravel hallway'
tp6762
a(S'turn'
S'right'
S''
tp6763
aa(lp6764
(S'verify'
S'left'
S' easel'
tp6765
aa(lp6766
(S'travel'
S''
S''
tp6767
a(S'verify'
S'at'
S' sofa'
tp6768
aa(lp6769
(S'travel'
S''
S''
tp6770
a(S'verify'
S'front'
S' blue hallway'
tp6771
aa(lp6772
(S'travel'
S'steps'
S' 1'
tp6773
aa(lp6774
(S'travel'
S''
S''
tp6775
a(S'verify'
p6776
S'front'
S' wall'
tp6777
a(g6776
S'left'
S' wall'
tp6778
a(g6776
S'back'
S' grass hallway'
tp6779
a(g6776
S'side'
S' yellow hallway'
tp6780
aa(lp6781
(S'turn'
S''
S''
tp6782
a(S'verify'
S'front'
S' lamp'
tp6783
aa(lp6784
(S'verify'
p6785
S'front'
S' brick hallway'
tp6786
a(g6785
S'front'
S' lamp'
tp6787
a(S'travel'
S''
S''
tp6788
a(S'verify'
p6789
S'back'
S' lamp'
tp6790
a(g6789
S'at'
S' easel'
tp6791
aa(lp6792
(S'turn'
S'left'
S''
tp6793
aa(lp6794
(S'turn'
S'left'
S''
tp6795
a(S'verify'
S'front'
S' grass hallway'
tp6796
a(S'travel'
S''
S''
tp6797
a(S'verify'
S'at'
S' chair'
tp6798
aa(lp6799
(S'turn'
S''
S''
tp6800
aa(lp6801
(S'travel'
S'steps'
S' 3'
tp6802
aa(lp6803
(S'turn'
S'left'
S''
tp6804
a(S'verify'
p6805
S'front'
S' brick hallway'
tp6806
a(g6805
S'front'
S' hatrack'
tp6807
a(S'travel'
S''
S''
tp6808
a(S'verify'
S'at'
S' lamp'
tp6809
a(S'travel'
S'steps'
S' 1'
tp6810
a(S'verify'
S'back'
S' hatrack'
tp6811
aa(lp6812
(S'turn'
S'right'
S''
tp6813
aa(lp6814
(S'turn'
S''
S''
tp6815
a(S'verify'
S'front'
S' blue hallway'
tp6816
a(S'travel'
S''
S''
tp6817
a(S'verify'
S'side'
S' wood hallway'
tp6818
aa(lp6819
(S'turn'
S''
S''
tp6820
a(S'verify'
p6821
S'front'
S' flower hallway'
tp6822
a(g6821
S'back'
S' sofa'
tp6823
aa(lp6824
(S'travel'
S'steps'
S' 1'
tp6825
aa(lp6826
(S'travel'
S'steps'
S' 2'
tp6827
aa(lp6828
(S'turn'
S''
S''
tp6829
a(S'verify'
p6830
S'back'
S' wall'
tp6831
a(g6830
S'right'
S' wall'
tp6832
a(g6830
S'left'
S' wall'
tp6833
aa(lp6834
(S'travel'
S''
S''
tp6835
a(S'verify'
S'side'
S' flower hallway'
tp6836
aa(lp6837
(S'travel'
S''
S''
tp6838
a(S'verify'
S'at'
S' easel'
tp6839
aa(lp6840
(S'travel'
S''
S''
tp6841
a(S'verify'
S'right'
S' flower hallway'
tp6842
aa(lp6843
(S'verify'
S'front'
S' grass hallway'
tp6844
a(S'travel'
S''
S''
tp6845
a(S'verify'
S'at'
S' hatrack'
tp6846
a(S'turn'
S'right'
S''
tp6847
aa(lp6848
(S'turn'
S''
S''
tp6849
a(S'verify'
S'front'
S' yellow hallway'
tp6850
a(S'travel'
S''
S''
tp6851
a(S'verify'
p6852
S'side'
S' grass hallway'
tp6853
a(g6852
S'back'
S' yellow hallway'
tp6854
a(g6852
S'front'
S' wall'
tp6855
aa(lp6856
(S'travel'
S''
S''
tp6857
a(S'verify'
p6858
S'front'
S' blue hallway'
tp6859
a(g6858
S'side'
S' flower hallway'
tp6860
aa(lp6861
(S'turn'
S'left'
S''
tp6862
aa(lp6863
(S'travel'
S''
S''
tp6864
a(S'verify'
S'at'
S' barstool'
tp6865
aa(lp6866
(S'turn'
S'left'
S''
tp6867
aa(lp6868
(S'travel'
S''
S''
tp6869
a(S'verify'
p6870
S'front'
S' gravel hallway'
tp6871
a(g6870
S'side'
S' yellow hallway'
tp6872
aa(lp6873
(S'turn'
S''
S''
tp6874
a(S'verify'
S'front'
S' blue hallway'
tp6875
a(S'travel'
S''
S''
tp6876
a(S'verify'
S'side'
S' grass hallway'
tp6877
aa(lp6878
(S'travel'
S''
S''
tp6879
a(S'verify'
S'at'
S' chair'
tp6880
a(S'turn'
S'left'
S''
tp6881
aa(lp6882
(S'travel'
S'steps'
S' 3'
tp6883
aa(lp6884
(S'travel'
S'steps'
S' 1'
tp6885
a(S'verify'
p6886
S'front'
S' tower wall'
tp6887
a(g6886
S'back'
S' butterfly wall'
tp6888
aa(lp6889
(S'turn'
S''
S''
tp6890
a(S'verify'
S'back'
S' wall'
tp6891
a(S'travel'
S'steps'
S' 1'
tp6892
aa(lp6893
(S'turn'
S'left'
S''
tp6894
a(S'verify'
S'front'
S' flower hallway'
tp6895
aa(lp6896
(S'turn'
S''
S''
tp6897
a(S'verify'
p6898
S'front'
S' yellow hallway'
tp6899
a(g6898
S'back'
S' wall'
tp6900
a(S'travel'
S''
S''
tp6901
a(S'verify'
S'side'
S' blue hallway'
tp6902
a(S'turn'
S'right'
S''
tp6903
a(S'verify'
S'front'
S' blue hallway'
tp6904
aa(lp6905
(S'verify'
S'side'
S' brick hallway'
tp6906
a(S'turn'
S'left'
S''
tp6907
aa(lp6908
(S'verify'
S'side'
S' concrete hallway'
tp6909
aa(lp6910
(S'turn'
S'right'
S''
tp6911
aa(lp6912
(S'verify'
p6913
S'front'
S' hatrack'
tp6914
a(g6913
S'left'
S' hallway'
tp6915
aa(lp6916
(S'travel'
S''
S''
tp6917
a(S'verify'
S'front'
S' wall'
tp6918
aa(lp6919
(S'verify'
p6920
S'front'
S' wood hallway'
tp6921
a(g6920
S'back'
S' wood hallway'
tp6922
a(g6920
S'left'
S' concrete hallway'
tp6923
aa(lp6924
(S'turn'
S'left'
S''
tp6925
aa(lp6926
(S'turn'
S'right'
S''
tp6927
aa(lp6928
(S'travel'
S''
S''
tp6929
a(S'verify'
S'side'
S' blue hallway'
tp6930
aa(lp6931
(S'travel'
S'steps'
S' 1'
tp6932
a(S'verify'
p6933
S'front'
S' wall'
tp6934
a(g6933
S'left'
S' wall'
tp6935
aa(lp6936
(S'turn'
S'left'
S''
tp6937
aa(lp6938
(S'travel'
S'steps'
S' 1'
tp6939
a(S'verify'
S'side'
S' concrete hallway'
tp6940
aa(lp6941
(S'travel'
S'steps'
S' 1'
tp6942
aa(lp6943
(S'turn'
S'right'
S''
tp6944
aa(lp6945
(S'verify'
S'front'
S' brick hallway'
tp6946
a(S'travel'
S''
S''
tp6947
aa(lp6948
(S'travel'
S'steps'
S' 1'
tp6949
aa(lp6950
(S'travel'
S''
S''
tp6951
aa(lp6952
(S'travel'
S'steps'
S' 2'
tp6953
aa(lp6954
(S'travel'
S''
S''
tp6955
a(S'verify'
S'front'
S' wall'
tp6956
aa(lp6957
(S'travel'
S''
S''
tp6958
a(S'verify'
S'side'
S' gravel hallway'
tp6959
aa(lp6960
(S'travel'
S'steps'
S' 2'
tp6961
aa(lp6962
(S'turn'
S'right'
S''
tp6963
aa(lp6964
(S'turn'
S''
S''
tp6965
a(S'verify'
S'front'
S' hatrack'
tp6966
a(S'travel'
S''
S''
tp6967
a(S'verify'
S'at'
S' hatrack'
tp6968
a(S'turn'
S'left'
S''
tp6969
aa(lp6970
(S'turn'
S'left'
S''
tp6971
aa(lp6972
(S'travel'
S''
S''
tp6973
a(S'verify'
S'at'
S' hatrack'
tp6974
aa(lp6975
(S'turn'
S''
S''
tp6976
a(S'verify'
S'back'
S' wall'
tp6977
a(S'turn'
S'left'
S''
tp6978
aa(lp6979
(S'travel'
S'steps'
S' 2'
tp6980
aa(lp6981
(S'turn'
S''
S''
tp6982
a(S'verify'
S'back'
S' wall'
tp6983
a(S'turn'
S'left'
S''
tp6984
aa(lp6985
(S'travel'
S'steps'
S' 3'
tp6986
aa(lp6987
(S'turn'
S'right'
S''
tp6988
aa(lp6989
(S'travel'
S'steps'
S' 1'
tp6990
a(S'verify'
S'side'
S' brick hallway'
tp6991
aa(lp6992
(S'travel'
S'steps'
S' 1'
tp6993
a(S'verify'
S'side'
S' blue hallway'
tp6994
aa(lp6995
(S'verify'
p6996
S'left'
S' sofa'
tp6997
a(g6996
S'right'
S' barstool'
tp6998
aa(lp6999
(S'turn'
S'right'
S''
tp7000
a(S'travel'
S'steps'
S' 1'
tp7001
aa(lp7002
(S'travel'
S'steps'
S' 2'
tp7003
aa(lp7004
(S'turn'
S'right'
S''
tp7005
a(S'travel'
S'steps'
S' 1'
tp7006
aa(lp7007
(S'turn'
S''
S''
tp7008
a(S'verify'
S'back'
S' wall'
tp7009
a(S'turn'
S'left'
S''
tp7010
aa(lp7011
(S'travel'
S'steps'
S' 1'
tp7012
a(S'turn'
S'right'
S''
tp7013
aa(lp7014
(S'travel'
S''
S''
tp7015
a(S'verify'
S'front'
S' hatrack'
tp7016
aa(lp7017
(S'travel'
S'steps'
S' 3'
tp7018
aa(lp7019
(S'verify'
S'front'
S' wood hallway'
tp7020
a(S'travel'
S'steps'
S' 2'
tp7021
a(S'verify'
S'at'
S' easel'
tp7022
aa(lp7023
(S'turn'
S'right'
S''
tp7024
a(S'verify'
S'front'
S' gravel hallway'
tp7025
aa(lp7026
(S'turn'
S'left'
S''
tp7027
aa(lp7028
(S'turn'
S'left'
S''
tp7029
aa(lp7030
(S'verify'
S'front'
S' easel'
tp7031
a(S'travel'
S''
S''
tp7032
a(S'verify'
p7033
S'back'
S' easel'
tp7034
a(g7033
S'front'
S' wall'
tp7035
a(S'turn'
S'left'
S''
tp7036
a(S'verify'
S'front'
S' brick hallway'
tp7037
aa(lp7038
(S'travel'
S'steps'
S' 3'
tp7039
aa(lp7040
(S'turn'
S''
S''
tp7041
a(S'travel'
S''
S''
tp7042
aa(lp7043
(g339
S''
S''
tp7044
aa(lp7045
(S'travel'
S''
S''
tp7046
a(S'verify'
p7047
S'front'
S' wall'
tp7048
a(g7047
S'right'
S' wall'
tp7049
a(S'turn'
S'left'
S''
tp7050
aa(lp7051
(S'travel'
S'steps'
S' 1'
tp7052
a(S'turn'
S'right'
S''
tp7053
a(S'travel'
S''
S''
tp7054
a(S'verify'
S'side'
S' brick hallway'
tp7055
aa(lp7056
(S'travel'
S'steps'
S' 4'
tp7057
aa(lp7058
(S'travel'
S'steps'
S' 1'
tp7059
a(S'verify'
S'side'
S' yellow hallway'
tp7060
aa(lp7061
(S'turn'
S''
S''
tp7062
a(S'verify'
S'front'
S' brick hallway'
tp7063
aa(lp7064
(S'travel'
S'steps'
S' 1'
tp7065
a(S'verify'
S'at'
S' lamp'
tp7066
aa(lp7067
(S'verify'
S'at'
S' lamp'
tp7068
a(S'travel'
S'steps'
S' 1'
tp7069
aa(lp7070
(S'travel'
S''
S''
tp7071
a(S'verify'
S'front'
S' wall'
tp7072
a(S'turn'
S'right'
S''
tp7073
a(S'verify'
S'front'
S' blue hallway'
tp7074
aa(lp7075
(S'travel'
S''
S''
tp7076
a(S'verify'
S'front'
S' wall'
tp7077
a(S'turn'
S'left'
S''
tp7078
a(S'verify'
S'front'
S' lamp'
tp7079
aa(lp7080
(S'travel'
S''
S''
tp7081
a(S'verify'
S'side'
S' flower hallway'
tp7082
aa(lp7083
(S'travel'
S''
S''
tp7084
a(S'verify'
S'at'
S' lamp'
tp7085
a(S'travel'
S'steps'
S' 2'
tp7086
aa(lp7087
(S'travel'
S''
S''
tp7088
a(S'verify'
S'front'
S' wall'
tp7089
aa(lp7090
(S'verify'
p7091
S'back'
S' wall'
tp7092
a(g7091
S'at'
S' 3-intersection'
tp7093
a(S'travel'
S'steps'
S' 1'
tp7094
a(S'verify'
S'side'
S' wood hallway'
tp7095
aa(lp7096
(S'turn'
S''
S''
tp7097
a(S'verify'
S'front'
S' flower hallway'
tp7098
aa(lp7099
(S'turn'
S'right'
S''
tp7100
a(S'travel'
S'steps'
S' 2'
tp7101
aa(lp7102
(S'travel'
S'steps'
S' 1'
tp7103
aa(lp7104
(S'turn'
S'right'
S''
tp7105
a(S'travel'
S'steps'
S' 2'
tp7106
aa(lp7107
(S'turn'
S''
S''
tp7108
a(S'verify'
S'front'
S' chair'
tp7109
a(S'travel'
S''
S''
tp7110
a(S'verify'
S'at'
S' chair'
tp7111
aa(lp7112
(S'turn'
S'right'
S''
tp7113
aa(lp7114
(S'verify'
S'front'
S' yellow hallway'
tp7115
a(S'travel'
S'steps'
S' 2'
tp7116
aa(lp7117
(S'travel'
S'steps'
S' 2'
tp7118
a(S'verify'
S'at'
S' easel'
tp7119
aa(lp7120
(S'travel'
S'steps'
S' 4'
tp7121
aa(lp7122
(S'travel'
S''
S''
tp7123
a(S'verify'
S'front'
S' fish wall'
tp7124
aa(lp7125
(S'turn'
S'left'
S''
tp7126
aa(lp7127
(S'verify'
S'front'
S' easel'
tp7128
a(S'travel'
S'steps'
S' 2'
tp7129
a(S'verify'
S'back'
S' easel'
tp7130
aa(lp7131
(S'turn'
S'right'
S''
tp7132
aa(lp7133
(S'turn'
S''
S''
tp7134
a(S'verify'
p7135
S'front'
S' brick hallway'
tp7136
a(g7135
S'front'
S' lamp'
tp7137
a(S'travel'
S''
S''
tp7138
a(S'verify'
S'front'
S' wall'
tp7139
aa(lp7140
(S'travel'
S''
S''
tp7141
a(S'verify'
S'at'
S' hatrack'
tp7142
aa(lp7143
(S'verify'
S'at'
S' easel'
tp7144
a(S'travel'
S'steps'
S' 1'
tp7145
a(S'verify'
p7146
S'front'
S' butterfly wall'
tp7147
a(g7146
S'back'
S' butterfly wall'
tp7148
aa(lp7149
(S'turn'
S'left'
S''
tp7150
a(S'verify'
S'front'
S' blue hallway'
tp7151
aa(lp7152
(S'travel'
S'steps'
S' 1'
tp7153
aa(lp7154
(S'travel'
S''
S''
tp7155
a(S'verify'
S'side'
S' blue hallway'
tp7156
aa(lp7157
(S'travel'
S'steps'
S' 2'
tp7158
aa(lp7159
(S'turn'
S'left'
S''
tp7160
aa(lp7161
(S'verify'
p7162
S'front'
S' blue hallway'
tp7163
a(g7162
S'side'
S' wood hallway'
tp7164
aa(lp7165
(S'turn'
S''
S''
tp7166
a(S'verify'
S'front'
S' grass hallway'
tp7167
a(S'travel'
S''
S''
tp7168
a(S'verify'
S'side'
S' yellow hallway'
tp7169
aa(lp7170
(S'turn'
S'left'
S''
tp7171
aa(lp7172
(S'verify'
S'side'
S' brick hallway'
tp7173
a(S'turn'
S'right'
S''
tp7174
aa(lp7175
(S'turn'
S''
S''
tp7176
a(S'verify'
p7177
S'back'
S' wall'
tp7178
a(g7177
S'at'
S' 3-intersection'
tp7179
aa(lp7180
(S'travel'
S''
S''
tp7181
a(S'verify'
S'side'
S' yellow hallway'
tp7182
aa(lp7183
(S'turn'
S'right'
S''
tp7184
aa(lp7185
(S'travel'
S''
S''
tp7186
a(S'verify'
p7187
S'right'
S' blue hallway'
tp7188
a(g7187
S'left'
S' blue hallway'
tp7189
aa(lp7190
(S'verify'
S'front'
S' yellow hallway'
tp7191
aa(lp7192
(S'turn'
S''
S''
tp7193
a(S'verify'
S'front'
S' brick hallway'
tp7194
a(S'travel'
S''
S''
tp7195
a(S'verify'
S'side'
S' concrete hallway'
tp7196
aa(lp7197
(S'travel'
S'steps'
S' 1'
tp7198
aa(lp7199
(S'turn'
S'right'
S''
tp7200
aa(lp7201
(S'travel'
S''
S''
tp7202
a(S'verify'
S'at'
S' easel'
tp7203
a(S'turn'
S'right'
S''
tp7204
aa(lp7205
(S'turn'
S''
S''
tp7206
a(S'verify'
S'front'
S' yellow hallway'
tp7207
a(S'travel'
S'steps'
S' 1'
tp7208
aa(lp7209
(S'travel'
S''
S''
tp7210
a(S'verify'
S'side'
S' blue hallway'
tp7211
aa(lp7212
(S'travel'
S'steps'
S' 1'
tp7213
a(S'verify'
S'side'
S' wood hallway'
tp7214
aa(lp7215
(S'travel'
S'steps'
S' 1'
tp7216
aa(lp7217
(S'travel'
S'steps'
S' 1'
tp7218
a(S'verify'
p7219
S'front'
S' wall'
tp7220
a(g7219
S'left'
S' wall'
tp7221
aa(lp7222
(S'turn'
S''
S''
tp7223
a(S'verify'
S'left'
S' wall'
tp7224
aa(lp7225
(S'turn'
S'left'
S''
tp7226
aa(lp7227
(S'turn'
S'left'
S''
tp7228
aa(lp7229
(S'turn'
S'left'
S''
tp7230
aa(lp7231
(S'turn'
S''
S''
tp7232
a(S'verify'
S'front'
S' blue hallway'
tp7233
a(S'travel'
S''
S''
tp7234
a(S'verify'
S'side'
S' grass hallway'
tp7235
aa(lp7236
(S'turn'
S'left'
S''
tp7237
aa(lp7238
(S'travel'
S'steps'
S' 1'
tp7239
a(S'verify'
S'side'
S' wood hallway'
tp7240
aa(lp7241
(S'travel'
S''
S''
tp7242
a(S'turn'
S'right'
S''
tp7243
aa(lp7244
(S'turn'
S'left'
S''
tp7245
aa(lp7246
(S'turn'
S'right'
S''
tp7247
aa(lp7248
(S'travel'
S''
S''
tp7249
a(S'verify'
S'at'
S' easel'
p7250
tp7251
a(S'turn'
S'left'
S''
tp7252
aa(lp7253
(S'travel'
S''
S''
tp7254
a(S'verify'
S'right'
S' easel'
tp7255
aa(lp7256
(S'turn'
S''
S''
tp7257
a(S'verify'
p7258
S'front'
S' wood hallway'
tp7259
a(g7258
S'back'
S' hatrack'
tp7260
aa(lp7261
(S'verify'
S'right'
S' sofa'
tp7262
aa(lp7263
(S'travel'
S''
S''
tp7264
a(S'verify'
S'front'
S' hatrack'
tp7265
aa(lp7266
(S'travel'
S''
S''
tp7267
a(S'verify'
S'right'
S' hallway'
tp7268
a(S'turn'
S'right'
S''
tp7269
aa(lp7270
(S'turn'
S'left'
S''
tp7271
a(S'travel'
S'steps'
S' 1'
tp7272
aa(lp7273
(S'verify'
S'front'
S' wood hallway'
tp7274
a(S'travel'
S''
S''
tp7275
a(S'verify'
S'at'
S' 3-intersection'
tp7276
aa(lp7277
(S'turn'
S''
S''
tp7278
a(S'verify'
p7279
S'front'
S' wood hallway'
tp7280
a(g7279
S'front'
S' easel'
p7281
tp7282
aa(lp7283
(S'verify'
S'side'
S' gravel hallway'
tp7284
aa(lp7285
(S'travel'
S'steps'
S' 1'
tp7286
a(S'verify'
S'side'
S' concrete hallway'
tp7287
aa(lp7288
(S'travel'
S'steps'
S' 1'
tp7289
aa(lp7290
(S'verify'
S'at'
S' chair'
tp7291
aa(lp7292
(S'travel'
S'steps'
S' 1'
tp7293
a(S'turn'
S'right'
S''
tp7294
aa(lp7295
(S'travel'
S'steps'
S' 1'
tp7296
aa(lp7297
(S'turn'
S'left'
S''
tp7298
aa(lp7299
(S'verify'
S'at'
S' easel'
tp7300
aa(lp7301
(S'turn'
S'right'
S''
tp7302
aa(lp7303
(S'travel'
S''
S''
tp7304
a(S'verify'
p7305
S'front'
S' brick hallway'
tp7306
a(g7305
S'back'
S' brick hallway'
tp7307
aa(lp7308
(S'turn'
S'right'
S''
tp7309
aa(lp7310
(S'verify'
S'front'
S' wall'
tp7311
aa(lp7312
(S'turn'
S''
S''
tp7313
a(S'verify'
p7314
S'front'
S' wood hallway'
tp7315
a(g7314
S'back'
S' hatrack'
tp7316
aa(lp7317
(S'verify'
S'front'
S' chair'
tp7318
a(S'travel'
S''
S''
tp7319
a(S'verify'
p7320
S'back'
S' chair'
tp7321
a(g7320
S'at'
S' lamp'
tp7322
aa(lp7323
(S'turn'
S'right'
S''
tp7324
aa(lp7325
(S'verify'
S'front'
S' blue hallway'
tp7326
a(S'travel'
S''
S''
tp7327
a(S'verify'
S'front'
S' wall'
tp7328
aa(lp7329
(S'travel'
S'steps'
S' 1'
tp7330
a(S'verify'
S'at'
S' chair'
tp7331
aa(lp7332
(S'travel'
S''
S''
tp7333
a(S'verify'
p7334
S'front'
S' wall'
tp7335
a(g7334
S'left'
S' wall'
tp7336
a(g7334
S'right'
S' wall'
tp7337
aa(lp7338
(S'turn'
S'left'
S''
tp7339
aa(lp7340
(S'turn'
S'right'
S''
tp7341
aa(lp7342
(S'turn'
S'left'
S''
tp7343
aa(lp7344
(S'turn'
S''
S''
tp7345
a(S'verify'
S'front'
S' brick hallway'
tp7346
aa(lp7347
(S'travel'
S'steps'
S' 3'
tp7348
aa(lp7349
(S'verify'
S'side'
S' flower hallway'
tp7350
a(S'turn'
S'left'
S''
tp7351
a(S'travel'
S''
S''
tp7352
a(S'verify'
p7353
S'left'
S' hallway'
tp7354
a(g7353
S'right'
S' wall'
tp7355
aa(lp7356
(S'verify'
p7357
S'front'
S' blue hallway'
tp7358
a(g7357
S'front'
S' barstool'
tp7359
a(g7357
S'front'
S' sofa'
tp7360
a(S'travel'
S''
S''
tp7361
a(S'verify'
p7362
S'back'
S' barstool'
tp7363
a(g7362
S'back'
S' sofa'
tp7364
aa(lp7365
(S'turn'
S'left'
S''
tp7366
aa(lp7367
(S'travel'
S''
S''
tp7368
aa(lp7369
(S'turn'
S''
S''
tp7370
a(S'verify'
S'front'
S' yellow hallway'
tp7371
aa(lp7372
(S'travel'
S'steps'
S' 1'
tp7373
aa(lp7374
(S'turn'
S''
S''
tp7375
a(S'verify'
S'front'
S' wood hallway'
tp7376
aa(lp7377
(S'travel'
S''
S''
tp7378
a(S'verify'
S'at'
S' lamp'
tp7379
a(S'turn'
S'left'
S''
tp7380
a(S'travel'
S''
S''
tp7381
a(S'verify'
p7382
S'front'
S' wall'
tp7383
a(g7382
S'left'
S' wall'
tp7384
a(S'turn'
S'right'
S''
tp7385
aa(lp7386
(S'travel'
S''
S''
tp7387
a(S'verify'
S'front'
S' wall'
tp7388
aa(lp7389
(S'travel'
S''
S''
tp7390
a(S'verify'
p7391
S'at'
S' easel'
tp7392
a(g7391
S'side'
S' brick hallway'
tp7393
aa(lp7394
(S'travel'
S'steps'
S' 1'
tp7395
aa(lp7396
(S'turn'
S''
S''
tp7397
a(S'verify'
S'front'
S' blue hallway'
tp7398
a(S'travel'
S''
S''
tp7399
a(S'verify'
S'side'
S' flower hallway'
tp7400
aa(lp7401
(S'travel'
S''
S''
tp7402
a(S'verify'
S'side'
S' gravel hallway'
tp7403
a(S'turn'
S'left'
S''
tp7404
aa(lp7405
(S'turn'
S'left'
S''
tp7406
aa(lp7407
(S'turn'
S'right'
S''
tp7408
a(S'travel'
S'steps'
S' 1'
tp7409
aa(lp7410
(S'turn'
S''
S''
tp7411
a(S'verify'
S'front'
S' lamp'
tp7412
aa(lp7413
(S'travel'
S''
S''
tp7414
a(S'verify'
S'front'
S' fish wall'
tp7415
aa(lp7416
(S'turn'
S''
S''
tp7417
a(S'verify'
S'front'
S' grass hallway'
tp7418
a(S'travel'
S''
S''
tp7419
a(S'verify'
S'side'
S' blue hallway'
tp7420
aa(lp7421
(S'verify'
p7422
S'front'
S' brick hallway'
tp7423
a(g7422
S'front'
S' lamp'
tp7424
a(S'travel'
S'steps'
S' 3'
tp7425
a(S'verify'
p7426
S'back'
S' lamp'
tp7427
a(g7426
S'side'
S' flower hallway'
tp7428
aa(lp7429
(S'turn'
S'right'
S''
tp7430
aa(lp7431
(S'verify'
S'side'
S' brick hallway'
tp7432
aa(lp7433
(S'turn'
S'left'
S''
tp7434
a(S'travel'
S'steps'
S' 3'
tp7435
aa(lp7436
(S'turn'
S'left'
S''
tp7437
aa(lp7438
(S'turn'
S''
S''
tp7439
a(S'verify'
S'front'
S' gravel hallway'
tp7440
a(S'travel'
S''
S''
tp7441
a(S'verify'
S'side'
S' flower hallway'
tp7442
aa(lp7443
(S'turn'
S'left'
S''
tp7444
aa(lp7445
(S'turn'
S''
S''
tp7446
a(S'verify'
S'back'
S' wall'
tp7447
a(S'travel'
S'steps'
S' 2'
tp7448
aa(lp7449
(S'turn'
S'right'
S''
tp7450
a(S'verify'
S'back'
S' easel'
tp7451
aa(lp7452
(S'verify'
S'front'
S' sofa'
tp7453
a(S'travel'
S'steps'
S' 2'
tp7454
a(S'verify'
p7455
S'back'
S' sofa'
tp7456
a(g7455
S'front'
S' yellow hallway'
tp7457
a(g7455
S'side'
S' grass hallway'
p7458
tp7459
aa(lp7460
(S'verify'
S'front'
S' flower hallway'
tp7461
aa(lp7462
(S'travel'
S''
S''
tp7463
a(S'verify'
S'at'
S' barstool'
tp7464
a(S'turn'
S'right'
S''
tp7465
aa(lp7466
(S'turn'
S'left'
S''
tp7467
a(S'travel'
S'steps'
S' 1'
tp7468
aa(lp7469
(S'verify'
p7470
S'at'
S' easel'
tp7471
a(g7470
S'left'
S' gravel hallway'
tp7472
a(g7470
S'right'
S' gravel hallway'
p7473
tp7474
aa(lp7475
(S'travel'
S'steps'
S' 2'
tp7476
aa(lp7477
(S'verify'
p7478
S'right'
S' brick hallway'
tp7479
a(g7478
S'left'
S' brick hallway'
tp7480
aa(lp7481
(S'travel'
S'steps'
S' 1'
tp7482
aa(lp7483
(S'turn'
S'right'
S''
tp7484
aa(lp7485
(S'travel'
S'steps'
S' 2'
tp7486
aa(lp7487
(S'travel'
S''
S''
tp7488
a(S'verify'
S'at'
S' chair'
tp7489
a(S'turn'
S'right'
S''
tp7490
aa(lp7491
(S'turn'
S''
S''
tp7492
a(S'verify'
S'front'
S' grass hallway'
tp7493
a(S'travel'
S''
S''
tp7494
a(S'verify'
S'side'
S' blue hallway'
tp7495
aa(lp7496
(S'verify'
p7497
S'front'
S' hatrack'
tp7498
a(g7497
S'left'
S' concrete hallway'
tp7499
aa(lp7500
(S'turn'
S''
S''
tp7501
a(S'verify'
S'left'
S' wall'
tp7502
aa(lp7503
(S'travel'
S'steps'
S' 2'
tp7504
aa(lp7505
(S'turn'
S'left'
S''
tp7506
aa(lp7507
(S'travel'
S'steps'
S' 1'
tp7508
aa(lp7509
(S'turn'
S'right'
S''
tp7510
aa(lp7511
(S'verify'
S'at'
S' easel'
tp7512
aa(lp7513
(S'turn'
S''
S''
tp7514
a(S'verify'
S'front'
S' grass hallway'
p7515
tp7516
a(S'travel'
S''
S''
tp7517
a(S'verify'
S'side'
S' brick hallway'
tp7518
aa(lp7519
(S'travel'
S'steps'
S' 1'
tp7520
aa(lp7521
(S'turn'
S'right'
S''
tp7522
a(S'verify'
S'front'
S' gravel hallway'
tp7523
aa(lp7524
(S'travel'
S''
S''
tp7525
a(S'verify'
p7526
S'front'
S' wall'
tp7527
a(g7526
S'right'
S' wall'
tp7528
aa(lp7529
(S'verify'
p7530
S'left'
S' wall'
tp7531
a(g7530
S'right'
S' wall'
tp7532
a(g7530
S'front'
S' wall'
tp7533
a(g7530
S'back'
S' fish wall'
tp7534
a(g7530
S'back'
S' yellow hallway'
tp7535
aa(lp7536
(S'turn'
S''
S''
tp7537
a(S'verify'
S'front'
S' easel'
tp7538
aa(lp7539
(S'travel'
S'steps'
S' 1'
tp7540
aa(lp7541
(S'verify'
S'front'
S' easel'
tp7542
aa(lp7543
(S'turn'
S'left'
S''
tp7544
aa(lp7545
(S'verify'
S'left'
S' butterfly wall'
tp7546
aa(lp7547
(S'turn'
S''
S''
tp7548
a(S'verify'
p7549
S'back'
S' wall'
tp7550
a(g7549
S'at'
S' 3-intersection'
tp7551
aa(lp7552
(S'travel'
S''
S''
tp7553
a(S'verify'
p7554
S'side'
S' concrete hallway'
tp7555
a(g7554
S'front'
S' brick hallway'
tp7556
aa(lp7557
(S'verify'
S'front'
S' brick hallway'
tp7558
a(S'travel'
S'steps'
S' 4'
tp7559
a(S'verify'
S'side'
S' wood hallway'
tp7560
aa(lp7561
(S'travel'
S''
S''
tp7562
a(S'verify'
S'front'
S' butterfly wall'
tp7563
aa(lp7564
(S'travel'
S''
S''
tp7565
a(S'verify'
S'front'
S' wall'
tp7566
a(S'turn'
S'left'
S''
tp7567
a(S'verify'
S'front'
S' easel'
tp7568
aa(lp7569
(S'turn'
S'left'
S''
tp7570
aa(lp7571
(S'travel'
S'steps'
S' 1'
tp7572
aa(lp7573
(S'travel'
S'steps'
S' 2'
tp7574
aa(lp7575
(S'turn'
S''
S''
tp7576
a(S'verify'
S'front'
S' hatrack'
tp7577
aa(lp7578
(S'turn'
S'left'
S''
tp7579
aa(lp7580
(S'turn'
S''
S''
tp7581
a(S'verify'
S'front'
S' brick hallway'
tp7582
aa(lp7583
(S'turn'
S'left'
S''
tp7584
aa(lp7585
(S'turn'
S''
S''
tp7586
a(S'verify'
S'front'
S' hatrack'
tp7587
a(S'travel'
S''
S''
tp7588
a(S'verify'
S'at'
S' hatrack'
tp7589
aa(lp7590
(S'turn'
S''
S''
tp7591
a(S'verify'
S'front'
S' concrete hallway'
tp7592
aa(lp7593
(S'travel'
S''
S''
tp7594
a(S'verify'
S'at'
S' lamp'
tp7595
a(S'travel'
S'steps'
S' 1'
tp7596
aa(lp7597
(S'travel'
S'steps'
S' 1'
tp7598
aa(lp7599
(S'turn'
S''
S''
tp7600
a(S'verify'
p7601
S'back'
S' wall'
tp7602
a(g7601
S'at'
S' 3-intersection'
tp7603
aa(lp7604
(S'travel'
S'steps'
S' 1'
tp7605
aa(lp7606
(g339
S''
S''
tp7607
aa(lp7608
(S'travel'
S'steps'
S' 1'
tp7609
aa(lp7610
(S'turn'
S'right'
S''
tp7611
a(S'verify'
S'front'
S' easel'
tp7612
a(S'travel'
S''
S''
tp7613
a(S'verify'
p7614
S'side'
S' blue hallway'
tp7615
a(g7614
S'back'
S' easel'
tp7616
aa(lp7617
(g339
S''
S''
tp7618
aa(lp7619
(S'turn'
S'right'
S''
tp7620
aa(lp7621
(S'travel'
S''
S''
tp7622
a(S'verify'
p7623
S'front'
S' wood hallway'
tp7624
a(g7623
S'back'
S' wood hallway'
p7625
tp7626
aa(lp7627
(S'travel'
S''
S''
tp7628
a(S'verify'
p7629
S'front'
S' wall'
tp7630
a(g7629
S'left'
S' wall'
tp7631
aa(lp7632
(S'travel'
S'steps'
S' 5'
tp7633
a(S'verify'
S'side'
S' yellow hallway'
tp7634
aa(lp7635
(S'turn'
S'right'
S''
tp7636
a(S'verify'
S'front'
S' blue hallway'
tp7637
aa(lp7638
(S'travel'
S''
S''
tp7639
aa(lp7640
(S'travel'
S''
S''
tp7641
a(S'verify'
p7642
S'front'
S' wall'
tp7643
a(g7642
S'left'
S' wall'
tp7644
a(g7642
S'right'
S' wall'
tp7645
aa(lp7646
(S'turn'
S''
S''
tp7647
a(S'verify'
S'front'
S' brick hallway'
tp7648
aa(lp7649
(S'travel'
S''
S''
tp7650
a(S'verify'
S'side'
S' gravel hallway'
tp7651
a(S'turn'
S'right'
S''
tp7652
a(S'verify'
S'front'
S' gravel hallway'
tp7653
aa(lp7654
(S'turn'
S'right'
S''
tp7655
a(S'travel'
S''
S''
tp7656
a(S'verify'
S'at'
S' barstool'
tp7657
aa(lp7658
(S'turn'
S'right'
S''
tp7659
aa(lp7660
(S'travel'
S'steps'
S' 1'
tp7661
aa(lp7662
(S'turn'
S'left'
S''
tp7663
aa(lp7664
(S'travel'
S''
S''
tp7665
a(S'verify'
S'at'
S' barstool'
tp7666
aa(lp7667
(S'travel'
S'steps'
S' 1'
tp7668
aa(lp7669
(S'turn'
S'right'
S''
tp7670
a(S'travel'
S''
S''
tp7671
a(S'verify'
S'at'
S' hatrack'
tp7672
aa(lp7673
(S'travel'
S''
S''
tp7674
a(S'turn'
S'left'
S''
tp7675
a(S'verify'
S'front'
S' flower hallway'
tp7676
aa(lp7677
(S'travel'
S'steps'
S' 1'
tp7678
aa(lp7679
(S'turn'
S''
S''
tp7680
a(S'verify'
S'front'
S' chair'
tp7681
a(S'travel'
S''
S''
tp7682
a(S'verify'
p7683
S'back'
S' chair'
tp7684
a(g7683
S'front'
S' wall'
tp7685
a(g7683
S'right'
S' wall'
tp7686
aa(lp7687
(S'verify'
S'at'
S' easel'
tp7688
aa(lp7689
(S'verify'
S'front'
S' barstool'
tp7690
aa(lp7691
(S'travel'
S''
S''
tp7692
a(S'verify'
S'side'
S' flower hallway'
tp7693
aa(lp7694
(S'travel'
S'steps'
S' 1'
tp7695
aa(lp7696
(S'travel'
S'steps'
S' 1'
tp7697
aa(lp7698
(S'turn'
S''
S''
tp7699
a(S'verify'
S'back'
S' wall'
tp7700
a(S'turn'
S'right'
S''
tp7701
aa(lp7702
(S'verify'
S'front'
S' easel'
tp7703
aa(lp7704
(S'turn'
S''
S''
tp7705
a(S'verify'
S'front'
S' easel'
tp7706
aa(lp7707
(S'turn'
S'left'
S''
tp7708
aa(lp7709
(S'turn'
S'right'
S''
tp7710
a(S'verify'
S'front'
S' brick hallway'
tp7711
aa(lp7712
(S'verify'
S'front'
S' easel'
tp7713
aa(lp7714
(S'turn'
S'right'
S''
tp7715
a(S'verify'
S'front'
S' blue hallway'
tp7716
aa(lp7717
(S'travel'
S''
S''
tp7718
a(S'verify'
S'front'
S' wall'
tp7719
aa(lp7720
(S'turn'
S'left'
S''
tp7721
a(S'verify'
S'front'
S' brick hallway'
tp7722
a(S'travel'
S'steps'
S' 4'
tp7723
aa(lp7724
(S'travel'
S'steps'
S' 1'
tp7725
aa(lp7726
(S'turn'
S'right'
S''
tp7727
aa(lp7728
(S'travel'
S'steps'
S' 1'
tp7729
aa(lp7730
(S'verify'
S'front'
S' yellow hallway'
tp7731
a(S'travel'
S'steps'
S' 2'
tp7732
aa(lp7733
(S'turn'
S''
S''
tp7734
aa(lp7735
(S'turn'
S''
S''
tp7736
a(S'verify'
p7737
S'back'
S' wall'
tp7738
a(g7737
S'at'
S' 3-intersection'
tp7739
aa(lp7740
(S'travel'
S'steps'
S' 1'
tp7741
aa(lp7742
(S'travel'
S'steps'
S' 1'
tp7743
aa(lp7744
(S'travel'
S'steps'
S' 2'
tp7745
aa(lp7746
(S'turn'
S'right'
S''
tp7747
a(S'verify'
S'front'
S' flower hallway'
tp7748
aa(lp7749
(S'travel'
S''
S''
tp7750
a(S'verify'
S'side'
S' brick hallway'
tp7751
aa(lp7752
(S'turn'
S'left'
S''
tp7753
aa(lp7754
(S'turn'
S'left'
S''
tp7755
a(S'verify'
S'front'
S' yellow hallway'
tp7756
aa(lp7757
(S'verify'
S'front'
S' sofa'
tp7758
aa(lp7759
(S'travel'
S'steps'
S' 1'
tp7760
a(S'turn'
S'left'
S''
tp7761
aa(lp7762
(S'turn'
S''
S''
tp7763
a(S'verify'
S'front'
S' hatrack'
tp7764
a(S'travel'
S''
S''
tp7765
a(S'verify'
S'at'
S' hatrack'
tp7766
aa(lp7767
(S'turn'
S''
S''
tp7768
a(S'verify'
S'front'
S' hatrack'
tp7769
a(S'travel'
S''
S''
tp7770
a(S'verify'
S'at'
S' hatrack'
tp7771
aa(lp7772
(S'turn'
S''
S''
tp7773
a(S'verify'
p7774
S'front'
S' brick hallway'
tp7775
a(g7774
S'back'
S' sofa'
tp7776
aa(lp7777
(S'turn'
S''
S''
tp7778
a(S'verify'
S'right'
S' easel'
tp7779
aa(lp7780
(S'verify'
p7781
S'side'
S' concrete hallway'
tp7782
a(g7781
S'back'
S' yellow hallway'
tp7783
a(g7781
S'front'
S' yellow hallway'
tp7784
aa(lp7785
(S'travel'
S''
S''
tp7786
aa(lp7787
(S'verify'
S'at'
S' chair'
tp7788
a(S'turn'
S'left'
S''
tp7789
a(S'verify'
S'front'
S' blue hallway'
tp7790
aa(lp7791
(S'travel'
S'steps'
S' 1'
tp7792
aa.